---
triple:          'arm64-apple-darwin'
binary-path:     '/Users/Shared/my_projects/py-percent/vibe_loadbar/target/debug/deps/libvibe_loadbar_rs.dylib'
relocations:
  - { offset: 0x1E, size: 0x8, addend: 0x0, symName: '__ZN4core7convert3num18ptr_try_from_impls69_$LT$impl$u20$core..convert..TryFrom$LT$u32$GT$$u20$for$u20$usize$GT$8try_from17h3557f1ed7199dc75E', symObjAddr: 0x0, symBinAddr: 0x890, symSize: 0x1C }
  - { offset: 0x44, size: 0x8, addend: 0x0, symName: '__ZN4core7convert3num18ptr_try_from_impls69_$LT$impl$u20$core..convert..TryFrom$LT$u32$GT$$u20$for$u20$usize$GT$8try_from17h3557f1ed7199dc75E', symObjAddr: 0x0, symBinAddr: 0x890, symSize: 0x1C }
  - { offset: 0x158, size: 0x8, addend: 0x0, symName: _PyInit_vibe_loadbar_rs, symObjAddr: 0x0, symBinAddr: 0x8AC, symSize: 0x34 }
  - { offset: 0x17D, size: 0x8, addend: 0x0, symName: __ZN15vibe_loadbar_rs15vibe_loadbar_rs9_PYO3_DEF17h818032c12071b058E, symObjAddr: 0x58, symBinAddr: 0xE0478, symSize: 0x0 }
  - { offset: 0x18A, size: 0x8, addend: 0x0, symName: _PyInit_vibe_loadbar_rs, symObjAddr: 0x0, symBinAddr: 0x8AC, symSize: 0x34 }
  - { offset: 0x1F25, size: 0x8, addend: 0x0, symName: __ZN4pyo35impl_9pymethods11tp_new_impl17hb3f9468dc0823743E, symObjAddr: 0x0, symBinAddr: 0x8E0, symSize: 0x6C }
  - { offset: 0x2702, size: 0x8, addend: 0x0, symName: '__ZN50_$LT$T$u20$as$u20$core..convert..Into$LT$U$GT$$GT$4into17h943b158b0a8c322bE', symObjAddr: 0x6C, symBinAddr: 0x94C, symSize: 0x24 }
  - { offset: 0x3379, size: 0x8, addend: 0x0, symName: __ZN4pyo35impl_9pymethods11tp_new_impl17hb3f9468dc0823743E, symObjAddr: 0x0, symBinAddr: 0x8E0, symSize: 0x6C }
  - { offset: 0x4198, size: 0x8, addend: 0x0, symName: '__ZN87_$LT$$BP$mut$u20$pyo3_ffi..object..PyObject$u20$as$u20$pyo3..ffi_ptr_ext..FfiPtrExt$GT$12assume_owned17h79a8f8aa3ff23a85E', symObjAddr: 0x0, symBinAddr: 0x970, symSize: 0x24 }
  - { offset: 0x41EB, size: 0x8, addend: 0x0, symName: __ZN8pyo3_ffi6object18PyObject_TypeCheck17h66e6fccd97f14983E, symObjAddr: 0x6C, symBinAddr: 0x9DC, symSize: 0x74 }
  - { offset: 0x4228, size: 0x8, addend: 0x0, symName: __ZN8pyo3_ffi6object7Py_None17h753ece9a31efc8fdE, symObjAddr: 0xE0, symBinAddr: 0xA50, symSize: 0xC }
  - { offset: 0x4246, size: 0x8, addend: 0x0, symName: __ZN8pyo3_ffi6object7Py_TYPE17hd3a4eaf438ffc1d4E, symObjAddr: 0xEC, symBinAddr: 0xA5C, symSize: 0x74 }
  - { offset: 0x54B6, size: 0x8, addend: 0x0, symName: '__ZN87_$LT$$BP$mut$u20$pyo3_ffi..object..PyObject$u20$as$u20$pyo3..ffi_ptr_ext..FfiPtrExt$GT$12assume_owned17h79a8f8aa3ff23a85E', symObjAddr: 0x0, symBinAddr: 0x970, symSize: 0x24 }
  - { offset: 0x54FB, size: 0x8, addend: 0x0, symName: '__ZN87_$LT$$BP$mut$u20$pyo3_ffi..object..PyObject$u20$as$u20$pyo3..ffi_ptr_ext..FfiPtrExt$GT$15assume_borrowed17h9ce6028d9bcab1adE', symObjAddr: 0x24, symBinAddr: 0x994, symSize: 0x24 }
  - { offset: 0x5540, size: 0x8, addend: 0x0, symName: '__ZN87_$LT$$BP$mut$u20$pyo3_ffi..object..PyObject$u20$as$u20$pyo3..ffi_ptr_ext..FfiPtrExt$GT$22assume_borrowed_or_opt17hdf31dc8a030abe02E', symObjAddr: 0x48, symBinAddr: 0x9B8, symSize: 0x24 }
  - { offset: 0x5B7E, size: 0x8, addend: 0x0, symName: __ZN4core4time8Duration11as_secs_f6417h34966bf627e9514fE, symObjAddr: 0x0, symBinAddr: 0xAD0, symSize: 0x3C }
  - { offset: 0x5C11, size: 0x8, addend: 0x0, symName: __ZN4core4time8Duration11as_secs_f6417h34966bf627e9514fE, symObjAddr: 0x0, symBinAddr: 0xAD0, symSize: 0x3C }
  - { offset: 0x5C52, size: 0x8, addend: 0x0, symName: '__ZN44_$LT$$RF$T$u20$as$u20$core..fmt..Display$GT$3fmt17hff624624f078af2dE', symObjAddr: 0x0, symBinAddr: 0xB0C, symSize: 0x30 }
  - { offset: 0x5C6E, size: 0x8, addend: 0x0, symName: '__ZN44_$LT$$RF$T$u20$as$u20$core..fmt..Display$GT$3fmt17hff624624f078af2dE', symObjAddr: 0x0, symBinAddr: 0xB0C, symSize: 0x30 }
  - { offset: 0x6037, size: 0x8, addend: 0x0, symName: __ZN4core3fmt9Arguments3new17h1f72bf4ebaa20943E, symObjAddr: 0x30, symBinAddr: 0xB3C, symSize: 0x1C }
  - { offset: 0x609D, size: 0x8, addend: 0x0, symName: __ZN4core3fmt9Arguments3new17h355d523ceb868403E, symObjAddr: 0x4C, symBinAddr: 0xB58, symSize: 0x1C }
  - { offset: 0x60E9, size: 0x8, addend: 0x0, symName: __ZN4core3fmt9Arguments3new17h730f8773a263b397E, symObjAddr: 0x68, symBinAddr: 0xB74, symSize: 0x1C }
  - { offset: 0x6135, size: 0x8, addend: 0x0, symName: __ZN4core3fmt9Arguments3new17h9b4df22bc0483929E, symObjAddr: 0x84, symBinAddr: 0xB90, symSize: 0x1C }
  - { offset: 0x61D3, size: 0x8, addend: 0x0, symName: '__ZN83_$LT$crossterm..style..attributes..Attributes$u20$as$u20$core..default..Default$GT$7default17h019bb38222650602E', symObjAddr: 0x0, symBinAddr: 0xBAC, symSize: 0x8 }
  - { offset: 0x61F4, size: 0x8, addend: 0x0, symName: '__ZN83_$LT$crossterm..style..attributes..Attributes$u20$as$u20$core..default..Default$GT$7default17h019bb38222650602E', symObjAddr: 0x0, symBinAddr: 0xBAC, symSize: 0x8 }
  - { offset: 0x624F, size: 0x8, addend: 0x0, symName: __ZN3std5panic12catch_unwind17h00c2959e8c5f4f7fE, symObjAddr: 0x0, symBinAddr: 0xBB4, symSize: 0xC0 }
  - { offset: 0x7EDB, size: 0x8, addend: 0x0, symName: __ZN3std5panic12catch_unwind17h00c2959e8c5f4f7fE, symObjAddr: 0x0, symBinAddr: 0xBB4, symSize: 0xC0 }
  - { offset: 0x8000, size: 0x8, addend: 0x0, symName: __ZN3std5panic12catch_unwind17h42ce8bcd95360ab7E, symObjAddr: 0xC0, symBinAddr: 0xC74, symSize: 0xE4 }
  - { offset: 0x8159, size: 0x8, addend: 0x0, symName: __ZN3std5panic12catch_unwind17h668474e2245ddb05E, symObjAddr: 0x1A4, symBinAddr: 0xD58, symSize: 0xD0 }
  - { offset: 0x827E, size: 0x8, addend: 0x0, symName: __ZN3std5panic12catch_unwind17h6de0c96ca1ce3588E, symObjAddr: 0x274, symBinAddr: 0xE28, symSize: 0xD0 }
  - { offset: 0x83A3, size: 0x8, addend: 0x0, symName: __ZN3std5panic12catch_unwind17hf64a2d7c08fc3851E, symObjAddr: 0x344, symBinAddr: 0xEF8, symSize: 0x100 }
  - { offset: 0x900C, size: 0x8, addend: 0x0, symName: '__ZN118_$LT$pyo3..impl_..pyclass..SendablePyClass$LT$T$GT$$u20$as$u20$pyo3..impl_..pyclass..PyClassThreadChecker$LT$T$GT$$GT$3new17ha30475221701d3b6E', symObjAddr: 0x0, symBinAddr: 0x104C, symSize: 0x4 }
  - { offset: 0xA299, size: 0x8, addend: 0x0, symName: '__ZN118_$LT$pyo3..impl_..pyclass..SendablePyClass$LT$T$GT$$u20$as$u20$pyo3..impl_..pyclass..PyClassThreadChecker$LT$T$GT$$GT$3new17ha30475221701d3b6E', symObjAddr: 0x0, symBinAddr: 0x104C, symSize: 0x4 }
  - { offset: 0xA2BD, size: 0x8, addend: 0x0, symName: '__ZN118_$LT$pyo3..impl_..pyclass..SendablePyClass$LT$T$GT$$u20$as$u20$pyo3..impl_..pyclass..PyClassThreadChecker$LT$T$GT$$GT$6ensure17h6bd78f89c3b5ed16E', symObjAddr: 0x4, symBinAddr: 0x1050, symSize: 0x10 }
  - { offset: 0xA2F0, size: 0x8, addend: 0x0, symName: '__ZN118_$LT$pyo3..impl_..pyclass..SendablePyClass$LT$T$GT$$u20$as$u20$pyo3..impl_..pyclass..PyClassThreadChecker$LT$T$GT$$GT$8can_drop17h7505acf405e8e48bE', symObjAddr: 0x14, symBinAddr: 0x1060, symSize: 0x18 }
  - { offset: 0xA343, size: 0x8, addend: 0x0, symName: __ZN4pyo35impl_7pyclass10tp_dealloc17h88ba7b5e8002044bE, symObjAddr: 0x2C, symBinAddr: 0x1078, symSize: 0x34 }
  - { offset: 0xA37B, size: 0x8, addend: 0x0, symName: __ZN4pyo35impl_7pyclass11PyClassDict10clear_dict17h5d174743b35aa2b8E, symObjAddr: 0x60, symBinAddr: 0x10AC, symSize: 0x10 }
  - { offset: 0xA3CB, size: 0x8, addend: 0x0, symName: __ZN4pyo35impl_7pyclass14PyClassWeakRef14clear_weakrefs17h2939cbcc579dd974E, symObjAddr: 0x70, symBinAddr: 0x10BC, symSize: 0x14 }
  - { offset: 0xA424, size: 0x8, addend: 0x0, symName: __ZN4pyo35impl_7pyclass18tp_dealloc_with_gc17h9ea68c27e09ea890E, symObjAddr: 0x84, symBinAddr: 0x10D0, symSize: 0x4C }
  - { offset: 0xAF5A, size: 0x8, addend: 0x0, symName: '__ZN4pyo35impl_7pyclass29PyClassImplCollector$LT$T$GT$3new17h1d1f737ed2141bd4E', symObjAddr: 0xD0, symBinAddr: 0x111C, symSize: 0x4 }
  - { offset: 0xAFE7, size: 0x8, addend: 0x0, symName: __ZN4core3ptr5write17h50a94c475bf30b09E, symObjAddr: 0x0, symBinAddr: 0x1120, symSize: 0x2C }
  - { offset: 0xAFFE, size: 0x8, addend: 0x0, symName: __ZN4core3ptr5write17h50a94c475bf30b09E, symObjAddr: 0x0, symBinAddr: 0x1120, symSize: 0x2C }
  - { offset: 0xB874, size: 0x8, addend: 0x0, symName: __ZN4pyo37pyclass18create_type_object18create_type_object17h9ac5166e5483c057E, symObjAddr: 0x0, symBinAddr: 0x114C, symSize: 0x164 }
  - { offset: 0xCE33, size: 0x8, addend: 0x0, symName: __ZN4pyo37pyclass18create_type_object18create_type_object17h9ac5166e5483c057E, symObjAddr: 0x0, symBinAddr: 0x114C, symSize: 0x164 }
  - { offset: 0xDD95, size: 0x8, addend: 0x0, symName: '__ZN104_$LT$core..iter..adapters..copied..Copied$LT$I$GT$$u20$as$u20$core..iter..traits..iterator..Iterator$GT$4next17h537fd380b65029a5E', symObjAddr: 0x0, symBinAddr: 0x12B0, symSize: 0x5C }
  - { offset: 0xF096, size: 0x8, addend: 0x0, symName: '__ZN104_$LT$core..iter..adapters..copied..Copied$LT$I$GT$$u20$as$u20$core..iter..traits..iterator..Iterator$GT$4next17h537fd380b65029a5E', symObjAddr: 0x0, symBinAddr: 0x12B0, symSize: 0x5C }
  - { offset: 0xF13B, size: 0x8, addend: 0x0, symName: '__ZN63_$LT$I$u20$as$u20$core..iter..traits..collect..IntoIterator$GT$9into_iter17h91e77c20e313190aE', symObjAddr: 0x5C, symBinAddr: 0x130C, symSize: 0x1C }
  - { offset: 0xF7EB, size: 0x8, addend: 0x0, symName: __ZN4core4iter6traits12double_ended19DoubleEndedIterator5rfold17h64921fa7c60dd4bfE, symObjAddr: 0x0, symBinAddr: 0x1328, symSize: 0x10C }
  - { offset: 0xF811, size: 0x8, addend: 0x0, symName: __ZN4core4iter6traits12double_ended19DoubleEndedIterator5rfold17h64921fa7c60dd4bfE, symObjAddr: 0x0, symBinAddr: 0x1328, symSize: 0x10C }
  - { offset: 0xF9EF, size: 0x8, addend: 0x0, symName: '__ZN4core3ptr9const_ptr33_$LT$impl$u20$$BP$const$u20$T$GT$20offset_from_unsigned18precondition_check17h7a0e55fa3fd217cbE', symObjAddr: 0x0, symBinAddr: 0x1434, symSize: 0x60 }
  - { offset: 0xFA15, size: 0x8, addend: 0x0, symName: '__ZN4core3ptr9const_ptr33_$LT$impl$u20$$BP$const$u20$T$GT$20offset_from_unsigned18precondition_check17h7a0e55fa3fd217cbE', symObjAddr: 0x0, symBinAddr: 0x1434, symSize: 0x60 }
  - { offset: 0xFAFE, size: 0x8, addend: 0x0, symName: '__ZN4core3ptr9const_ptr33_$LT$impl$u20$$BP$const$u20$T$GT$6offset18precondition_check17h35e8d314db187e1cE', symObjAddr: 0x60, symBinAddr: 0x1494, symSize: 0xC4 }
  - { offset: 0xFEE5, size: 0x8, addend: 0x0, symName: '__ZN114_$LT$pyo3..pyclass_init..PyNativeTypeInitializer$LT$T$GT$$u20$as$u20$pyo3..pyclass_init..PyObjectInit$LT$T$GT$$GT$15into_new_object17h84a741ead524d58cE', symObjAddr: 0x0, symBinAddr: 0x1558, symSize: 0x3C }
  - { offset: 0x11591, size: 0x8, addend: 0x0, symName: '__ZN114_$LT$pyo3..pyclass_init..PyNativeTypeInitializer$LT$T$GT$$u20$as$u20$pyo3..pyclass_init..PyObjectInit$LT$T$GT$$GT$15into_new_object17h84a741ead524d58cE', symObjAddr: 0x0, symBinAddr: 0x1558, symSize: 0x3C }
  - { offset: 0x11758, size: 0x8, addend: 0x0, symName: '__ZN96_$LT$pyo3..pyclass_init..PyClassInitializer$LT$T$GT$$u20$as$u20$core..convert..From$LT$T$GT$$GT$4from17he94388a57f96514fE', symObjAddr: 0x398, symBinAddr: 0x18F0, symSize: 0x48 }
  - { offset: 0x1255F, size: 0x8, addend: 0x0, symName: '__ZN4pyo312pyclass_init27PyClassInitializer$LT$T$GT$27create_class_object_of_type17hc82ecce139628658E', symObjAddr: 0x3C, symBinAddr: 0x1594, symSize: 0x30C }
  - { offset: 0x1270C, size: 0x8, addend: 0x0, symName: '__ZN4pyo312pyclass_init27PyClassInitializer$LT$T$GT$3new17ha0365b38a2ca316aE', symObjAddr: 0x348, symBinAddr: 0x18A0, symSize: 0x50 }
  - { offset: 0x12764, size: 0x8, addend: 0x0, symName: __ZN4core4iter6traits8iterator8Iterator3zip17he16ba8e97739d092E, symObjAddr: 0x0, symBinAddr: 0x1938, symSize: 0xB4 }
  - { offset: 0x13045, size: 0x8, addend: 0x0, symName: __ZN4core4iter6traits8iterator8Iterator3zip17he16ba8e97739d092E, symObjAddr: 0x0, symBinAddr: 0x1938, symSize: 0xB4 }
  - { offset: 0x130BB, size: 0x8, addend: 0x0, symName: __ZN4core4iter6traits8iterator8Iterator4take17h36c1858aec7d1eb2E, symObjAddr: 0xB4, symBinAddr: 0x19EC, symSize: 0x24 }
  - { offset: 0x142A8, size: 0x8, addend: 0x0, symName: '__ZN106_$LT$pyo3..impl_..extract_argument..NoVarargs$u20$as$u20$pyo3..impl_..extract_argument..VarargsHandler$GT$20handle_varargs_tuple17h8197adba9f017698E', symObjAddr: 0x0, symBinAddr: 0x1A10, symSize: 0x94 }
  - { offset: 0x15A2A, size: 0x8, addend: 0x0, symName: '__ZN106_$LT$pyo3..impl_..extract_argument..NoVarargs$u20$as$u20$pyo3..impl_..extract_argument..VarargsHandler$GT$20handle_varargs_tuple17h8197adba9f017698E', symObjAddr: 0x0, symBinAddr: 0x1A10, symSize: 0x94 }
  - { offset: 0x15AA3, size: 0x8, addend: 0x0, symName: '__ZN106_$LT$pyo3..impl_..extract_argument..NoVarargs$u20$as$u20$pyo3..impl_..extract_argument..VarargsHandler$GT$23handle_varargs_fastcall17h035f117d5ed95024E', symObjAddr: 0x94, symBinAddr: 0x1AA4, symSize: 0xA8 }
  - { offset: 0x15B17, size: 0x8, addend: 0x0, symName: '__ZN114_$LT$pyo3..impl_..extract_argument..NoVarkeywords$u20$as$u20$pyo3..impl_..extract_argument..VarkeywordsHandler$GT$17handle_varkeyword17h7f9a49ca36ea666eE', symObjAddr: 0x13C, symBinAddr: 0x1B4C, symSize: 0x60 }
  - { offset: 0x15C56, size: 0x8, addend: 0x0, symName: __ZN4pyo35impl_16extract_argument24unwrap_required_argument17h7a3bd12e79d76d73E, symObjAddr: 0x538, symBinAddr: 0x1F48, symSize: 0x58 }
  - { offset: 0x15F90, size: 0x8, addend: 0x0, symName: __ZN4pyo35impl_16extract_argument19FunctionDescription36find_keyword_parameter_in_positional17h845d019445ab46c0E, symObjAddr: 0x19C, symBinAddr: 0x1BAC, symSize: 0x5C }
  - { offset: 0x15FC2, size: 0x8, addend: 0x0, symName: __ZN4pyo35impl_16extract_argument19FunctionDescription38find_keyword_parameter_in_keyword_only17h294a9363b9b30120E, symObjAddr: 0x1F8, symBinAddr: 0x1C08, symSize: 0x5C }
  - { offset: 0x164FF, size: 0x8, addend: 0x0, symName: __ZN4pyo35impl_16extract_argument19FunctionDescription44ensure_no_missing_required_keyword_arguments17hd6af332a74181db1E, symObjAddr: 0x254, symBinAddr: 0x1C64, symSize: 0x154 }
  - { offset: 0x165CB, size: 0x8, addend: 0x0, symName: __ZN4pyo35impl_16extract_argument19FunctionDescription47ensure_no_missing_required_positional_arguments17h9fe369c1d8ced699E, symObjAddr: 0x3A8, symBinAddr: 0x1DB8, symSize: 0x190 }
  - { offset: 0x16760, size: 0x8, addend: 0x0, symName: '__ZN70_$LT$core..num..error..TryFromIntError$u20$as$u20$core..fmt..Debug$GT$3fmt17hc155e0b861c2aa40E', symObjAddr: 0x0, symBinAddr: 0x1FA0, symSize: 0x54 }
  - { offset: 0x1678F, size: 0x8, addend: 0x0, symName: '__ZN70_$LT$core..num..error..TryFromIntError$u20$as$u20$core..fmt..Debug$GT$3fmt17hc155e0b861c2aa40E', symObjAddr: 0x0, symBinAddr: 0x1FA0, symSize: 0x54 }
  - { offset: 0x16960, size: 0x8, addend: 0x0, symName: __ZN4core3fmt9Arguments17from_str_nonconst17hab3739af8ac1693eE, symObjAddr: 0x0, symBinAddr: 0x1FF4, symSize: 0x28 }
  - { offset: 0x16AD9, size: 0x8, addend: 0x0, symName: '__ZN57_$LT$core..fmt..Formatter$u20$as$u20$core..fmt..Write$GT$9write_fmt17h3b8e7ace9c6b07e4E', symObjAddr: 0x14C, symBinAddr: 0x2140, symSize: 0xA4 }
  - { offset: 0x16E43, size: 0x8, addend: 0x0, symName: __ZN4core3fmt9Arguments17from_str_nonconst17hab3739af8ac1693eE, symObjAddr: 0x0, symBinAddr: 0x1FF4, symSize: 0x28 }
  - { offset: 0x16ED1, size: 0x8, addend: 0x0, symName: __ZN4core3fmt9Arguments23as_statically_known_str17h13c85cfed23a159fE, symObjAddr: 0x28, symBinAddr: 0x201C, symSize: 0x104 }
  - { offset: 0x16FAB, size: 0x8, addend: 0x0, symName: __ZN4core3fmt9Arguments8from_str17h5815ab3e5107ff86E, symObjAddr: 0x12C, symBinAddr: 0x2120, symSize: 0x20 }
  - { offset: 0x16FEC, size: 0x8, addend: 0x0, symName: '__ZN106_$LT$core..ops..range..Range$LT$usize$GT$$u20$as$u20$core..slice..index..SliceIndex$LT$$u5b$T$u5d$$GT$$GT$9index_mut17hbfad698fbf89f459E', symObjAddr: 0x0, symBinAddr: 0x21E4, symSize: 0xBC }
  - { offset: 0x181BF, size: 0x8, addend: 0x0, symName: '__ZN106_$LT$core..ops..range..Range$LT$usize$GT$$u20$as$u20$core..slice..index..SliceIndex$LT$$u5b$T$u5d$$GT$$GT$9index_mut17hbfad698fbf89f459E', symObjAddr: 0x0, symBinAddr: 0x21E4, symSize: 0xBC }
  - { offset: 0x18270, size: 0x8, addend: 0x0, symName: '__ZN108_$LT$core..ops..range..RangeTo$LT$usize$GT$$u20$as$u20$core..slice..index..SliceIndex$LT$$u5b$T$u5d$$GT$$GT$9index_mut17h3118207792df8dc3E', symObjAddr: 0xBC, symBinAddr: 0x22A0, symSize: 0x54 }
  - { offset: 0x182F7, size: 0x8, addend: 0x0, symName: '__ZN110_$LT$core..ops..range..RangeFrom$LT$usize$GT$$u20$as$u20$core..slice..index..SliceIndex$LT$$u5b$T$u5d$$GT$$GT$5index17h221667df63bf5dceE', symObjAddr: 0x110, symBinAddr: 0x22F4, symSize: 0x70 }
  - { offset: 0x18B4A, size: 0x8, addend: 0x0, symName: '__ZN102_$LT$core..iter..adapters..zip..Zip$LT$A$C$B$GT$$u20$as$u20$core..iter..traits..iterator..Iterator$GT$4next17h1288c6da84596401E', symObjAddr: 0x0, symBinAddr: 0x2364, symSize: 0x24 }
  - { offset: 0x19331, size: 0x8, addend: 0x0, symName: '__ZN102_$LT$core..iter..adapters..zip..Zip$LT$A$C$B$GT$$u20$as$u20$core..iter..traits..iterator..Iterator$GT$4next17h1288c6da84596401E', symObjAddr: 0x0, symBinAddr: 0x2364, symSize: 0x24 }
  - { offset: 0x19375, size: 0x8, addend: 0x0, symName: '__ZN111_$LT$core..iter..adapters..zip..Zip$LT$A$C$B$GT$$u20$as$u20$core..iter..adapters..zip..ZipImpl$LT$A$C$B$GT$$GT$3new17h899b5ac9e7475635E', symObjAddr: 0x24, symBinAddr: 0x2388, symSize: 0x3C }
  - { offset: 0x193C1, size: 0x8, addend: 0x0, symName: '__ZN111_$LT$core..iter..adapters..zip..Zip$LT$A$C$B$GT$$u20$as$u20$core..iter..adapters..zip..ZipImpl$LT$A$C$B$GT$$GT$4next17hfaf58d50701be10fE', symObjAddr: 0x60, symBinAddr: 0x23C4, symSize: 0xE0 }
  - { offset: 0x195EE, size: 0x8, addend: 0x0, symName: '__ZN63_$LT$I$u20$as$u20$core..iter..traits..collect..IntoIterator$GT$9into_iter17h18f1e3dd42d53235E', symObjAddr: 0x140, symBinAddr: 0x24A4, symSize: 0x30 }
  - { offset: 0x19626, size: 0x8, addend: 0x0, symName: '__ZN63_$LT$I$u20$as$u20$core..iter..traits..collect..IntoIterator$GT$9into_iter17he1562981835e5b08E', symObjAddr: 0x170, symBinAddr: 0x24D4, symSize: 0x30 }
  - { offset: 0x1AB4F, size: 0x8, addend: 0x0, symName: '__ZN5alloc3vec12Vec$LT$T$GT$3new17h4cc6de31985c157cE', symObjAddr: 0x0, symBinAddr: 0x2504, symSize: 0x14 }
  - { offset: 0x1B114, size: 0x8, addend: 0x0, symName: '__ZN94_$LT$$RF$alloc..vec..Vec$LT$T$C$A$GT$$u20$as$u20$core..iter..traits..collect..IntoIterator$GT$9into_iter17h277c4b27d43a048bE', symObjAddr: 0x250, symBinAddr: 0x2754, symSize: 0x68 }
  - { offset: 0x1B682, size: 0x8, addend: 0x0, symName: '__ZN5alloc3vec12Vec$LT$T$GT$3new17h4cc6de31985c157cE', symObjAddr: 0x0, symBinAddr: 0x2504, symSize: 0x14 }
  - { offset: 0x1B6C6, size: 0x8, addend: 0x0, symName: '__ZN5alloc3vec12Vec$LT$T$GT$3new17hf7d0284118e8bea5E', symObjAddr: 0x14, symBinAddr: 0x2518, symSize: 0x14 }
  - { offset: 0x1B6F0, size: 0x8, addend: 0x0, symName: '__ZN5alloc3vec16Vec$LT$T$C$A$GT$4push17h543ebe8c26e286c3E', symObjAddr: 0x28, symBinAddr: 0x252C, symSize: 0x24 }
  - { offset: 0x1B742, size: 0x8, addend: 0x0, symName: '__ZN5alloc3vec16Vec$LT$T$C$A$GT$4push17hc7f60ba7c2aa7ec9E', symObjAddr: 0x4C, symBinAddr: 0x2550, symSize: 0x30 }
  - { offset: 0x1B8A7, size: 0x8, addend: 0x0, symName: '__ZN5alloc3vec16Vec$LT$T$C$A$GT$8push_mut17h8baa44417f9fa3daE', symObjAddr: 0x7C, symBinAddr: 0x2580, symSize: 0xF4 }
  - { offset: 0x1BB40, size: 0x8, addend: 0x0, symName: '__ZN5alloc3vec16Vec$LT$T$C$A$GT$8push_mut17hd87864fec2cb4732E', symObjAddr: 0x170, symBinAddr: 0x2674, symSize: 0xE0 }
  - { offset: 0x1BE78, size: 0x8, addend: 0x0, symName: '__ZN93_$LT$crossterm..style..PrintStyledContent$LT$D$GT$$u20$as$u20$crossterm..command..Command$GT$10write_ansi17h08443d59b5edc6a8E', symObjAddr: 0x0, symBinAddr: 0x27BC, symSize: 0x344 }
  - { offset: 0x1BE94, size: 0x8, addend: 0x0, symName: '__ZN93_$LT$crossterm..style..PrintStyledContent$LT$D$GT$$u20$as$u20$crossterm..command..Command$GT$10write_ansi17h08443d59b5edc6a8E', symObjAddr: 0x0, symBinAddr: 0x27BC, symSize: 0x344 }
  - { offset: 0x1C0AD, size: 0x8, addend: 0x0, symName: '__ZN93_$LT$crossterm..style..PrintStyledContent$LT$D$GT$$u20$as$u20$crossterm..command..Command$GT$10write_ansi17h502133077499af3cE', symObjAddr: 0x344, symBinAddr: 0x2B00, symSize: 0x344 }
  - { offset: 0x1C2CB, size: 0x8, addend: 0x0, symName: '__ZN93_$LT$crossterm..style..PrintStyledContent$LT$D$GT$$u20$as$u20$crossterm..command..Command$GT$10write_ansi28_$u7b$$u7b$closure$u7d$$u7d$17h2174a4827e65e3d3E', symObjAddr: 0x688, symBinAddr: 0x2E44, symSize: 0xC }
  - { offset: 0x1C30E, size: 0x8, addend: 0x0, symName: '__ZN93_$LT$crossterm..style..PrintStyledContent$LT$D$GT$$u20$as$u20$crossterm..command..Command$GT$10write_ansi28_$u7b$$u7b$closure$u7d$$u7d$17h250ef3df6cd94e76E', symObjAddr: 0x694, symBinAddr: 0x2E50, symSize: 0xC }
  - { offset: 0x1C351, size: 0x8, addend: 0x0, symName: '__ZN93_$LT$crossterm..style..PrintStyledContent$LT$D$GT$$u20$as$u20$crossterm..command..Command$GT$10write_ansi28_$u7b$$u7b$closure$u7d$$u7d$17h4c3a2b74eed0838cE', symObjAddr: 0x6A0, symBinAddr: 0x2E5C, symSize: 0xC }
  - { offset: 0x1C394, size: 0x8, addend: 0x0, symName: '__ZN93_$LT$crossterm..style..PrintStyledContent$LT$D$GT$$u20$as$u20$crossterm..command..Command$GT$10write_ansi28_$u7b$$u7b$closure$u7d$$u7d$17h52585a25a33eab40E', symObjAddr: 0x6AC, symBinAddr: 0x2E68, symSize: 0xC }
  - { offset: 0x1C3D7, size: 0x8, addend: 0x0, symName: '__ZN93_$LT$crossterm..style..PrintStyledContent$LT$D$GT$$u20$as$u20$crossterm..command..Command$GT$10write_ansi28_$u7b$$u7b$closure$u7d$$u7d$17h580d3f5d6279733dE', symObjAddr: 0x6B8, symBinAddr: 0x2E74, symSize: 0xC }
  - { offset: 0x1C41A, size: 0x8, addend: 0x0, symName: '__ZN93_$LT$crossterm..style..PrintStyledContent$LT$D$GT$$u20$as$u20$crossterm..command..Command$GT$10write_ansi28_$u7b$$u7b$closure$u7d$$u7d$17h5ef143a366510f67E', symObjAddr: 0x6C4, symBinAddr: 0x2E80, symSize: 0xC }
  - { offset: 0x1C45D, size: 0x8, addend: 0x0, symName: '__ZN93_$LT$crossterm..style..PrintStyledContent$LT$D$GT$$u20$as$u20$crossterm..command..Command$GT$10write_ansi28_$u7b$$u7b$closure$u7d$$u7d$17h678ca14cdfd110feE', symObjAddr: 0x6D0, symBinAddr: 0x2E8C, symSize: 0xC }
  - { offset: 0x1C4A0, size: 0x8, addend: 0x0, symName: '__ZN93_$LT$crossterm..style..PrintStyledContent$LT$D$GT$$u20$as$u20$crossterm..command..Command$GT$10write_ansi28_$u7b$$u7b$closure$u7d$$u7d$17h6879c9a543222cd8E', symObjAddr: 0x6DC, symBinAddr: 0x2E98, symSize: 0xC }
  - { offset: 0x1C4E3, size: 0x8, addend: 0x0, symName: '__ZN93_$LT$crossterm..style..PrintStyledContent$LT$D$GT$$u20$as$u20$crossterm..command..Command$GT$10write_ansi28_$u7b$$u7b$closure$u7d$$u7d$17h92003851e54cc9d7E', symObjAddr: 0x6E8, symBinAddr: 0x2EA4, symSize: 0xC }
  - { offset: 0x1C526, size: 0x8, addend: 0x0, symName: '__ZN93_$LT$crossterm..style..PrintStyledContent$LT$D$GT$$u20$as$u20$crossterm..command..Command$GT$10write_ansi28_$u7b$$u7b$closure$u7d$$u7d$17ha9ccf9cfbfb500cdE', symObjAddr: 0x6F4, symBinAddr: 0x2EB0, symSize: 0xC }
  - { offset: 0x1C569, size: 0x8, addend: 0x0, symName: '__ZN93_$LT$crossterm..style..PrintStyledContent$LT$D$GT$$u20$as$u20$crossterm..command..Command$GT$10write_ansi28_$u7b$$u7b$closure$u7d$$u7d$17hb9882040f73431aeE', symObjAddr: 0x700, symBinAddr: 0x2EBC, symSize: 0xC }
  - { offset: 0x1C5AC, size: 0x8, addend: 0x0, symName: '__ZN93_$LT$crossterm..style..PrintStyledContent$LT$D$GT$$u20$as$u20$crossterm..command..Command$GT$10write_ansi28_$u7b$$u7b$closure$u7d$$u7d$17hc2ae8538d7d69455E', symObjAddr: 0x70C, symBinAddr: 0x2EC8, symSize: 0xC }
  - { offset: 0x1C5EF, size: 0x8, addend: 0x0, symName: '__ZN93_$LT$crossterm..style..PrintStyledContent$LT$D$GT$$u20$as$u20$crossterm..command..Command$GT$10write_ansi28_$u7b$$u7b$closure$u7d$$u7d$17hd0da4ba8b0e2f133E', symObjAddr: 0x718, symBinAddr: 0x2ED4, symSize: 0xC }
  - { offset: 0x1C632, size: 0x8, addend: 0x0, symName: '__ZN93_$LT$crossterm..style..PrintStyledContent$LT$D$GT$$u20$as$u20$crossterm..command..Command$GT$10write_ansi28_$u7b$$u7b$closure$u7d$$u7d$17hf6bd75adb6c2b6a4E', symObjAddr: 0x724, symBinAddr: 0x2EE0, symSize: 0xC }
  - { offset: 0x1C6D9, size: 0x8, addend: 0x0, symName: __ZN9crossterm5style5style17h7cf240484c55eaa9E, symObjAddr: 0x730, symBinAddr: 0x2EEC, symSize: 0x98 }
  - { offset: 0x1C70F, size: 0x8, addend: 0x0, symName: __ZN9crossterm5style5style17hcb9133eb10d04d02E, symObjAddr: 0x7C8, symBinAddr: 0x2F84, symSize: 0x88 }
  - { offset: 0x1D038, size: 0x8, addend: 0x0, symName: '__ZN110_$LT$core..iter..adapters..enumerate..Enumerate$LT$I$GT$$u20$as$u20$core..iter..traits..iterator..Iterator$GT$4next17hd2743cea345e7ff6E', symObjAddr: 0x0, symBinAddr: 0x300C, symSize: 0xE0 }
  - { offset: 0x1E45B, size: 0x8, addend: 0x0, symName: '__ZN110_$LT$core..iter..adapters..enumerate..Enumerate$LT$I$GT$$u20$as$u20$core..iter..traits..iterator..Iterator$GT$4next17hd2743cea345e7ff6E', symObjAddr: 0x0, symBinAddr: 0x300C, symSize: 0xE0 }
  - { offset: 0x1E5AD, size: 0x8, addend: 0x0, symName: '__ZN63_$LT$I$u20$as$u20$core..iter..traits..collect..IntoIterator$GT$9into_iter17h32ec7eac9f64b356E', symObjAddr: 0xE0, symBinAddr: 0x30EC, symSize: 0x30 }
  - { offset: 0x1ECAA, size: 0x8, addend: 0x0, symName: '__ZN75_$LT$usize$u20$as$u20$core..slice..index..SliceIndex$LT$$u5b$T$u5d$$GT$$GT$13get_unchecked18precondition_check17h47733286d0a97fdfE', symObjAddr: 0x0, symBinAddr: 0x311C, symSize: 0x60 }
  - { offset: 0x1ECD0, size: 0x8, addend: 0x0, symName: '__ZN75_$LT$usize$u20$as$u20$core..slice..index..SliceIndex$LT$$u5b$T$u5d$$GT$$GT$13get_unchecked18precondition_check17h47733286d0a97fdfE', symObjAddr: 0x0, symBinAddr: 0x311C, symSize: 0x60 }
  - { offset: 0x1ED7B, size: 0x8, addend: 0x0, symName: '__ZN150_$LT$crossterm..style..styled_content..StyledContent$LT$D$GT$$u20$as$u20$core..convert..AsMut$LT$crossterm..style..content_style..ContentStyle$GT$$GT$6as_mut17h048729f4a18c5f47E', symObjAddr: 0x0, symBinAddr: 0x317C, symSize: 0x14 }
  - { offset: 0x1ED9C, size: 0x8, addend: 0x0, symName: '__ZN150_$LT$crossterm..style..styled_content..StyledContent$LT$D$GT$$u20$as$u20$core..convert..AsMut$LT$crossterm..style..content_style..ContentStyle$GT$$GT$6as_mut17h048729f4a18c5f47E', symObjAddr: 0x0, symBinAddr: 0x317C, symSize: 0x14 }
  - { offset: 0x1EDD1, size: 0x8, addend: 0x0, symName: '__ZN150_$LT$crossterm..style..styled_content..StyledContent$LT$D$GT$$u20$as$u20$core..convert..AsMut$LT$crossterm..style..content_style..ContentStyle$GT$$GT$6as_mut17hef25be5789b46058E', symObjAddr: 0x14, symBinAddr: 0x3190, symSize: 0x14 }
  - { offset: 0x1EE0C, size: 0x8, addend: 0x0, symName: '__ZN95_$LT$crossterm..style..styled_content..StyledContent$LT$D$GT$$u20$as$u20$core..fmt..Display$GT$3fmt17h524078249a417c3fE', symObjAddr: 0x28, symBinAddr: 0x31A4, symSize: 0x5C }
  - { offset: 0x1EE4F, size: 0x8, addend: 0x0, symName: '__ZN95_$LT$crossterm..style..styled_content..StyledContent$LT$D$GT$$u20$as$u20$core..fmt..Display$GT$3fmt17hf9b49ae603cc69b0E', symObjAddr: 0x84, symBinAddr: 0x3200, symSize: 0x60 }
  - { offset: 0x1F46A, size: 0x8, addend: 0x0, symName: '__ZN9crossterm5style14styled_content22StyledContent$LT$D$GT$3new17h550587b901eecc35E', symObjAddr: 0xE4, symBinAddr: 0x3260, symSize: 0x28 }
  - { offset: 0x1F587, size: 0x8, addend: 0x0, symName: '__ZN9crossterm5style14styled_content22StyledContent$LT$D$GT$3new17h5d98abbb61ef42ceE', symObjAddr: 0x10C, symBinAddr: 0x3288, symSize: 0x20 }
  - { offset: 0x1F5E7, size: 0x8, addend: 0x0, symName: '__ZN9crossterm5style14styled_content22StyledContent$LT$D$GT$5style17h0b196acbfcef094dE', symObjAddr: 0x12C, symBinAddr: 0x32A8, symSize: 0x14 }
  - { offset: 0x1F62C, size: 0x8, addend: 0x0, symName: '__ZN9crossterm5style14styled_content22StyledContent$LT$D$GT$5style17hd684664b512a57ddE', symObjAddr: 0x140, symBinAddr: 0x32BC, symSize: 0x14 }
  - { offset: 0x1F664, size: 0x8, addend: 0x0, symName: '__ZN9crossterm5style14styled_content22StyledContent$LT$D$GT$7content17hb5f4b2402994391dE', symObjAddr: 0x154, symBinAddr: 0x32D0, symSize: 0x14 }
  - { offset: 0x1F69C, size: 0x8, addend: 0x0, symName: '__ZN9crossterm5style14styled_content22StyledContent$LT$D$GT$7content17hefcd8dbc1d558cabE', symObjAddr: 0x168, symBinAddr: 0x32E4, symSize: 0x14 }
  - { offset: 0x1F790, size: 0x8, addend: 0x0, symName: '__ZN4core3str21_$LT$impl$u20$str$GT$3len17heacc38e378e48894E', symObjAddr: 0x0, symBinAddr: 0x32F8, symSize: 0x1C }
  - { offset: 0x1F7AC, size: 0x8, addend: 0x0, symName: '__ZN4core3str21_$LT$impl$u20$str$GT$3len17heacc38e378e48894E', symObjAddr: 0x0, symBinAddr: 0x32F8, symSize: 0x1C }
  - { offset: 0x1F7D8, size: 0x8, addend: 0x0, symName: '__ZN4core3str21_$LT$impl$u20$str$GT$5chars17h88e936616de10718E', symObjAddr: 0x1C, symBinAddr: 0x3314, symSize: 0x20 }
  - { offset: 0x1F9F6, size: 0x8, addend: 0x0, symName: '__ZN15vibe_loadbar_rs168_$LT$impl$u20$pyo3..impl_..pyclass..PyMethods$LT$vibe_loadbar_rs..LoadBar$GT$$u20$for$u20$pyo3..impl_..pyclass..PyClassImplCollector$LT$vibe_loadbar_rs..LoadBar$GT$$GT$10py_methods17h21dd28080290456eE', symObjAddr: 0x0, symBinAddr: 0x3334, symSize: 0x14 }
  - { offset: 0x20F2D, size: 0x8, addend: 0x0, symName: '__ZN15vibe_loadbar_rs168_$LT$impl$u20$pyo3..impl_..pyclass..PyMethods$LT$vibe_loadbar_rs..LoadBar$GT$$u20$for$u20$pyo3..impl_..pyclass..PyClassImplCollector$LT$vibe_loadbar_rs..LoadBar$GT$$GT$10py_methods17h21dd28080290456eE', symObjAddr: 0x0, symBinAddr: 0x3334, symSize: 0x14 }
  - { offset: 0x20F78, size: 0x8, addend: 0x0, symName: '__ZN15vibe_loadbar_rs168_$LT$impl$u20$pyo3..impl_..pyclass..PyMethods$LT$vibe_loadbar_rs..LoadBar$GT$$u20$for$u20$pyo3..impl_..pyclass..PyClassImplCollector$LT$vibe_loadbar_rs..LoadBar$GT$$GT$10py_methods5ITEMS10trampoline182_$LT$impl$u20$pyo3..impl_..pyclass..PyClassNewTextSignature$LT$vibe_loadbar_rs..LoadBar$GT$$u20$for$u20$pyo3..impl_..pyclass..PyClassImplCollector$LT$vibe_loadbar_rs..LoadBar$GT$$GT$18new_text_signature17h4d9745fb065a64feE', symObjAddr: 0x14, symBinAddr: 0x3348, symSize: 0x1C }
  - { offset: 0x21FDA, size: 0x8, addend: 0x0, symName: '__ZN4pyo35impl_7pyclass16lazy_type_object23LazyTypeObject$LT$T$GT$11get_or_init17h6a368136686f2e90E', symObjAddr: 0x0, symBinAddr: 0x3364, symSize: 0x40 }
  - { offset: 0x23979, size: 0x8, addend: 0x0, symName: '__ZN4pyo35impl_7pyclass16lazy_type_object23LazyTypeObject$LT$T$GT$11get_or_init28_$u7b$$u7b$closure$u7d$$u7d$17h5d655f4ffb56d0aeE', symObjAddr: 0x40, symBinAddr: 0x33A4, symSize: 0xA8 }
  - { offset: 0x24A34, size: 0x8, addend: 0x0, symName: '__ZN4pyo35impl_7pyclass16lazy_type_object23LazyTypeObject$LT$T$GT$11get_or_init17h6a368136686f2e90E', symObjAddr: 0x0, symBinAddr: 0x3364, symSize: 0x40 }
  - { offset: 0x24A78, size: 0x8, addend: 0x0, symName: '__ZN4pyo35impl_7pyclass16lazy_type_object23LazyTypeObject$LT$T$GT$15get_or_try_init17h1b1cd44b56b996f7E', symObjAddr: 0xE8, symBinAddr: 0x344C, symSize: 0x58 }
  - { offset: 0x24BC5, size: 0x8, addend: 0x0, symName: '__ZN103_$LT$pyo3..instance..Bound$LT$pyo3..types..any..PyAny$GT$$u20$as$u20$pyo3..types..any..PyAnyMethods$GT$18downcast_unchecked17hded37b18e71d5097E', symObjAddr: 0x0, symBinAddr: 0x34A4, symSize: 0x6C }
  - { offset: 0x253E1, size: 0x8, addend: 0x0, symName: '__ZN4core5slice29_$LT$impl$u20$$u5b$T$u5d$$GT$4iter17hf546c20ad72678abE', symObjAddr: 0x35C, symBinAddr: 0x3800, symSize: 0x28 }
  - { offset: 0x26588, size: 0x8, addend: 0x0, symName: '__ZN103_$LT$pyo3..instance..Bound$LT$pyo3..types..any..PyAny$GT$$u20$as$u20$pyo3..types..any..PyAnyMethods$GT$18downcast_unchecked17hded37b18e71d5097E', symObjAddr: 0x0, symBinAddr: 0x34A4, symSize: 0x6C }
  - { offset: 0x265BF, size: 0x8, addend: 0x0, symName: '__ZN103_$LT$pyo3..instance..Bound$LT$pyo3..types..any..PyAny$GT$$u20$as$u20$pyo3..types..any..PyAnyMethods$GT$23downcast_into_unchecked17h41b576adf15731f9E', symObjAddr: 0x6C, symBinAddr: 0x3510, symSize: 0x14 }
  - { offset: 0x265F6, size: 0x8, addend: 0x0, symName: '__ZN103_$LT$pyo3..instance..Bound$LT$pyo3..types..any..PyAny$GT$$u20$as$u20$pyo3..types..any..PyAnyMethods$GT$7extract17h3e493d26b1dd76e3E', symObjAddr: 0x80, symBinAddr: 0x3524, symSize: 0x30 }
  - { offset: 0x2662D, size: 0x8, addend: 0x0, symName: '__ZN103_$LT$pyo3..instance..Bound$LT$pyo3..types..any..PyAny$GT$$u20$as$u20$pyo3..types..any..PyAnyMethods$GT$7extract17habe7b37c8f04f733E', symObjAddr: 0xB0, symBinAddr: 0x3554, symSize: 0x30 }
  - { offset: 0x26664, size: 0x8, addend: 0x0, symName: '__ZN103_$LT$pyo3..instance..Bound$LT$pyo3..types..any..PyAny$GT$$u20$as$u20$pyo3..types..any..PyAnyMethods$GT$8downcast17h734b0f45a08da91fE', symObjAddr: 0xE0, symBinAddr: 0x3584, symSize: 0x84 }
  - { offset: 0x266BC, size: 0x8, addend: 0x0, symName: '__ZN115_$LT$pyo3..instance..Bound$LT$pyo3..types..module..PyModule$GT$$u20$as$u20$pyo3..types..module..PyModuleMethods$GT$3add17hda05feb6b4647cf0E', symObjAddr: 0x164, symBinAddr: 0x3608, symSize: 0x140 }
  - { offset: 0x26730, size: 0x8, addend: 0x0, symName: '__ZN115_$LT$pyo3..instance..Bound$LT$pyo3..types..module..PyModule$GT$$u20$as$u20$pyo3..types..module..PyModuleMethods$GT$9add_class17he7d1968e68253bdeE', symObjAddr: 0x2A4, symBinAddr: 0x3748, symSize: 0xB8 }
  - { offset: 0x2681C, size: 0x8, addend: 0x0, symName: '__ZN4pyo35impl_9pymethods133_$LT$impl$u20$core..convert..From$LT$pyo3..impl_..pymethods..BoundRef$LT$T$GT$$GT$$u20$for$u20$$RF$pyo3..instance..Bound$LT$T$GT$$GT$4from17h2523b61d2cac579cE', symObjAddr: 0x384, symBinAddr: 0x3828, symSize: 0x14 }
  - { offset: 0x26A68, size: 0x8, addend: 0x0, symName: '__ZN4pyo38instance11Py$LT$T$GT$24from_borrowed_ptr_or_opt28_$u7b$$u7b$closure$u7d$$u7d$17h1865a55083c32784E', symObjAddr: 0x4A8, symBinAddr: 0x394C, symSize: 0xFC }
  - { offset: 0x26CC6, size: 0x8, addend: 0x0, symName: '__ZN69_$LT$pyo3..instance..Bound$LT$T$GT$$u20$as$u20$core..clone..Clone$GT$5clone17h1f665f29d975f248E', symObjAddr: 0x700, symBinAddr: 0x3BA4, symSize: 0x34 }
  - { offset: 0x27ACB, size: 0x8, addend: 0x0, symName: '__ZN4pyo38instance11Py$LT$T$GT$10into_bound17hd4be6d447666864aE', symObjAddr: 0x398, symBinAddr: 0x383C, symSize: 0x1C }
  - { offset: 0x27B2C, size: 0x8, addend: 0x0, symName: '__ZN4pyo38instance11Py$LT$T$GT$16get_class_object17hfd23f47d620c76ebE', symObjAddr: 0x3B4, symBinAddr: 0x3858, symSize: 0x78 }
  - { offset: 0x27B6E, size: 0x8, addend: 0x0, symName: '__ZN4pyo38instance11Py$LT$T$GT$17from_borrowed_ptr17h7c0549c7f35dfcf4E', symObjAddr: 0x42C, symBinAddr: 0x38D0, symSize: 0x48 }
  - { offset: 0x27BB5, size: 0x8, addend: 0x0, symName: '__ZN4pyo38instance11Py$LT$T$GT$24from_borrowed_ptr_or_opt17hd4f68e0c12e25c6dE', symObjAddr: 0x474, symBinAddr: 0x3918, symSize: 0x34 }
  - { offset: 0x27BFC, size: 0x8, addend: 0x0, symName: '__ZN4pyo38instance11Py$LT$T$GT$6as_ptr17h8a0729f12a4fc0deE', symObjAddr: 0x5A4, symBinAddr: 0x3A48, symSize: 0x1C }
  - { offset: 0x27C28, size: 0x8, addend: 0x0, symName: '__ZN4pyo38instance11Py$LT$T$GT$8into_ptr17hf8b9cf4ec339f40eE', symObjAddr: 0x5C0, symBinAddr: 0x3A64, symSize: 0x30 }
  - { offset: 0x27C54, size: 0x8, addend: 0x0, symName: '__ZN4pyo38instance11Py$LT$T$GT$9clone_ref17he59fd5a940e99798E', symObjAddr: 0x5F0, symBinAddr: 0x3A94, symSize: 0x2C }
  - { offset: 0x27CAF, size: 0x8, addend: 0x0, symName: '__ZN4pyo38instance14Bound$LT$T$GT$14try_borrow_mut17hbbc016852c4e5d01E', symObjAddr: 0x61C, symBinAddr: 0x3AC0, symSize: 0x24 }
  - { offset: 0x27CDB, size: 0x8, addend: 0x0, symName: '__ZN4pyo38instance14Bound$LT$T$GT$16get_class_object17h04dff0c8ea481eeaE', symObjAddr: 0x640, symBinAddr: 0x3AE4, symSize: 0x2C }
  - { offset: 0x27D07, size: 0x8, addend: 0x0, symName: '__ZN4pyo38instance14Bound$LT$T$GT$6as_ptr17h7735477c55092549E', symObjAddr: 0x66C, symBinAddr: 0x3B10, symSize: 0x2C }
  - { offset: 0x27D33, size: 0x8, addend: 0x0, symName: '__ZN4pyo38instance14Bound$LT$T$GT$8into_ptr17hd2aa8fd02ac96e21E', symObjAddr: 0x698, symBinAddr: 0x3B3C, symSize: 0x40 }
  - { offset: 0x27D79, size: 0x8, addend: 0x0, symName: '__ZN4pyo38instance39Borrowed$LT$pyo3..types..any..PyAny$GT$18downcast_unchecked17hbbf44a70b09924a4E', symObjAddr: 0x6D8, symBinAddr: 0x3B7C, symSize: 0x14 }
  - { offset: 0x27DB2, size: 0x8, addend: 0x0, symName: '__ZN4pyo38instance39Borrowed$LT$pyo3..types..any..PyAny$GT$18downcast_unchecked17he7b0520b38ef0421E', symObjAddr: 0x6EC, symBinAddr: 0x3B90, symSize: 0x14 }
  - { offset: 0x27EE0, size: 0x8, addend: 0x0, symName: __ZN4core5slice20copy_from_slice_impl17h8e117086d5ae9456E, symObjAddr: 0x0, symBinAddr: 0x3BD8, symSize: 0xAC }
  - { offset: 0x287C7, size: 0x8, addend: 0x0, symName: '__ZN4core5slice29_$LT$impl$u20$$u5b$T$u5d$$GT$16binary_search_by17h65828476d4b6c923E', symObjAddr: 0xAC, symBinAddr: 0x3C84, symSize: 0x2FC }
  - { offset: 0x28BCE, size: 0x8, addend: 0x0, symName: '__ZN4core5slice29_$LT$impl$u20$$u5b$T$u5d$$GT$16binary_search_by17ha259e63a11c248bfE', symObjAddr: 0x3A8, symBinAddr: 0x3F80, symSize: 0x2FC }
  - { offset: 0x28F9A, size: 0x8, addend: 0x0, symName: __ZN4core5slice20copy_from_slice_impl17h8e117086d5ae9456E, symObjAddr: 0x0, symBinAddr: 0x3BD8, symSize: 0xAC }
  - { offset: 0x2A67F, size: 0x8, addend: 0x0, symName: '__ZN100_$LT$pyo3..pycell..impl_..MutableClass$u20$as$u20$pyo3..pycell..impl_..GetBorrowChecker$LT$T$GT$$GT$14borrow_checker17he179a4a06a5c28a7E', symObjAddr: 0x0, symBinAddr: 0x427C, symSize: 0x14 }
  - { offset: 0x2B98C, size: 0x8, addend: 0x0, symName: '__ZN100_$LT$pyo3..pycell..impl_..MutableClass$u20$as$u20$pyo3..pycell..impl_..GetBorrowChecker$LT$T$GT$$GT$14borrow_checker17he179a4a06a5c28a7E', symObjAddr: 0x0, symBinAddr: 0x427C, symSize: 0x14 }
  - { offset: 0x2B9C7, size: 0x8, addend: 0x0, symName: '__ZN113_$LT$pyo3..pycell..impl_..PyClassObject$LT$T$GT$$u20$as$u20$pyo3..pycell..impl_..PyClassObjectLayout$LT$T$GT$$GT$10tp_dealloc17h27d0d38f08c8af60E', symObjAddr: 0x14, symBinAddr: 0x4290, symSize: 0xB4 }
  - { offset: 0x2BA2B, size: 0x8, addend: 0x0, symName: '__ZN113_$LT$pyo3..pycell..impl_..PyClassObject$LT$T$GT$$u20$as$u20$pyo3..pycell..impl_..PyClassObjectLayout$LT$T$GT$$GT$17ensure_threadsafe17h2962339ac99b85acE', symObjAddr: 0xC8, symBinAddr: 0x4344, symSize: 0x30 }
  - { offset: 0x2BA64, size: 0x8, addend: 0x0, symName: '__ZN117_$LT$pyo3..pycell..impl_..PyClassObjectBase$LT$U$GT$$u20$as$u20$pyo3..pycell..impl_..PyClassObjectLayout$LT$T$GT$$GT$10tp_dealloc17h77080c617d5d23e7E', symObjAddr: 0xF8, symBinAddr: 0x4374, symSize: 0x108 }
  - { offset: 0x2BAE9, size: 0x8, addend: 0x0, symName: '__ZN117_$LT$pyo3..pycell..impl_..PyClassObjectBase$LT$U$GT$$u20$as$u20$pyo3..pycell..impl_..PyClassObjectLayout$LT$T$GT$$GT$17ensure_threadsafe17hfcf52cdd2c4267e4E', symObjAddr: 0x200, symBinAddr: 0x447C, symSize: 0x10 }
  - { offset: 0x2C71B, size: 0x8, addend: 0x0, symName: '__ZN4pyo36pycell5impl_22PyClassObject$LT$T$GT$14borrow_checker17hdf3550d0e6ab560eE', symObjAddr: 0x210, symBinAddr: 0x448C, symSize: 0x24 }
  - { offset: 0x2C754, size: 0x8, addend: 0x0, symName: '__ZN4pyo36pycell5impl_22PyClassObject$LT$T$GT$7get_ptr17hb94032dc719d390bE', symObjAddr: 0x234, symBinAddr: 0x44B0, symSize: 0x24 }
  - { offset: 0x2C7F0, size: 0x8, addend: 0x0, symName: '__ZN100_$LT$core..iter..adapters..take..Take$LT$I$GT$$u20$as$u20$core..iter..traits..iterator..Iterator$GT$4next17h9f52e32da970d0b7E', symObjAddr: 0x0, symBinAddr: 0x44D4, symSize: 0x58 }
  - { offset: 0x2CFD7, size: 0x8, addend: 0x0, symName: '__ZN100_$LT$core..iter..adapters..take..Take$LT$I$GT$$u20$as$u20$core..iter..traits..iterator..Iterator$GT$4next17h9f52e32da970d0b7E', symObjAddr: 0x0, symBinAddr: 0x44D4, symSize: 0x58 }
  - { offset: 0x2D096, size: 0x8, addend: 0x0, symName: __ZN4core4iter6traits8iterator8Iterator9enumerate17h36b8d615c0944ab7E, symObjAddr: 0x58, symBinAddr: 0x452C, symSize: 0x18 }
  - { offset: 0x2D0C7, size: 0x8, addend: 0x0, symName: __ZN4core4iter6traits8iterator8Iterator9enumerate17h36b8d615c0944ab7E, symObjAddr: 0x58, symBinAddr: 0x452C, symSize: 0x18 }
  - { offset: 0x2E227, size: 0x8, addend: 0x0, symName: __ZN4core5slice3raw14from_raw_parts18precondition_check17h9cb2224909a1779bE, symObjAddr: 0x0, symBinAddr: 0x4544, symSize: 0x10C }
  - { offset: 0x2E30D, size: 0x8, addend: 0x0, symName: __ZN4core5slice3raw14from_raw_parts18precondition_check17h9cb2224909a1779bE, symObjAddr: 0x0, symBinAddr: 0x4544, symSize: 0x10C }
  - { offset: 0x2E4A2, size: 0x8, addend: 0x0, symName: __ZN4pyo36marker6Python19assume_gil_acquired17h23ef891d10cbea70E, symObjAddr: 0x0, symBinAddr: 0x4650, symSize: 0x4 }
  - { offset: 0x2E69C, size: 0x8, addend: 0x0, symName: __ZN4pyo36marker6Python19assume_gil_acquired17h23ef891d10cbea70E, symObjAddr: 0x0, symBinAddr: 0x4650, symSize: 0x4 }
  - { offset: 0x2E6CD, size: 0x8, addend: 0x0, symName: '__ZN4core3num21_$LT$impl$u20$u64$GT$14saturating_mul17h395f69ce4f432de7E', symObjAddr: 0x0, symBinAddr: 0x4654, symSize: 0x64 }
  - { offset: 0x2E759, size: 0x8, addend: 0x0, symName: '__ZN4core3num21_$LT$impl$u20$u64$GT$14saturating_mul17h395f69ce4f432de7E', symObjAddr: 0x0, symBinAddr: 0x4654, symSize: 0x64 }
  - { offset: 0x2E839, size: 0x8, addend: 0x0, symName: '__ZN4core3num23_$LT$impl$u20$usize$GT$19wrapping_add_signed17he9916ff717f5807bE', symObjAddr: 0x64, symBinAddr: 0x46B8, symSize: 0x18 }
  - { offset: 0x2E972, size: 0x8, addend: 0x0, symName: '__ZN4core3mem13manually_drop21ManuallyDrop$LT$T$GT$4drop17h86b1d286fcec40d3E', symObjAddr: 0x0, symBinAddr: 0x46D0, symSize: 0x20 }
  - { offset: 0x2F0AF, size: 0x8, addend: 0x0, symName: '__ZN4core3mem13manually_drop21ManuallyDrop$LT$T$GT$4drop17h86b1d286fcec40d3E', symObjAddr: 0x0, symBinAddr: 0x46D0, symSize: 0x20 }
  - { offset: 0x2F0F9, size: 0x8, addend: 0x0, symName: '__ZN4core4cell13Cell$LT$T$GT$3new17h0fd73981277bc3e9E', symObjAddr: 0x0, symBinAddr: 0x46F0, symSize: 0x10 }
  - { offset: 0x2F19B, size: 0x8, addend: 0x0, symName: '__ZN4core4cell13Cell$LT$T$GT$3new17h0fd73981277bc3e9E', symObjAddr: 0x0, symBinAddr: 0x46F0, symSize: 0x10 }
  - { offset: 0x2F1E5, size: 0x8, addend: 0x0, symName: '__ZN62_$LT$$RF$str$u20$as$u20$crossterm..style..stylize..Stylize$GT$7stylize17h7ae6c4e78d39f219E', symObjAddr: 0x0, symBinAddr: 0x4700, symSize: 0x28 }
  - { offset: 0x2F206, size: 0x8, addend: 0x0, symName: '__ZN62_$LT$$RF$str$u20$as$u20$crossterm..style..stylize..Stylize$GT$7stylize17h7ae6c4e78d39f219E', symObjAddr: 0x0, symBinAddr: 0x4700, symSize: 0x28 }
  - { offset: 0x2F57D, size: 0x8, addend: 0x0, symName: __ZN4core4iter6traits8iterator8Iterator6copied17h68e6b78af7527210E, symObjAddr: 0x0, symBinAddr: 0x4728, symSize: 0x1C }
  - { offset: 0x2FD64, size: 0x8, addend: 0x0, symName: __ZN4core4iter6traits8iterator8Iterator6copied17h68e6b78af7527210E, symObjAddr: 0x0, symBinAddr: 0x4728, symSize: 0x1C }
  - { offset: 0x30E9C, size: 0x8, addend: 0x0, symName: '__ZN91_$LT$core..slice..iter..Iter$LT$T$GT$$u20$as$u20$core..iter..traits..iterator..Iterator$GT$4next17h029950fe31b88e31E', symObjAddr: 0x6C, symBinAddr: 0x4794, symSize: 0x84 }
  - { offset: 0x30F52, size: 0x8, addend: 0x0, symName: '__ZN91_$LT$core..slice..iter..Iter$LT$T$GT$$u20$as$u20$core..iter..traits..iterator..Iterator$GT$4next17h776bb403f24d0bc5E', symObjAddr: 0xF0, symBinAddr: 0x4818, symSize: 0x84 }
  - { offset: 0x31008, size: 0x8, addend: 0x0, symName: '__ZN91_$LT$core..slice..iter..Iter$LT$T$GT$$u20$as$u20$core..iter..traits..iterator..Iterator$GT$4next17hb2fcb0b75c65d7f1E', symObjAddr: 0x174, symBinAddr: 0x489C, symSize: 0x84 }
  - { offset: 0x3110D, size: 0x8, addend: 0x0, symName: '__ZN91_$LT$core..slice..iter..Iter$LT$T$GT$$u20$as$u20$core..iter..traits..iterator..Iterator$GT$8position17h1683cb7b915a1840E', symObjAddr: 0x1F8, symBinAddr: 0x4920, symSize: 0x1D0 }
  - { offset: 0x3136A, size: 0x8, addend: 0x0, symName: '__ZN91_$LT$core..slice..iter..Iter$LT$T$GT$$u20$as$u20$core..iter..traits..iterator..Iterator$GT$8position17hdb936c410de8b126E', symObjAddr: 0x3C8, symBinAddr: 0x4AF0, symSize: 0x1D0 }
  - { offset: 0x31E72, size: 0x8, addend: 0x0, symName: '__ZN4core5slice4iter13Iter$LT$T$GT$3new17h7a41bfd8a6e12f81E', symObjAddr: 0x1C, symBinAddr: 0x4744, symSize: 0x50 }
  - { offset: 0x323E2, size: 0x8, addend: 0x0, symName: __ZN4core3fmt2rt8Argument11new_display17h05f2e95e89b4ed41E, symObjAddr: 0x0, symBinAddr: 0x4CC0, symSize: 0x2C }
  - { offset: 0x32832, size: 0x8, addend: 0x0, symName: __ZN4core3fmt2rt8Argument11new_display17h05f2e95e89b4ed41E, symObjAddr: 0x0, symBinAddr: 0x4CC0, symSize: 0x2C }
  - { offset: 0x32B5C, size: 0x8, addend: 0x0, symName: __ZN4core3fmt2rt8Argument11new_display17h75cdf7b0393b0087E, symObjAddr: 0x2C, symBinAddr: 0x4CEC, symSize: 0x2C }
  - { offset: 0x32C78, size: 0x8, addend: 0x0, symName: __ZN4core3fmt2rt8Argument11new_display17h83197516c8054be9E, symObjAddr: 0x58, symBinAddr: 0x4D18, symSize: 0x2C }
  - { offset: 0x32CCA, size: 0x8, addend: 0x0, symName: __ZN4core3fmt2rt8Argument11new_display17h8e5f4de1a1afcf33E, symObjAddr: 0x84, symBinAddr: 0x4D44, symSize: 0x2C }
  - { offset: 0x32D1C, size: 0x8, addend: 0x0, symName: __ZN4core3fmt2rt8Argument11new_display17h9f8fa5443914004eE, symObjAddr: 0xB0, symBinAddr: 0x4D70, symSize: 0x2C }
  - { offset: 0x32D54, size: 0x8, addend: 0x0, symName: __ZN4core3fmt2rt8Argument11new_display17hc0bd6bda7ba459c5E, symObjAddr: 0xDC, symBinAddr: 0x4D9C, symSize: 0x2C }
  - { offset: 0x32D8C, size: 0x8, addend: 0x0, symName: __ZN4core3fmt2rt8Argument11new_display17hf0b0a1474ff258dcE, symObjAddr: 0x108, symBinAddr: 0x4DC8, symSize: 0x2C }
  - { offset: 0x32DD5, size: 0x8, addend: 0x0, symName: '__ZN4core3f6421_$LT$impl$u20$f64$GT$5clamp17hd4a6905d833ed7acE', symObjAddr: 0x0, symBinAddr: 0x4DF4, symSize: 0x104 }
  - { offset: 0x330AA, size: 0x8, addend: 0x0, symName: '__ZN4core3f6421_$LT$impl$u20$f64$GT$5clamp17hd4a6905d833ed7acE', symObjAddr: 0x0, symBinAddr: 0x4DF4, symSize: 0x104 }
  - { offset: 0x33350, size: 0x8, addend: 0x0, symName: '__ZN73_$LT$pyo3..types..any..PyAny$u20$as$u20$pyo3..type_object..PyTypeInfo$GT$15type_object_raw17h760722c2da31f84aE', symObjAddr: 0x0, symBinAddr: 0x4EF8, symSize: 0x24 }
  - { offset: 0x344DD, size: 0x8, addend: 0x0, symName: '__ZN73_$LT$pyo3..types..any..PyAny$u20$as$u20$pyo3..type_object..PyTypeInfo$GT$15type_object_raw17h760722c2da31f84aE', symObjAddr: 0x0, symBinAddr: 0x4EF8, symSize: 0x24 }
  - { offset: 0x34A43, size: 0x8, addend: 0x0, symName: __ZN4pyo35impl_10trampoline11module_init17hf59fc79f91bc4d9cE, symObjAddr: 0x0, symBinAddr: 0x4F1C, symSize: 0x28 }
  - { offset: 0x35DC3, size: 0x8, addend: 0x0, symName: __ZN4pyo35impl_10trampoline11module_init17hf59fc79f91bc4d9cE, symObjAddr: 0x0, symBinAddr: 0x4F1C, symSize: 0x28 }
  - { offset: 0x35DEF, size: 0x8, addend: 0x0, symName: __ZN4pyo35impl_10trampoline22fastcall_with_keywords17h696512061e8494a2E, symObjAddr: 0x28, symBinAddr: 0x4F44, symSize: 0x5C }
  - { offset: 0x35E53, size: 0x8, addend: 0x0, symName: __ZN4pyo35impl_10trampoline6noargs17h32ee7abf6888bd34E, symObjAddr: 0x84, symBinAddr: 0x4FA0, symSize: 0x64 }
  - { offset: 0x35E9B, size: 0x8, addend: 0x0, symName: __ZN4pyo35impl_10trampoline7dealloc17hf4e9643b117c90ceE, symObjAddr: 0xE8, symBinAddr: 0x5004, symSize: 0x34 }
  - { offset: 0x35ED1, size: 0x8, addend: 0x0, symName: __ZN4pyo35impl_10trampoline7newfunc17hb4a94f7e87098922E, symObjAddr: 0x11C, symBinAddr: 0x5038, symSize: 0x50 }
  - { offset: 0x36687, size: 0x8, addend: 0x0, symName: '__ZN58_$LT$alloc..string..String$u20$as$u20$core..fmt..Write$GT$9write_str17h8b827ee04385d139E', symObjAddr: 0x0, symBinAddr: 0x5088, symSize: 0x38 }
  - { offset: 0x366A3, size: 0x8, addend: 0x0, symName: '__ZN58_$LT$alloc..string..String$u20$as$u20$core..fmt..Write$GT$9write_str17h8b827ee04385d139E', symObjAddr: 0x0, symBinAddr: 0x5088, symSize: 0x38 }
  - { offset: 0x367AA, size: 0x8, addend: 0x0, symName: '__ZN65_$LT$alloc..string..String$u20$as$u20$core..ops..deref..Deref$GT$5deref17h91ce2e2afe18c10eE', symObjAddr: 0x2E8, symBinAddr: 0x5370, symSize: 0x20 }
  - { offset: 0x3719F, size: 0x8, addend: 0x0, symName: __ZN5alloc6string6String13with_capacity17he0c88f471f6a4d3eE, symObjAddr: 0x38, symBinAddr: 0x50C0, symSize: 0x50 }
  - { offset: 0x3725F, size: 0x8, addend: 0x0, symName: __ZN5alloc6string6String3len17h01526dd4b4f8deecE, symObjAddr: 0x88, symBinAddr: 0x5110, symSize: 0x18 }
  - { offset: 0x37455, size: 0x8, addend: 0x0, symName: __ZN5alloc6string6String4push17hae100f702a56dc47E, symObjAddr: 0xA0, symBinAddr: 0x5128, symSize: 0x114 }
  - { offset: 0x3768A, size: 0x8, addend: 0x0, symName: __ZN5alloc6string6String5clear17h44983b43fb8f6cc2E, symObjAddr: 0x1B4, symBinAddr: 0x523C, symSize: 0x18 }
  - { offset: 0x37784, size: 0x8, addend: 0x0, symName: __ZN5alloc6string6String6as_str17hcf0c40ffd24e813cE, symObjAddr: 0x1CC, symBinAddr: 0x5254, symSize: 0x20 }
  - { offset: 0x37891, size: 0x8, addend: 0x0, symName: __ZN5alloc6string6String8as_bytes17h5209d73b95d99ce1E, symObjAddr: 0x1EC, symBinAddr: 0x5274, symSize: 0x20 }
  - { offset: 0x37AA7, size: 0x8, addend: 0x0, symName: __ZN5alloc6string6String8push_str17hdd784d7506112c0eE, symObjAddr: 0x20C, symBinAddr: 0x5294, symSize: 0xDC }
  - { offset: 0x37E72, size: 0x8, addend: 0x0, symName: '__ZN76_$LT$alloc..string..String$u20$as$u20$crossterm..style..stylize..Stylize$GT$7stylize17h9bf899101e492f6aE', symObjAddr: 0x308, symBinAddr: 0x5390, symSize: 0x34 }
  - { offset: 0x38148, size: 0x8, addend: 0x0, symName: '__ZN4pyo35types4none120_$LT$impl$u20$pyo3..conversion..IntoPy$LT$pyo3..instance..Py$LT$pyo3..types..any..PyAny$GT$$GT$$u20$for$u20$$LP$$RP$$GT$7into_py17h7f0ba01b3eb0a07bE', symObjAddr: 0x0, symBinAddr: 0x53C4, symSize: 0x20 }
  - { offset: 0x39359, size: 0x8, addend: 0x0, symName: '__ZN4pyo35types4none120_$LT$impl$u20$pyo3..conversion..IntoPy$LT$pyo3..instance..Py$LT$pyo3..types..any..PyAny$GT$$GT$$u20$for$u20$$LP$$RP$$GT$7into_py17h7f0ba01b3eb0a07bE', symObjAddr: 0x0, symBinAddr: 0x53C4, symSize: 0x20 }
  - { offset: 0x399A9, size: 0x8, addend: 0x0, symName: __ZN4pyo35types4none6PyNone9get_bound17ha2d0c6361bbaa73dE, symObjAddr: 0x20, symBinAddr: 0x53E4, symSize: 0x24 }
  - { offset: 0x399FB, size: 0x8, addend: 0x0, symName: '__ZN4core3ptr9const_ptr33_$LT$impl$u20$$BP$const$u20$T$GT$7is_null17hdacfe77703c2dbcaE', symObjAddr: 0x0, symBinAddr: 0x5408, symSize: 0x18 }
  - { offset: 0x3A20F, size: 0x8, addend: 0x0, symName: '__ZN4core3ptr9const_ptr33_$LT$impl$u20$$BP$const$u20$T$GT$7is_null17hdacfe77703c2dbcaE', symObjAddr: 0x0, symBinAddr: 0x5408, symSize: 0x18 }
  - { offset: 0x3A329, size: 0x8, addend: 0x0, symName: '__ZN4core5slice29_$LT$impl$u20$$u5b$T$u5d$$GT$15copy_from_slice17h976109530003cd19E', symObjAddr: 0x18, symBinAddr: 0x5420, symSize: 0x34 }
  - { offset: 0x3A392, size: 0x8, addend: 0x0, symName: '__ZN4core5slice29_$LT$impl$u20$$u5b$T$u5d$$GT$18split_at_unchecked17hd41399eb6c40079cE', symObjAddr: 0x4C, symBinAddr: 0x5454, symSize: 0xE8 }
  - { offset: 0x3A4D7, size: 0x8, addend: 0x0, symName: '__ZN4core5slice29_$LT$impl$u20$$u5b$T$u5d$$GT$8split_at17h43f59011e8606c37E', symObjAddr: 0x134, symBinAddr: 0x553C, symSize: 0xAC }
  - { offset: 0x3B486, size: 0x8, addend: 0x0, symName: '__ZN72_$LT$core..option..Option$LT$T$GT$$u20$as$u20$core..default..Default$GT$7default17hc7e7576edb7f874dE', symObjAddr: 0x4E4, symBinAddr: 0x58EC, symSize: 0x18 }
  - { offset: 0x3BF66, size: 0x8, addend: 0x0, symName: '__ZN4core6option15Option$LT$T$GT$3map17h9787e7290630ccebE', symObjAddr: 0x1E0, symBinAddr: 0x55E8, symSize: 0x50 }
  - { offset: 0x3C666, size: 0x8, addend: 0x0, symName: '__ZN4core6option15Option$LT$T$GT$3map17hc9301deb37e0f576E', symObjAddr: 0x230, symBinAddr: 0x5638, symSize: 0x5C }
  - { offset: 0x3C6DE, size: 0x8, addend: 0x0, symName: '__ZN4core6option15Option$LT$T$GT$3map17he8575a82b7f0aad5E', symObjAddr: 0x28C, symBinAddr: 0x5694, symSize: 0x50 }
  - { offset: 0x3C7B1, size: 0x8, addend: 0x0, symName: '__ZN4core6option15Option$LT$T$GT$6as_ref17hdb91efbd6aced001E', symObjAddr: 0x2DC, symBinAddr: 0x56E4, symSize: 0x4C }
  - { offset: 0x3C8B4, size: 0x8, addend: 0x0, symName: '__ZN4core6option15Option$LT$T$GT$6insert17h25fac04f38753007E', symObjAddr: 0x328, symBinAddr: 0x5730, symSize: 0xA8 }
  - { offset: 0x3C94A, size: 0x8, addend: 0x0, symName: '__ZN4core6option15Option$LT$T$GT$6map_or17h51a3212d9b458542E', symObjAddr: 0x3D0, symBinAddr: 0x57D8, symSize: 0x9C }
  - { offset: 0x3C9BC, size: 0x8, addend: 0x0, symName: '__ZN4core6option15Option$LT$T$GT$7is_some17h0106abcdad988dbfE', symObjAddr: 0x46C, symBinAddr: 0x5874, symSize: 0x28 }
  - { offset: 0x3C9F5, size: 0x8, addend: 0x0, symName: '__ZN4core6option15Option$LT$T$GT$7is_some17h8fa9e39774a12577E', symObjAddr: 0x494, symBinAddr: 0x589C, symSize: 0x28 }
  - { offset: 0x3CA2E, size: 0x8, addend: 0x0, symName: '__ZN4core6option15Option$LT$T$GT$7replace17h91191755c4a8ae68E', symObjAddr: 0x4BC, symBinAddr: 0x58C4, symSize: 0x28 }
  - { offset: 0x3CAC3, size: 0x8, addend: 0x0, symName: '__ZN96_$LT$core..str..iter..Chars$u20$as$u20$core..iter..traits..double_ended..DoubleEndedIterator$GT$9next_back17h37f9a9a7e3ecb99aE', symObjAddr: 0x0, symBinAddr: 0x5904, symSize: 0x80 }
  - { offset: 0x3CC0F, size: 0x8, addend: 0x0, symName: '__ZN96_$LT$core..str..iter..Chars$u20$as$u20$core..iter..traits..double_ended..DoubleEndedIterator$GT$9next_back17h37f9a9a7e3ecb99aE', symObjAddr: 0x0, symBinAddr: 0x5904, symSize: 0x80 }
  - { offset: 0x3CE3B, size: 0x8, addend: 0x0, symName: __ZN13unicode_width6tables12lookup_width17hd5f868d32d750cb1E, symObjAddr: 0x0, symBinAddr: 0x5984, symSize: 0x49C }
  - { offset: 0x3CFC1, size: 0x8, addend: 0x0, symName: __ZN13unicode_width6tables12lookup_width17hd5f868d32d750cb1E, symObjAddr: 0x0, symBinAddr: 0x5984, symSize: 0x49C }
  - { offset: 0x3D056, size: 0x8, addend: 0x0, symName: __ZN13unicode_width6tables12width_in_str17h46514c451d3ba99dE, symObjAddr: 0x49C, symBinAddr: 0x5E20, symSize: 0xB70 }
  - { offset: 0x3D0CB, size: 0x8, addend: 0x0, symName: __ZN13unicode_width6tables22is_emoji_modifier_base17h658a1d2fa6f7240aE, symObjAddr: 0x100C, symBinAddr: 0x6990, symSize: 0x1C8 }
  - { offset: 0x3D161, size: 0x8, addend: 0x0, symName: __ZN13unicode_width6tables29starts_emoji_presentation_seq17hb6a454448db89cd8E, symObjAddr: 0x11D4, symBinAddr: 0x6B58, symSize: 0x23C }
  - { offset: 0x3D236, size: 0x8, addend: 0x0, symName: __ZN13unicode_width6tables44starts_non_ideographic_text_presentation_seq17hb3d1da27dd665b49E, symObjAddr: 0x1410, symBinAddr: 0x6D94, symSize: 0x218 }
  - { offset: 0x3D2CC, size: 0x8, addend: 0x0, symName: __ZN13unicode_width6tables9str_width17hfa8517c1df81a502E, symObjAddr: 0x1628, symBinAddr: 0x6FAC, symSize: 0x34 }
  - { offset: 0x3D2FF, size: 0x8, addend: 0x0, symName: '__ZN73_$LT$unicode_width..tables..WidthInfo$u20$as$u20$core..cmp..PartialEq$GT$2eq17h77462b339752e5a6E', symObjAddr: 0x165C, symBinAddr: 0x6FE0, symSize: 0x2C }
  - { offset: 0x3D4C3, size: 0x8, addend: 0x0, symName: __ZN4pyo33err5PyErr22write_unraisable_bound17h579e178d07485f54E, symObjAddr: 0x0, symBinAddr: 0x700C, symSize: 0x4C }
  - { offset: 0x3EEE3, size: 0x8, addend: 0x0, symName: __ZN4pyo33err5PyErr22write_unraisable_bound17h579e178d07485f54E, symObjAddr: 0x0, symBinAddr: 0x700C, symSize: 0x4C }
  - { offset: 0x3EF4D, size: 0x8, addend: 0x0, symName: __ZN4pyo33err5PyErr7restore17h08e67c8d6075697eE, symObjAddr: 0x4C, symBinAddr: 0x7058, symSize: 0x68 }
  - { offset: 0x3EFC8, size: 0x8, addend: 0x0, symName: '__ZN4pyo311conversions3std6string125_$LT$impl$u20$pyo3..conversion..IntoPy$LT$pyo3..instance..Py$LT$pyo3..types..string..PyString$GT$$GT$$u20$for$u20$$RF$str$GT$7into_py17h3ab4f513b3b0bd2aE', symObjAddr: 0x0, symBinAddr: 0x70C0, symSize: 0x34 }
  - { offset: 0x401BA, size: 0x8, addend: 0x0, symName: '__ZN4pyo311conversions3std6string125_$LT$impl$u20$pyo3..conversion..IntoPy$LT$pyo3..instance..Py$LT$pyo3..types..string..PyString$GT$$GT$$u20$for$u20$$RF$str$GT$7into_py17h3ab4f513b3b0bd2aE', symObjAddr: 0x0, symBinAddr: 0x70C0, symSize: 0x34 }
  - { offset: 0x407CF, size: 0x8, addend: 0x0, symName: '__ZN4pyo36pycell17PyRefMut$LT$T$GT$10try_borrow17hd3a4294c33291443E', symObjAddr: 0x0, symBinAddr: 0x70F4, symSize: 0x4C }
  - { offset: 0x41CF2, size: 0x8, addend: 0x0, symName: '__ZN50_$LT$T$u20$as$u20$core..convert..Into$LT$U$GT$$GT$4into17hccfeee4990df0a15E', symObjAddr: 0x70, symBinAddr: 0x7164, symSize: 0x1C }
  - { offset: 0x41E48, size: 0x8, addend: 0x0, symName: '__ZN4pyo36pycell17PyRefMut$LT$T$GT$10try_borrow28_$u7b$$u7b$closure$u7d$$u7d$17hf01503a7774b4a8cE', symObjAddr: 0x4C, symBinAddr: 0x7140, symSize: 0x24 }
  - { offset: 0x41E93, size: 0x8, addend: 0x0, symName: '__ZN78_$LT$pyo3..pycell..PyRefMut$LT$T$GT$$u20$as$u20$core..ops..deref..DerefMut$GT$9deref_mut17h341ba37bde3d227eE', symObjAddr: 0xC0, symBinAddr: 0x71B4, symSize: 0x74 }
  - { offset: 0x4215A, size: 0x8, addend: 0x0, symName: '__ZN57_$LT$T$u20$as$u20$pyo3..conversion..FromPyObjectBound$GT$20from_py_object_bound17he24783485e76895fE', symObjAddr: 0x8C, symBinAddr: 0x7180, symSize: 0x34 }
  - { offset: 0x42197, size: 0x8, addend: 0x0, symName: '__ZN82_$LT$pyo3..pycell..PyRefMut$LT$T$GT$$u20$as$u20$pyo3..conversion..FromPyObject$GT$13extract_bound17h405c3dfc4c191e2aE', symObjAddr: 0x134, symBinAddr: 0x7228, symSize: 0xA4 }
  - { offset: 0x42DBC, size: 0x8, addend: 0x0, symName: '__ZN4pyo36pycell17PyRefMut$LT$T$GT$10try_borrow17hd3a4294c33291443E', symObjAddr: 0x0, symBinAddr: 0x70F4, symSize: 0x4C }
  - { offset: 0x42ED4, size: 0x8, addend: 0x0, symName: '__ZN59_$LT$$RF$$RF$str$u20$as$u20$core..str..pattern..Pattern$GT$13into_searcher17h5d221ea152b43532E', symObjAddr: 0x0, symBinAddr: 0x72CC, symSize: 0x4C }
  - { offset: 0x42F0C, size: 0x8, addend: 0x0, symName: '__ZN59_$LT$$RF$$RF$str$u20$as$u20$core..str..pattern..Pattern$GT$13into_searcher17h5d221ea152b43532E', symObjAddr: 0x0, symBinAddr: 0x72CC, symSize: 0x4C }
  - { offset: 0x430F1, size: 0x8, addend: 0x0, symName: '__ZN80_$LT$core..str..pattern..StrSearcher$u20$as$u20$core..str..pattern..Searcher$GT$10next_match17hf579167a4358721eE', symObjAddr: 0x4C, symBinAddr: 0x7318, symSize: 0x148 }
  - { offset: 0x4317D, size: 0x8, addend: 0x0, symName: '__ZN80_$LT$core..str..pattern..StrSearcher$u20$as$u20$core..str..pattern..Searcher$GT$4next17h7a231a9ccba31aebE', symObjAddr: 0x194, symBinAddr: 0x7460, symSize: 0x434 }
  - { offset: 0x43B34, size: 0x8, addend: 0x0, symName: __ZN4pyo35impl_16extract_argument16extract_argument17h58b85ad53fe2419aE, symObjAddr: 0x0, symBinAddr: 0x7894, symSize: 0x128 }
  - { offset: 0x456D8, size: 0x8, addend: 0x0, symName: __ZN4pyo35impl_16extract_argument16extract_argument17h58b85ad53fe2419aE, symObjAddr: 0x0, symBinAddr: 0x7894, symSize: 0x128 }
  - { offset: 0x4575C, size: 0x8, addend: 0x0, symName: __ZN4pyo35impl_16extract_argument16extract_argument17hc546cdf0f74dde48E, symObjAddr: 0x128, symBinAddr: 0x79BC, symSize: 0x11C }
  - { offset: 0x45961, size: 0x8, addend: 0x0, symName: '__ZN4pyo35impl_16extract_argument19FunctionDescription26extract_arguments_fastcall28_$u7b$$u7b$closure$u7d$$u7d$17h5dc0df2d428b8e18E', symObjAddr: 0x1630, symBinAddr: 0x8EC4, symSize: 0x24 }
  - { offset: 0x459B9, size: 0x8, addend: 0x0, symName: '__ZN4pyo35impl_16extract_argument19FunctionDescription28extract_arguments_tuple_dict28_$u7b$$u7b$closure$u7d$$u7d$17ha202fea4137426a3E', symObjAddr: 0x1AEC, symBinAddr: 0x9380, symSize: 0x24 }
  - { offset: 0x45A11, size: 0x8, addend: 0x0, symName: '__ZN4pyo35impl_16extract_argument19FunctionDescription36find_keyword_parameter_in_positional28_$u7b$$u7b$closure$u7d$$u7d$17h3f958dd65153ed09E', symObjAddr: 0x1B10, symBinAddr: 0x93A4, symSize: 0x48 }
  - { offset: 0x45A71, size: 0x8, addend: 0x0, symName: '__ZN4pyo35impl_16extract_argument19FunctionDescription38find_keyword_parameter_in_keyword_only28_$u7b$$u7b$closure$u7d$$u7d$17h1b41c019a659af45E', symObjAddr: 0x1B58, symBinAddr: 0x93EC, symSize: 0x38 }
  - { offset: 0x45AB3, size: 0x8, addend: 0x0, symName: __ZN4pyo35impl_16extract_argument23extract_pyclass_ref_mut17h9eb0fe2b46993adcE, symObjAddr: 0x1B90, symBinAddr: 0x9424, symSize: 0xB0 }
  - { offset: 0x45B14, size: 0x8, addend: 0x0, symName: __ZN4pyo35impl_16extract_argument29extract_argument_with_default17h7a4bd6ff4cf29aacE, symObjAddr: 0x1C40, symBinAddr: 0x94D4, symSize: 0x8C }
  - { offset: 0x45B90, size: 0x8, addend: 0x0, symName: __ZN4pyo35impl_16extract_argument29extract_argument_with_default17hb9bce64ef2180a1dE, symObjAddr: 0x1CCC, symBinAddr: 0x9560, symSize: 0x90 }
  - { offset: 0x45C11, size: 0x8, addend: 0x0, symName: '__ZN71_$LT$T$u20$as$u20$pyo3..impl_..extract_argument..PyFunctionArgument$GT$7extract17h3c858cc01d837658E', symObjAddr: 0x1D5C, symBinAddr: 0x95F0, symSize: 0x28 }
  - { offset: 0x45C50, size: 0x8, addend: 0x0, symName: '__ZN71_$LT$T$u20$as$u20$pyo3..impl_..extract_argument..PyFunctionArgument$GT$7extract17h4838a6aed870bf33E', symObjAddr: 0x1D84, symBinAddr: 0x9618, symSize: 0x28 }
  - { offset: 0x4663C, size: 0x8, addend: 0x0, symName: __ZN4pyo35impl_16extract_argument19FunctionDescription13handle_kwargs17hd788739fe1369636E, symObjAddr: 0x244, symBinAddr: 0x7AD8, symSize: 0x6F8 }
  - { offset: 0x4683B, size: 0x8, addend: 0x0, symName: __ZN4pyo35impl_16extract_argument19FunctionDescription13handle_kwargs17hd9de2803c7dbd82dE, symObjAddr: 0x93C, symBinAddr: 0x81D0, symSize: 0x6F0 }
  - { offset: 0x46A4B, size: 0x8, addend: 0x0, symName: __ZN4pyo35impl_16extract_argument19FunctionDescription26extract_arguments_fastcall17hf9db4fcaf638857dE, symObjAddr: 0x102C, symBinAddr: 0x88C0, symSize: 0x604 }
  - { offset: 0x46D5F, size: 0x8, addend: 0x0, symName: __ZN4pyo35impl_16extract_argument19FunctionDescription28extract_arguments_tuple_dict17h35a0328561cd6213E, symObjAddr: 0x1654, symBinAddr: 0x8EE8, symSize: 0x498 }
  - { offset: 0x4766C, size: 0x8, addend: 0x0, symName: '__ZN5alloc7raw_vec19RawVec$LT$T$C$A$GT$8grow_one17hdb4fceebd3e3eb8aE', symObjAddr: 0x0, symBinAddr: 0x9640, symSize: 0x88 }
  - { offset: 0x47DAB, size: 0x8, addend: 0x0, symName: '__ZN5alloc7raw_vec19RawVec$LT$T$C$A$GT$8grow_one17hdb4fceebd3e3eb8aE', symObjAddr: 0x0, symBinAddr: 0x9640, symSize: 0x88 }
  - { offset: 0x47E82, size: 0x8, addend: 0x0, symName: '__ZN5alloc7raw_vec19RawVec$LT$T$C$A$GT$8grow_one17he16cde39b9c32affE', symObjAddr: 0x88, symBinAddr: 0x96C8, symSize: 0x88 }
  - { offset: 0x47F0B, size: 0x8, addend: 0x0, symName: __ZN4core9ub_checks23maybe_is_nonoverlapping7runtime17h4c63dc2dd057c0ecE, symObjAddr: 0x0, symBinAddr: 0x9750, symSize: 0xD8 }
  - { offset: 0x48090, size: 0x8, addend: 0x0, symName: __ZN4core9ub_checks23maybe_is_nonoverlapping7runtime17h4c63dc2dd057c0ecE, symObjAddr: 0x0, symBinAddr: 0x9750, symSize: 0xD8 }
  - { offset: 0x482A3, size: 0x8, addend: 0x0, symName: '__ZN15vibe_loadbar_rs7LoadBar20__pymethod___new____28_$u7b$$u7b$closure$u7d$$u7d$17hb205d020f0a07058E', symObjAddr: 0x0, symBinAddr: 0x9828, symSize: 0x1C }
  - { offset: 0x48D7D, size: 0x8, addend: 0x0, symName: '__ZN4core5array98_$LT$impl$u20$core..iter..traits..collect..IntoIterator$u20$for$u20$$RF$$u5b$T$u3b$$u20$N$u5d$$GT$9into_iter17h635a62287399e88eE', symObjAddr: 0x3C, symBinAddr: 0x9864, symSize: 0x58 }
  - { offset: 0x48EBF, size: 0x8, addend: 0x0, symName: '__ZN50_$LT$T$u20$as$u20$core..convert..Into$LT$U$GT$$GT$4into17h018cc31ab7499485E', symObjAddr: 0x15C, symBinAddr: 0x9984, symSize: 0x14 }
  - { offset: 0x49AD4, size: 0x8, addend: 0x0, symName: '__ZN15vibe_loadbar_rs7LoadBar20__pymethod___new____28_$u7b$$u7b$closure$u7d$$u7d$17hb205d020f0a07058E', symObjAddr: 0x0, symBinAddr: 0x9828, symSize: 0x1C }
  - { offset: 0x49AFC, size: 0x8, addend: 0x0, symName: '__ZN15vibe_loadbar_rs7LoadBar20__pymethod___new____28_$u7b$$u7b$closure$u7d$$u7d$17hc9333121b71bc454E', symObjAddr: 0x1C, symBinAddr: 0x9844, symSize: 0x20 }
  - { offset: 0x49C41, size: 0x8, addend: 0x0, symName: '__ZN78_$LT$vibe_loadbar_rs..LoadBar$u20$as$u20$pyo3..impl_..pyclass..PyClassImpl$GT$3doc28_$u7b$$u7b$closure$u7d$$u7d$17h5ba8ca2b98cf0179E', symObjAddr: 0x194, symBinAddr: 0x99BC, symSize: 0x54 }
  - { offset: 0x4A0C1, size: 0x8, addend: 0x0, symName: __ZN4pyo311type_object10PyTypeInfo16is_type_of_bound17h3d7ae5e9a20d59adE, symObjAddr: 0x94, symBinAddr: 0x98BC, symSize: 0x50 }
  - { offset: 0x4A0FC, size: 0x8, addend: 0x0, symName: '__ZN52_$LT$T$u20$as$u20$pyo3..type_object..PyTypeCheck$GT$10type_check17hc6bca644e04c6959E', symObjAddr: 0x170, symBinAddr: 0x9998, symSize: 0x24 }
  - { offset: 0x4A13D, size: 0x8, addend: 0x0, symName: '__ZN4pyo312pyclass_init123_$LT$impl$u20$pyo3..callback..IntoPyCallbackOutput$LT$pyo3..pyclass_init..PyClassInitializer$LT$T$GT$$GT$$u20$for$u20$U$GT$7convert17hce335b38cd924cf2E', symObjAddr: 0xE4, symBinAddr: 0x990C, symSize: 0x68 }
  - { offset: 0x4A268, size: 0x8, addend: 0x0, symName: __ZN4pyo35impl_7pyclass11PyClassImpl11dict_offset17hf22fb0a6013a3478E, symObjAddr: 0x14C, symBinAddr: 0x9974, symSize: 0x8 }
  - { offset: 0x4A28F, size: 0x8, addend: 0x0, symName: __ZN4pyo35impl_7pyclass11PyClassImpl15weaklist_offset17hf77bec023aa10222E, symObjAddr: 0x154, symBinAddr: 0x997C, symSize: 0x8 }
  - { offset: 0x4ACCB, size: 0x8, addend: 0x0, symName: __ZN4core4hint16assert_unchecked18precondition_check17h52e99f5e2b791faaE, symObjAddr: 0x0, symBinAddr: 0x9A10, symSize: 0x58 }
  - { offset: 0x4ACE7, size: 0x8, addend: 0x0, symName: __ZN4core4hint16assert_unchecked18precondition_check17h52e99f5e2b791faaE, symObjAddr: 0x0, symBinAddr: 0x9A10, symSize: 0x58 }
  - { offset: 0x4AD32, size: 0x8, addend: 0x0, symName: __ZN4core4hint21unreachable_unchecked18precondition_check17hc1b225dcf518c2edE, symObjAddr: 0x58, symBinAddr: 0x9A68, symSize: 0x3C }
  - { offset: 0x4ADC6, size: 0x8, addend: 0x0, symName: '__ZN100_$LT$pyo3..types..tuple..BorrowedTupleIterator$u20$as$u20$core..iter..traits..iterator..Iterator$GT$4next17hb13cc5ba72ecefd2E', symObjAddr: 0x0, symBinAddr: 0x9AA4, symSize: 0x9C }
  - { offset: 0x4C04A, size: 0x8, addend: 0x0, symName: '__ZN100_$LT$pyo3..types..tuple..BorrowedTupleIterator$u20$as$u20$core..iter..traits..iterator..Iterator$GT$4next17hb13cc5ba72ecefd2E', symObjAddr: 0x0, symBinAddr: 0x9AA4, symSize: 0x9C }
  - { offset: 0x4C714, size: 0x8, addend: 0x0, symName: __ZN9crossterm5style13content_style12ContentStyle5apply17h4a68cae63af9d3b7E, symObjAddr: 0x0, symBinAddr: 0x9B40, symSize: 0x40 }
  - { offset: 0x4CC16, size: 0x8, addend: 0x0, symName: __ZN9crossterm5style13content_style12ContentStyle5apply17h4a68cae63af9d3b7E, symObjAddr: 0x0, symBinAddr: 0x9B40, symSize: 0x40 }
  - { offset: 0x4CC78, size: 0x8, addend: 0x0, symName: __ZN9crossterm5style13content_style12ContentStyle5apply17h61fd7f271ec32a5bE, symObjAddr: 0x40, symBinAddr: 0x9B80, symSize: 0x34 }
  - { offset: 0x4CCD0, size: 0x8, addend: 0x0, symName: '__ZN4core5slice29_$LT$impl$u20$$u5b$T$u5d$$GT$18split_at_unchecked18precondition_check17hfbcfd8c9d45557b3E', symObjAddr: 0x0, symBinAddr: 0x9BB4, symSize: 0x60 }
  - { offset: 0x4CCF1, size: 0x8, addend: 0x0, symName: '__ZN4core5slice29_$LT$impl$u20$$u5b$T$u5d$$GT$18split_at_unchecked18precondition_check17hfbcfd8c9d45557b3E', symObjAddr: 0x0, symBinAddr: 0x9BB4, symSize: 0x60 }
  - { offset: 0x4CD9B, size: 0x8, addend: 0x0, symName: '__ZN109_$LT$pyo3..types..dict..borrowed_iter..BorrowedDictIter$u20$as$u20$core..iter..traits..iterator..Iterator$GT$4next17h9e03c3b7cf4a9fd0E', symObjAddr: 0x0, symBinAddr: 0x9C14, symSize: 0xD4 }
  - { offset: 0x4E024, size: 0x8, addend: 0x0, symName: '__ZN109_$LT$pyo3..types..dict..borrowed_iter..BorrowedDictIter$u20$as$u20$core..iter..traits..iterator..Iterator$GT$4next17h9e03c3b7cf4a9fd0E', symObjAddr: 0x0, symBinAddr: 0x9C14, symSize: 0xD4 }
  - { offset: 0x4E739, size: 0x8, addend: 0x0, symName: __ZN9crossterm7command11execute_fmt17h2067195929601e6dE, symObjAddr: 0x0, symBinAddr: 0x9CE8, symSize: 0x54 }
  - { offset: 0x4E750, size: 0x8, addend: 0x0, symName: __ZN9crossterm7command11execute_fmt17h2067195929601e6dE, symObjAddr: 0x0, symBinAddr: 0x9CE8, symSize: 0x54 }
  - { offset: 0x4E7A0, size: 0x8, addend: 0x0, symName: __ZN9crossterm7command11execute_fmt17hde986671397ab3a4E, symObjAddr: 0x54, symBinAddr: 0x9D3C, symSize: 0x54 }
  - { offset: 0x4EE82, size: 0x8, addend: 0x0, symName: '__ZN44_$LT$$RF$T$u20$as$u20$core..fmt..Display$GT$3fmt17h488aaa2dcd481a93E', symObjAddr: 0x0, symBinAddr: 0x9D90, symSize: 0x30 }
  - { offset: 0x4EE9E, size: 0x8, addend: 0x0, symName: '__ZN44_$LT$$RF$T$u20$as$u20$core..fmt..Display$GT$3fmt17h488aaa2dcd481a93E', symObjAddr: 0x0, symBinAddr: 0x9D90, symSize: 0x30 }
  - { offset: 0x4F29F, size: 0x8, addend: 0x0, symName: '__ZN74_$LT$alloc..string..String$u20$as$u20$core..ops..index..Index$LT$I$GT$$GT$5index17h70633d00882ce70bE', symObjAddr: 0x30, symBinAddr: 0x9DC0, symSize: 0x3C }
  - { offset: 0x4F4B8, size: 0x8, addend: 0x0, symName: __ZN9crossterm5style7stylize7Stylize4with17hdfd633165c1a641dE, symObjAddr: 0x6C, symBinAddr: 0x9DFC, symSize: 0xAC }
  - { offset: 0x4F83E, size: 0x8, addend: 0x0, symName: '__ZN73_$LT$pyo3..types..any..PyAny$u20$as$u20$pyo3..type_object..PyTypeInfo$GT$15type_object_raw28_$u7b$$u7b$closure$u7d$$u7d$17h5935f117a5520178E', symObjAddr: 0x0, symBinAddr: 0x9EA8, symSize: 0x18 }
  - { offset: 0x509D0, size: 0x8, addend: 0x0, symName: '__ZN73_$LT$pyo3..types..any..PyAny$u20$as$u20$pyo3..type_object..PyTypeInfo$GT$15type_object_raw28_$u7b$$u7b$closure$u7d$$u7d$17h5935f117a5520178E', symObjAddr: 0x0, symBinAddr: 0x9EA8, symSize: 0x18 }
  - { offset: 0x50F55, size: 0x8, addend: 0x0, symName: '__ZN88_$LT$crossterm..style..content_style..ContentStyle$u20$as$u20$core..default..Default$GT$7default17hf4d50283406160e4E', symObjAddr: 0x0, symBinAddr: 0x9EC0, symSize: 0x70 }
  - { offset: 0x50F76, size: 0x8, addend: 0x0, symName: '__ZN88_$LT$crossterm..style..content_style..ContentStyle$u20$as$u20$core..default..Default$GT$7default17hf4d50283406160e4E', symObjAddr: 0x0, symBinAddr: 0x9EC0, symSize: 0x70 }
  - { offset: 0x5126B, size: 0x8, addend: 0x0, symName: __ZN9crossterm5style13content_style12ContentStyle3new17h642d7fedc9290978E, symObjAddr: 0x70, symBinAddr: 0x9F30, symSize: 0x14 }
  - { offset: 0x5129C, size: 0x8, addend: 0x0, symName: __ZN4pyo35impl_10trampoline10trampoline17h302b1057e856c2eaE, symObjAddr: 0x0, symBinAddr: 0x9F44, symSize: 0x158 }
  - { offset: 0x5269C, size: 0x8, addend: 0x0, symName: __ZN4pyo35impl_10trampoline10trampoline17h302b1057e856c2eaE, symObjAddr: 0x0, symBinAddr: 0x9F44, symSize: 0x158 }
  - { offset: 0x5273F, size: 0x8, addend: 0x0, symName: __ZN4pyo35impl_10trampoline10trampoline17h33071323c1397927E, symObjAddr: 0x158, symBinAddr: 0xA09C, symSize: 0x168 }
  - { offset: 0x527E3, size: 0x8, addend: 0x0, symName: __ZN4pyo35impl_10trampoline10trampoline17h84c9b49a62b5b904E, symObjAddr: 0x2C0, symBinAddr: 0xA204, symSize: 0x164 }
  - { offset: 0x52886, size: 0x8, addend: 0x0, symName: __ZN4pyo35impl_10trampoline10trampoline17h8ed28b8377d4d7e8E, symObjAddr: 0x424, symBinAddr: 0xA368, symSize: 0x16C }
  - { offset: 0x5292F, size: 0x8, addend: 0x0, symName: '__ZN4pyo35impl_10trampoline10trampoline28_$u7b$$u7b$closure$u7d$$u7d$17h859cea355398b6feE', symObjAddr: 0x590, symBinAddr: 0xA4D4, symSize: 0x34 }
  - { offset: 0x5297E, size: 0x8, addend: 0x0, symName: '__ZN4pyo35impl_10trampoline10trampoline28_$u7b$$u7b$closure$u7d$$u7d$17h86944e6963ac6ae2E', symObjAddr: 0x5C4, symBinAddr: 0xA508, symSize: 0x2C }
  - { offset: 0x529CC, size: 0x8, addend: 0x0, symName: '__ZN4pyo35impl_10trampoline10trampoline28_$u7b$$u7b$closure$u7d$$u7d$17h978285e0941bc681E', symObjAddr: 0x5F0, symBinAddr: 0xA534, symSize: 0x24 }
  - { offset: 0x52A1A, size: 0x8, addend: 0x0, symName: '__ZN4pyo35impl_10trampoline10trampoline28_$u7b$$u7b$closure$u7d$$u7d$17hd1718c430eb907a8E', symObjAddr: 0x614, symBinAddr: 0xA558, symSize: 0x40 }
  - { offset: 0x52A6F, size: 0x8, addend: 0x0, symName: '__ZN4pyo35impl_10trampoline11module_init28_$u7b$$u7b$closure$u7d$$u7d$17he9cae7240110f9c3E', symObjAddr: 0x654, symBinAddr: 0xA598, symSize: 0x40 }
  - { offset: 0x52ABB, size: 0x8, addend: 0x0, symName: '__ZN4pyo35impl_10trampoline11module_init28_$u7b$$u7b$closure$u7d$$u7d$28_$u7b$$u7b$closure$u7d$$u7d$17ha6884864403351e6E', symObjAddr: 0x694, symBinAddr: 0xA5D8, symSize: 0x24 }
  - { offset: 0x52B0D, size: 0x8, addend: 0x0, symName: __ZN4pyo35impl_10trampoline21trampoline_unraisable17hc42e59f58b5726e3E, symObjAddr: 0x6B8, symBinAddr: 0xA5FC, symSize: 0x218 }
  - { offset: 0x52BB0, size: 0x8, addend: 0x0, symName: '__ZN4pyo35impl_10trampoline21trampoline_unraisable28_$u7b$$u7b$closure$u7d$$u7d$17h41c4def9605db6a5E', symObjAddr: 0x8D0, symBinAddr: 0xA814, symSize: 0x2C }
  - { offset: 0x52BF5, size: 0x8, addend: 0x0, symName: '__ZN4pyo35impl_10trampoline21trampoline_unraisable28_$u7b$$u7b$closure$u7d$$u7d$17hd65c6245d72cfbb3E', symObjAddr: 0x8FC, symBinAddr: 0xA840, symSize: 0x50 }
  - { offset: 0x52C41, size: 0x8, addend: 0x0, symName: '__ZN4pyo35impl_10trampoline22fastcall_with_keywords28_$u7b$$u7b$closure$u7d$$u7d$17h9bf3532e0d8bff40E', symObjAddr: 0x94C, symBinAddr: 0xA890, symSize: 0x48 }
  - { offset: 0x52D0D, size: 0x8, addend: 0x0, symName: '__ZN4pyo35impl_10trampoline6noargs28_$u7b$$u7b$closure$u7d$$u7d$17h38ad145d724f8a87E', symObjAddr: 0x994, symBinAddr: 0xA8D8, symSize: 0x34 }
  - { offset: 0x52D8A, size: 0x8, addend: 0x0, symName: '__ZN4pyo35impl_10trampoline7dealloc28_$u7b$$u7b$closure$u7d$$u7d$17h5938ddd600c0a7f0E', symObjAddr: 0x9C8, symBinAddr: 0xA90C, symSize: 0x40 }
  - { offset: 0x52E07, size: 0x8, addend: 0x0, symName: '__ZN4pyo35impl_10trampoline7newfunc28_$u7b$$u7b$closure$u7d$$u7d$17hb9c49c51e6c22137E', symObjAddr: 0xA08, symBinAddr: 0xA94C, symSize: 0x40 }
  - { offset: 0x536FF, size: 0x8, addend: 0x0, symName: __ZN4pyo35impl_12deprecations12inspect_type17h73b654506e99841cE, symObjAddr: 0x0, symBinAddr: 0xA98C, symSize: 0x14 }
  - { offset: 0x54A13, size: 0x8, addend: 0x0, symName: __ZN4pyo35impl_12deprecations12inspect_type17h73b654506e99841cE, symObjAddr: 0x0, symBinAddr: 0xA98C, symSize: 0x14 }
  - { offset: 0x54A52, size: 0x8, addend: 0x0, symName: __ZN4pyo35impl_12deprecations12inspect_type17h8a0476d887f2b013E, symObjAddr: 0x14, symBinAddr: 0xA9A0, symSize: 0x18 }
  - { offset: 0x54A91, size: 0x8, addend: 0x0, symName: __ZN4pyo35impl_12deprecations12inspect_type17hbfe3c05b87f3e98bE, symObjAddr: 0x2C, symBinAddr: 0xA9B8, symSize: 0x1C }
  - { offset: 0x54AD0, size: 0x8, addend: 0x0, symName: __ZN4pyo35impl_12deprecations12inspect_type17hcb99b8623c273238E, symObjAddr: 0x48, symBinAddr: 0xA9D4, symSize: 0x18 }
  - { offset: 0x54D38, size: 0x8, addend: 0x0, symName: '__ZN87_$LT$pyo3..impl_..deprecations..GilRefs$LT$T$GT$$u20$as$u20$core..ops..deref..Deref$GT$5deref17h4c1db9f70a6c786eE', symObjAddr: 0xB0, symBinAddr: 0xAA3C, symSize: 0x14 }
  - { offset: 0x54D6D, size: 0x8, addend: 0x0, symName: '__ZN87_$LT$pyo3..impl_..deprecations..GilRefs$LT$T$GT$$u20$as$u20$core..ops..deref..Deref$GT$5deref17hc865e35d74752852E', symObjAddr: 0xC4, symBinAddr: 0xAA50, symSize: 0x14 }
  - { offset: 0x54DA2, size: 0x8, addend: 0x0, symName: '__ZN87_$LT$pyo3..impl_..deprecations..GilRefs$LT$T$GT$$u20$as$u20$core..ops..deref..Deref$GT$5deref17hce384d6de10caf1bE', symObjAddr: 0xD8, symBinAddr: 0xAA64, symSize: 0x14 }
  - { offset: 0x54DD7, size: 0x8, addend: 0x0, symName: '__ZN87_$LT$pyo3..impl_..deprecations..GilRefs$LT$T$GT$$u20$as$u20$core..ops..deref..Deref$GT$5deref17hf4d26f3ecd40918fE', symObjAddr: 0xEC, symBinAddr: 0xAA78, symSize: 0x14 }
  - { offset: 0x54E12, size: 0x8, addend: 0x0, symName: '__ZN93_$LT$pyo3..impl_..deprecations..OptionGilRefs$LT$T$GT$$u20$as$u20$core..ops..deref..Deref$GT$5deref17h490a5a3e7c7f3085E', symObjAddr: 0x100, symBinAddr: 0xAA8C, symSize: 0x14 }
  - { offset: 0x54E47, size: 0x8, addend: 0x0, symName: '__ZN93_$LT$pyo3..impl_..deprecations..OptionGilRefs$LT$T$GT$$u20$as$u20$core..ops..deref..Deref$GT$5deref17h4f41ca47e7fcddd2E', symObjAddr: 0x114, symBinAddr: 0xAAA0, symSize: 0x14 }
  - { offset: 0x54E7C, size: 0x8, addend: 0x0, symName: '__ZN93_$LT$pyo3..impl_..deprecations..OptionGilRefs$LT$T$GT$$u20$as$u20$core..ops..deref..Deref$GT$5deref17he83cad5fb927b94cE', symObjAddr: 0x128, symBinAddr: 0xAAB4, symSize: 0x14 }
  - { offset: 0x54EB1, size: 0x8, addend: 0x0, symName: '__ZN93_$LT$pyo3..impl_..deprecations..OptionGilRefs$LT$T$GT$$u20$as$u20$core..ops..deref..Deref$GT$5deref17hf95662c4f55f25c6E', symObjAddr: 0x13C, symBinAddr: 0xAAC8, symSize: 0x14 }
  - { offset: 0x5502C, size: 0x8, addend: 0x0, symName: '__ZN4pyo35impl_12deprecations16GilRefs$LT$T$GT$3new17h23329aec01e7d490E', symObjAddr: 0x60, symBinAddr: 0xA9EC, symSize: 0x4 }
  - { offset: 0x55617, size: 0x8, addend: 0x0, symName: '__ZN4pyo35impl_12deprecations16GilRefs$LT$T$GT$3new17h7da09ed9df0912e1E', symObjAddr: 0x64, symBinAddr: 0xA9F0, symSize: 0x4 }
  - { offset: 0x55AC9, size: 0x8, addend: 0x0, symName: '__ZN4pyo35impl_12deprecations16GilRefs$LT$T$GT$3new17h985ded41101a45d4E', symObjAddr: 0x68, symBinAddr: 0xA9F4, symSize: 0x4 }
  - { offset: 0x55AE6, size: 0x8, addend: 0x0, symName: '__ZN4pyo35impl_12deprecations16GilRefs$LT$T$GT$3new17ha03fb81e042bab0aE', symObjAddr: 0x6C, symBinAddr: 0xA9F8, symSize: 0x4 }
  - { offset: 0x55B10, size: 0x8, addend: 0x0, symName: '__ZN4pyo35impl_12deprecations19NotAGilRef$LT$T$GT$12function_arg17h47fb98ec632e3272E', symObjAddr: 0x70, symBinAddr: 0xA9FC, symSize: 0x10 }
  - { offset: 0x55B48, size: 0x8, addend: 0x0, symName: '__ZN4pyo35impl_12deprecations19NotAGilRef$LT$T$GT$12function_arg17h585848faa5c6d82cE', symObjAddr: 0x80, symBinAddr: 0xAA0C, symSize: 0x10 }
  - { offset: 0x55B80, size: 0x8, addend: 0x0, symName: '__ZN4pyo35impl_12deprecations19NotAGilRef$LT$T$GT$12function_arg17h7076257df12148f6E', symObjAddr: 0x90, symBinAddr: 0xAA1C, symSize: 0x10 }
  - { offset: 0x55BB8, size: 0x8, addend: 0x0, symName: '__ZN4pyo35impl_12deprecations19NotAGilRef$LT$T$GT$12function_arg17hcf11a4a5c6f65659E', symObjAddr: 0xA0, symBinAddr: 0xAA2C, symSize: 0x10 }
  - { offset: 0x55C69, size: 0x8, addend: 0x0, symName: __ZN4pyo35impl_4wrap19map_result_into_ptr17hdc3e3a65225ca8e2E, symObjAddr: 0x0, symBinAddr: 0xAADC, symSize: 0x38 }
  - { offset: 0x56FD7, size: 0x8, addend: 0x0, symName: __ZN4pyo35impl_4wrap19map_result_into_ptr17hdc3e3a65225ca8e2E, symObjAddr: 0x0, symBinAddr: 0xAADC, symSize: 0x38 }
  - { offset: 0x5702B, size: 0x8, addend: 0x0, symName: '__ZN4pyo35impl_4wrap19map_result_into_ptr28_$u7b$$u7b$closure$u7d$$u7d$17h50a1678b6b730485E', symObjAddr: 0x38, symBinAddr: 0xAB14, symSize: 0x24 }
  - { offset: 0x57092, size: 0x8, addend: 0x0, symName: '__ZN56_$LT$T$u20$as$u20$pyo3..impl_..wrap..OkWrap$LT$T$GT$$GT$4wrap17ha1b98f83925394c8E', symObjAddr: 0x5C, symBinAddr: 0xAB38, symSize: 0xC }
  - { offset: 0x57752, size: 0x8, addend: 0x0, symName: __ZN4core5slice3raw14from_raw_parts17h4cf5822b03f73e75E, symObjAddr: 0x0, symBinAddr: 0xAB44, symSize: 0x58 }
  - { offset: 0x57F2F, size: 0x8, addend: 0x0, symName: __ZN4core5slice3raw14from_raw_parts17h4cf5822b03f73e75E, symObjAddr: 0x0, symBinAddr: 0xAB44, symSize: 0x58 }
  - { offset: 0x57F72, size: 0x8, addend: 0x0, symName: __ZN4core5slice3raw14from_raw_parts17hf64d9607c45c2184E, symObjAddr: 0x58, symBinAddr: 0xAB9C, symSize: 0x58 }
  - { offset: 0x5906A, size: 0x8, addend: 0x0, symName: '__ZN4core3str21_$LT$impl$u20$str$GT$4find17h050bf6cedb4e9bceE', symObjAddr: 0x0, symBinAddr: 0xABF4, symSize: 0xD4 }
  - { offset: 0x59193, size: 0x8, addend: 0x0, symName: '__ZN4core3str21_$LT$impl$u20$str$GT$4find17h050bf6cedb4e9bceE', symObjAddr: 0x0, symBinAddr: 0xABF4, symSize: 0xD4 }
  - { offset: 0x592F2, size: 0x8, addend: 0x0, symName: __ZN4core4sync6atomic12atomic_store17hc2a1159952287b99E, symObjAddr: 0x0, symBinAddr: 0xACC8, symSize: 0xFC }
  - { offset: 0x59338, size: 0x8, addend: 0x0, symName: __ZN4core4sync6atomic12atomic_store17hc2a1159952287b99E, symObjAddr: 0x0, symBinAddr: 0xACC8, symSize: 0xFC }
  - { offset: 0x593C5, size: 0x8, addend: 0x0, symName: '__ZN96_$LT$pyo3..pycell..impl_..BorrowChecker$u20$as$u20$pyo3..pycell..impl_..PyClassBorrowChecker$GT$3new17h50b130e542a983cbE', symObjAddr: 0x0, symBinAddr: 0xADC4, symSize: 0x18 }
  - { offset: 0x593E6, size: 0x8, addend: 0x0, symName: '__ZN96_$LT$pyo3..pycell..impl_..BorrowChecker$u20$as$u20$pyo3..pycell..impl_..PyClassBorrowChecker$GT$3new17h50b130e542a983cbE', symObjAddr: 0x0, symBinAddr: 0xADC4, symSize: 0x18 }
  - { offset: 0x5949E, size: 0x8, addend: 0x0, symName: __ZN9crossterm5style7stylize7Stylize4with17ha3eb3b8154f83081E, symObjAddr: 0x0, symBinAddr: 0xADDC, symSize: 0x90 }
  - { offset: 0x594BF, size: 0x8, addend: 0x0, symName: __ZN9crossterm5style7stylize7Stylize4with17ha3eb3b8154f83081E, symObjAddr: 0x0, symBinAddr: 0xADDC, symSize: 0x90 }
  - { offset: 0x59862, size: 0x8, addend: 0x0, symName: '__ZN13unicode_width6tables22is_emoji_modifier_base28_$u7b$$u7b$closure$u7d$$u7d$17h43edbc77e92fd93cE', symObjAddr: 0x0, symBinAddr: 0xAE6C, symSize: 0x88 }
  - { offset: 0x5989C, size: 0x8, addend: 0x0, symName: __ZN4core3cmp9PartialEq2ne17h91a1412e800a3bd3E, symObjAddr: 0x180, symBinAddr: 0xAFEC, symSize: 0x30 }
  - { offset: 0x59932, size: 0x8, addend: 0x0, symName: '__ZN13unicode_width6tables22is_emoji_modifier_base28_$u7b$$u7b$closure$u7d$$u7d$17h43edbc77e92fd93cE', symObjAddr: 0x0, symBinAddr: 0xAE6C, symSize: 0x88 }
  - { offset: 0x599A2, size: 0x8, addend: 0x0, symName: '__ZN13unicode_width6tables44starts_non_ideographic_text_presentation_seq28_$u7b$$u7b$closure$u7d$$u7d$17h3f78ccce14554bcdE', symObjAddr: 0x88, symBinAddr: 0xAEF4, symSize: 0x88 }
  - { offset: 0x59A12, size: 0x8, addend: 0x0, symName: '__ZN13unicode_width6tables9str_width28_$u7b$$u7b$closure$u7d$$u7d$17h754b2dd73a8e71d4E', symObjAddr: 0x110, symBinAddr: 0xAF7C, symSize: 0x70 }
  - { offset: 0x59B9A, size: 0x8, addend: 0x0, symName: '__ZN119_$LT$pyo3..instance..Bound$LT$pyo3..types..typeobject..PyType$GT$$u20$as$u20$pyo3..types..typeobject..PyTypeMethods$GT$11as_type_ptr17hd69df435ab36bcbbE', symObjAddr: 0x0, symBinAddr: 0xB01C, symSize: 0x24 }
  - { offset: 0x5AE84, size: 0x8, addend: 0x0, symName: '__ZN119_$LT$pyo3..instance..Bound$LT$pyo3..types..typeobject..PyType$GT$$u20$as$u20$pyo3..types..typeobject..PyTypeMethods$GT$11as_type_ptr17hd69df435ab36bcbbE', symObjAddr: 0x0, symBinAddr: 0xB01C, symSize: 0x24 }
  - { offset: 0x5B532, size: 0x8, addend: 0x0, symName: '__ZN4pyo38instance36Bound$LT$pyo3..types..any..PyAny$GT$14from_owned_ptr17h4d0d27850b54bb7dE', symObjAddr: 0x24, symBinAddr: 0xB040, symSize: 0x2C }
  - { offset: 0x5B57A, size: 0x8, addend: 0x0, symName: '__ZN4pyo38instance39Borrowed$LT$pyo3..types..any..PyAny$GT$15from_ptr_or_opt17h232cfe9efa220ac4E', symObjAddr: 0x50, symBinAddr: 0xB06C, symSize: 0x2C }
  - { offset: 0x5B5B8, size: 0x8, addend: 0x0, symName: '__ZN4pyo38instance39Borrowed$LT$pyo3..types..any..PyAny$GT$8from_ptr17h8926851dbe8a4c84E', symObjAddr: 0x7C, symBinAddr: 0xB098, symSize: 0x34 }
  - { offset: 0x5B621, size: 0x8, addend: 0x0, symName: '__ZN4core3str6traits108_$LT$impl$u20$core..slice..index..SliceIndex$LT$str$GT$$u20$for$u20$core..ops..range..Range$LT$usize$GT$$GT$13get_unchecked18precondition_check17hb23cb4bf1b780819E', symObjAddr: 0x0, symBinAddr: 0xB0CC, symSize: 0x80 }
  - { offset: 0x5B647, size: 0x8, addend: 0x0, symName: '__ZN4core3str6traits108_$LT$impl$u20$core..slice..index..SliceIndex$LT$str$GT$$u20$for$u20$core..ops..range..Range$LT$usize$GT$$GT$13get_unchecked18precondition_check17hb23cb4bf1b780819E', symObjAddr: 0x0, symBinAddr: 0xB0CC, symSize: 0x80 }
  - { offset: 0x5B6AF, size: 0x8, addend: 0x0, symName: '__ZN4core3str6traits54_$LT$impl$u20$core..cmp..PartialEq$u20$for$u20$str$GT$2eq17h9ba137c8ff5b9c30E', symObjAddr: 0x80, symBinAddr: 0xB14C, symSize: 0x4C }
  - { offset: 0x5B8A4, size: 0x8, addend: 0x0, symName: __ZN4core4char7methods25encode_utf8_raw_unchecked17h1e720ab0af1529e2E, symObjAddr: 0x0, symBinAddr: 0xB198, symSize: 0x188 }
  - { offset: 0x5B924, size: 0x8, addend: 0x0, symName: __ZN4core4char7methods25encode_utf8_raw_unchecked17h1e720ab0af1529e2E, symObjAddr: 0x0, symBinAddr: 0xB198, symSize: 0x188 }
  - { offset: 0x5BB11, size: 0x8, addend: 0x0, symName: '__ZN4pyo34sync20GILOnceCell$LT$T$GT$15get_or_try_init17hc3cb7d4d4778fc3cE', symObjAddr: 0x0, symBinAddr: 0xB320, symSize: 0xB4 }
  - { offset: 0x5D909, size: 0x8, addend: 0x0, symName: '__ZN4pyo34sync20GILOnceCell$LT$T$GT$15get_or_try_init17hc3cb7d4d4778fc3cE', symObjAddr: 0x0, symBinAddr: 0xB320, symSize: 0xB4 }
  - { offset: 0x5D982, size: 0x8, addend: 0x0, symName: '__ZN4pyo34sync20GILOnceCell$LT$T$GT$3get17hcbd5b2e487a57675E', symObjAddr: 0xB4, symBinAddr: 0xB3D4, symSize: 0x70 }
  - { offset: 0x5DA03, size: 0x8, addend: 0x0, symName: '__ZN4pyo34sync20GILOnceCell$LT$T$GT$3set17h20ca19c581406f82E', symObjAddr: 0x124, symBinAddr: 0xB444, symSize: 0x194 }
  - { offset: 0x5DAFC, size: 0x8, addend: 0x0, symName: '__ZN4pyo34sync20GILOnceCell$LT$T$GT$4init17h0bbcab8c0c6d379dE', symObjAddr: 0x2B8, symBinAddr: 0x88788, symSize: 0x190 }
  - { offset: 0x5DBFD, size: 0x8, addend: 0x0, symName: '__ZN5alloc3vec16Vec$LT$T$C$A$GT$7set_len18precondition_check17h9fd0cd8cbefd7eafE', symObjAddr: 0x0, symBinAddr: 0xB5D8, symSize: 0x60 }
  - { offset: 0x5DC1E, size: 0x8, addend: 0x0, symName: '__ZN5alloc3vec16Vec$LT$T$C$A$GT$7set_len18precondition_check17h9fd0cd8cbefd7eafE', symObjAddr: 0x0, symBinAddr: 0xB5D8, symSize: 0x60 }
  - { offset: 0x5DCC8, size: 0x8, addend: 0x0, symName: '__ZN4core3str6traits108_$LT$impl$u20$core..slice..index..SliceIndex$LT$str$GT$$u20$for$u20$core..ops..range..Range$LT$usize$GT$$GT$3get17h1ee912140bb5e8c1E', symObjAddr: 0x0, symBinAddr: 0xB638, symSize: 0x208 }
  - { offset: 0x5DDA3, size: 0x8, addend: 0x0, symName: '__ZN4core3str6traits108_$LT$impl$u20$core..slice..index..SliceIndex$LT$str$GT$$u20$for$u20$core..ops..range..Range$LT$usize$GT$$GT$3get17h1ee912140bb5e8c1E', symObjAddr: 0x0, symBinAddr: 0xB638, symSize: 0x208 }
  - { offset: 0x5DEEA, size: 0x8, addend: 0x0, symName: '__ZN4core3str6traits108_$LT$impl$u20$core..slice..index..SliceIndex$LT$str$GT$$u20$for$u20$core..ops..range..Range$LT$usize$GT$$GT$5index17h8c70923befc3c58cE', symObjAddr: 0x208, symBinAddr: 0xB840, symSize: 0x90 }
  - { offset: 0x5DFCD, size: 0x8, addend: 0x0, symName: '__ZN4core3str6traits112_$LT$impl$u20$core..slice..index..SliceIndex$LT$str$GT$$u20$for$u20$core..ops..range..RangeFrom$LT$usize$GT$$GT$3get17h21bb45773821f064E', symObjAddr: 0x298, symBinAddr: 0xB8D0, symSize: 0x150 }
  - { offset: 0x5E148, size: 0x8, addend: 0x0, symName: '__ZN4core3str6traits112_$LT$impl$u20$core..slice..index..SliceIndex$LT$str$GT$$u20$for$u20$core..ops..range..RangeFrom$LT$usize$GT$$GT$5index17h1d520da63d4fc1d3E', symObjAddr: 0x3E8, symBinAddr: 0xBA20, symSize: 0x88 }
  - { offset: 0x5E498, size: 0x8, addend: 0x0, symName: __ZN4pyo311type_object11get_tp_free17h034d5d9e04e379eaE, symObjAddr: 0x0, symBinAddr: 0xBAA8, symSize: 0xA0 }
  - { offset: 0x5F67A, size: 0x8, addend: 0x0, symName: __ZN4pyo311type_object11get_tp_free17h034d5d9e04e379eaE, symObjAddr: 0x0, symBinAddr: 0xBAA8, symSize: 0xA0 }
  - { offset: 0x5FB05, size: 0x8, addend: 0x0, symName: __ZN3std9panicking12catch_unwind7do_call17h37195e55027fc938E, symObjAddr: 0x0, symBinAddr: 0xBB48, symSize: 0x70 }
  - { offset: 0x61B24, size: 0x8, addend: 0x0, symName: __ZN3std9panicking12catch_unwind7do_call17h37195e55027fc938E, symObjAddr: 0x0, symBinAddr: 0xBB48, symSize: 0x70 }
  - { offset: 0x61C1E, size: 0x8, addend: 0x0, symName: __ZN3std9panicking12catch_unwind7do_call17h3b3f406a530e0fd9E, symObjAddr: 0x70, symBinAddr: 0xBBB8, symSize: 0x84 }
  - { offset: 0x61D19, size: 0x8, addend: 0x0, symName: __ZN3std9panicking12catch_unwind7do_call17h3e8f1b5e2599a57aE, symObjAddr: 0xF4, symBinAddr: 0xBC3C, symSize: 0x7C }
  - { offset: 0x61E13, size: 0x8, addend: 0x0, symName: __ZN3std9panicking12catch_unwind7do_call17hdc59ead6a72d5fc9E, symObjAddr: 0x170, symBinAddr: 0xBCB8, symSize: 0x7C }
  - { offset: 0x61F0D, size: 0x8, addend: 0x0, symName: __ZN3std9panicking12catch_unwind7do_call17he6bd4bf6c02b8b70E, symObjAddr: 0x1EC, symBinAddr: 0xBD34, symSize: 0x80 }
  - { offset: 0x62008, size: 0x8, addend: 0x0, symName: __ZN3std9panicking12catch_unwind8do_catch17h19537edfe9ff7b57E, symObjAddr: 0x26C, symBinAddr: 0xBDB4, symSize: 0x70 }
  - { offset: 0x6209D, size: 0x8, addend: 0x0, symName: __ZN3std9panicking12catch_unwind8do_catch17ha650f29fae013bf8E, symObjAddr: 0x2DC, symBinAddr: 0xBE24, symSize: 0x70 }
  - { offset: 0x62132, size: 0x8, addend: 0x0, symName: __ZN3std9panicking12catch_unwind8do_catch17he4589aa4215c998aE, symObjAddr: 0x34C, symBinAddr: 0xBE94, symSize: 0x70 }
  - { offset: 0x621C7, size: 0x8, addend: 0x0, symName: __ZN3std9panicking12catch_unwind8do_catch17hefef81fc2ea717c0E, symObjAddr: 0x3BC, symBinAddr: 0xBF04, symSize: 0x70 }
  - { offset: 0x6225C, size: 0x8, addend: 0x0, symName: __ZN3std9panicking12catch_unwind8do_catch17hf0567cf1596be75fE, symObjAddr: 0x42C, symBinAddr: 0xBF74, symSize: 0x70 }
  - { offset: 0x626F9, size: 0x8, addend: 0x0, symName: __ZN4core3ptr19copy_nonoverlapping18precondition_check17ha1ba886d2d698754E, symObjAddr: 0x0, symBinAddr: 0xBFE4, symSize: 0x168 }
  - { offset: 0x627E1, size: 0x8, addend: 0x0, symName: __ZN4core3ptr19copy_nonoverlapping18precondition_check17ha1ba886d2d698754E, symObjAddr: 0x0, symBinAddr: 0xBFE4, symSize: 0x168 }
  - { offset: 0x62A13, size: 0x8, addend: 0x0, symName: '__ZN54_$LT$str$u20$as$u20$unicode_width..UnicodeWidthStr$GT$5width17h448aa0f881f97688E', symObjAddr: 0x0, symBinAddr: 0xC14C, symSize: 0x28 }
  - { offset: 0x62A2A, size: 0x8, addend: 0x0, symName: '__ZN54_$LT$str$u20$as$u20$unicode_width..UnicodeWidthStr$GT$5width17h448aa0f881f97688E', symObjAddr: 0x0, symBinAddr: 0xC14C, symSize: 0x28 }
  - { offset: 0x62AAB, size: 0x8, addend: 0x0, symName: __ZN4core3ops8function6FnOnce9call_once17h0adf3b80b9cad60eE, symObjAddr: 0x0, symBinAddr: 0xC174, symSize: 0x24 }
  - { offset: 0x63387, size: 0x8, addend: 0x0, symName: __ZN4core3ops8function6FnOnce9call_once17h0adf3b80b9cad60eE, symObjAddr: 0x0, symBinAddr: 0xC174, symSize: 0x24 }
  - { offset: 0x633CB, size: 0x8, addend: 0x0, symName: __ZN4core3ops8function6FnOnce9call_once17h1cd4e074c0eaeb2eE, symObjAddr: 0x24, symBinAddr: 0xC198, symSize: 0x4C }
  - { offset: 0x6340F, size: 0x8, addend: 0x0, symName: __ZN4core3ops8function6FnOnce9call_once17h28b3b1b16b33f76bE, symObjAddr: 0x70, symBinAddr: 0xC1E4, symSize: 0x44 }
  - { offset: 0x63453, size: 0x8, addend: 0x0, symName: __ZN4core3ops8function6FnOnce9call_once17h6db16de0df8dde9bE, symObjAddr: 0xB4, symBinAddr: 0xC228, symSize: 0x24 }
  - { offset: 0x63497, size: 0x8, addend: 0x0, symName: __ZN4core3ops8function6FnOnce9call_once17h90aa6bf358f4e304E, symObjAddr: 0xFC, symBinAddr: 0xC24C, symSize: 0x24 }
  - { offset: 0x634DB, size: 0x8, addend: 0x0, symName: __ZN4core3ops8function6FnOnce9call_once17ha1e51211191a46f7E, symObjAddr: 0x120, symBinAddr: 0xC270, symSize: 0x4C }
  - { offset: 0x6351F, size: 0x8, addend: 0x0, symName: __ZN4core3ops8function6FnOnce9call_once17hc04a0550c6c29fa8E, symObjAddr: 0x16C, symBinAddr: 0xC2BC, symSize: 0x4C }
  - { offset: 0x63563, size: 0x8, addend: 0x0, symName: __ZN4core3ops8function6FnOnce9call_once17hc13dbf324e900e32E, symObjAddr: 0x1B8, symBinAddr: 0xC308, symSize: 0x3C }
  - { offset: 0x635AF, size: 0x8, addend: 0x0, symName: '__ZN4core3ptr103drop_in_place$LT$core..option..Option$LT$pyo3..pycell..PyRefMut$LT$vibe_loadbar_rs..LoadBar$GT$$GT$$GT$17h33a5c9b1022cf5fbE', symObjAddr: 0x218, symBinAddr: 0xC344, symSize: 0x44 }
  - { offset: 0x635DE, size: 0x8, addend: 0x0, symName: '__ZN4core3ptr106drop_in_place$LT$core..result..Result$LT$$BP$mut$u20$pyo3_ffi..object..PyObject$C$pyo3..err..PyErr$GT$$GT$17h1279e9911e289167E', symObjAddr: 0x280, symBinAddr: 0xC388, symSize: 0x40 }
  - { offset: 0x6360D, size: 0x8, addend: 0x0, symName: '__ZN4core3ptr108drop_in_place$LT$core..result..Result$LT$$LP$$RP$$C$alloc..borrow..Cow$LT$core..ffi..c_str..CStr$GT$$GT$$GT$17h204f7ef2bb9ab63aE', symObjAddr: 0x308, symBinAddr: 0xC3C8, symSize: 0x44 }
  - { offset: 0x6363C, size: 0x8, addend: 0x0, symName: '__ZN4core3ptr175drop_in_place$LT$std..sync..reentrant_lock..ReentrantLockGuard$LT$core..cell..RefCell$LT$std..io..buffered..linewriter..LineWriter$LT$std..io..stdio..StdoutRaw$GT$$GT$$GT$$GT$17he6e17c2e37446f3eE', symObjAddr: 0x3DC, symBinAddr: 0xC40C, symSize: 0x24 }
  - { offset: 0x6366B, size: 0x8, addend: 0x0, symName: '__ZN4core3ptr45drop_in_place$LT$vibe_loadbar_rs..LoadBar$GT$17h7ef36d56c693f690E', symObjAddr: 0x400, symBinAddr: 0xC430, symSize: 0xC0 }
  - { offset: 0x6369A, size: 0x8, addend: 0x0, symName: '__ZN4core3ptr47drop_in_place$LT$std..io..stdio..StdoutLock$GT$17h31db3d2bccf6dac1E', symObjAddr: 0x4C0, symBinAddr: 0xC4F0, symSize: 0x24 }
  - { offset: 0x636C9, size: 0x8, addend: 0x0, symName: '__ZN4core3ptr50drop_in_place$LT$vibe_loadbar_rs..TemplatePart$GT$17h1c8469b718ebc0eaE', symObjAddr: 0x4E4, symBinAddr: 0xC514, symSize: 0x54 }
  - { offset: 0x636F8, size: 0x8, addend: 0x0, symName: '__ZN4core3ptr60drop_in_place$LT$$u5b$vibe_loadbar_rs..TemplatePart$u5d$$GT$17h4c8ba5cb414364a2E', symObjAddr: 0x55C, symBinAddr: 0xC568, symSize: 0xC4 }
  - { offset: 0x63727, size: 0x8, addend: 0x0, symName: '__ZN4core3ptr68drop_in_place$LT$$LP$$RF$str$C$vibe_loadbar_rs..TemplatePart$RP$$GT$17h2f83ae97f7031507E', symObjAddr: 0x620, symBinAddr: 0xC62C, symSize: 0x24 }
  - { offset: 0x63756, size: 0x8, addend: 0x0, symName: '__ZN4core3ptr71drop_in_place$LT$pyo3..instance..Py$LT$vibe_loadbar_rs..LoadBar$GT$$GT$17h768017e9d8adbc1eE', symObjAddr: 0x644, symBinAddr: 0xC650, symSize: 0x24 }
  - { offset: 0x63785, size: 0x8, addend: 0x0, symName: '__ZN4core3ptr73drop_in_place$LT$alloc..vec..Vec$LT$vibe_loadbar_rs..TemplatePart$GT$$GT$17h04c6c29464bdcdcfE', symObjAddr: 0x668, symBinAddr: 0xC674, symSize: 0x5C }
  - { offset: 0x637B4, size: 0x8, addend: 0x0, symName: '__ZN4core3ptr74drop_in_place$LT$pyo3..instance..Bound$LT$vibe_loadbar_rs..LoadBar$GT$$GT$17h9ae3612697c42df2E', symObjAddr: 0x6C4, symBinAddr: 0xC6D0, symSize: 0x24 }
  - { offset: 0x637E3, size: 0x8, addend: 0x0, symName: '__ZN4core3ptr75drop_in_place$LT$core..cell..UnsafeCell$LT$vibe_loadbar_rs..LoadBar$GT$$GT$17heade7715e945843aE', symObjAddr: 0x6E8, symBinAddr: 0xC6F4, symSize: 0x24 }
  - { offset: 0x63812, size: 0x8, addend: 0x0, symName: '__ZN4core3ptr75drop_in_place$LT$pyo3..pycell..PyRefMut$LT$vibe_loadbar_rs..LoadBar$GT$$GT$17ha8565feac170c80dE', symObjAddr: 0x70C, symBinAddr: 0xC718, symSize: 0x5C }
  - { offset: 0x63841, size: 0x8, addend: 0x0, symName: '__ZN4core3ptr78drop_in_place$LT$core..option..Option$LT$vibe_loadbar_rs..TemplatePart$GT$$GT$17hfc4beaf5932b0939E', symObjAddr: 0x768, symBinAddr: 0xC774, symSize: 0x48 }
  - { offset: 0x63870, size: 0x8, addend: 0x0, symName: '__ZN4core3ptr80drop_in_place$LT$alloc..raw_vec..RawVec$LT$vibe_loadbar_rs..TemplatePart$GT$$GT$17h8bfecca2cfb08df1E', symObjAddr: 0x7B0, symBinAddr: 0xC7BC, symSize: 0x24 }
  - { offset: 0x6389F, size: 0x8, addend: 0x0, symName: '__ZN4core3ptr89drop_in_place$LT$$u5b$$LP$$RF$str$C$vibe_loadbar_rs..TemplatePart$RP$$u3b$$u20$7$u5d$$GT$17h690b9b157943c2f8E', symObjAddr: 0x834, symBinAddr: 0xC7E0, symSize: 0xB4 }
  - { offset: 0x638CE, size: 0x8, addend: 0x0, symName: '__ZN4core3ptr91drop_in_place$LT$pyo3..pyclass_init..PyClassInitializer$LT$vibe_loadbar_rs..LoadBar$GT$$GT$17h4ecd97fb5637103dE', symObjAddr: 0x8E8, symBinAddr: 0xC894, symSize: 0x24 }
  - { offset: 0x638FD, size: 0x8, addend: 0x0, symName: '__ZN4core3ptr95drop_in_place$LT$pyo3..pyclass_init..PyClassInitializerImpl$LT$vibe_loadbar_rs..LoadBar$GT$$GT$17h325c3a2272e2d977E', symObjAddr: 0x90C, symBinAddr: 0xC8B8, symSize: 0x58 }
  - { offset: 0x6392C, size: 0x8, addend: 0x0, symName: '__ZN4core3ptr97drop_in_place$LT$crossterm..style..styled_content..StyledContent$LT$alloc..string..String$GT$$GT$17h6641f2dc281a550fE', symObjAddr: 0x988, symBinAddr: 0xC910, symSize: 0x24 }
  - { offset: 0x64BC8, size: 0x8, addend: 0x0, symName: '__ZN69_$LT$pyo3..instance..Py$LT$T$GT$$u20$as$u20$core..ops..drop..Drop$GT$4drop17h0d223aed9a4af240E', symObjAddr: 0x9D0, symBinAddr: 0xC934, symSize: 0x28 }
  - { offset: 0x64C01, size: 0x8, addend: 0x0, symName: '__ZN72_$LT$pyo3..instance..Bound$LT$T$GT$$u20$as$u20$core..ops..drop..Drop$GT$4drop17h33a410f04565609fE', symObjAddr: 0xA30, symBinAddr: 0xC994, symSize: 0x1A0 }
  - { offset: 0x64D24, size: 0x8, addend: 0x0, symName: '__ZN73_$LT$pyo3..pycell..PyRefMut$LT$T$GT$$u20$as$u20$core..ops..drop..Drop$GT$4drop17hb108ade892728650E', symObjAddr: 0xBD0, symBinAddr: 0xCB34, symSize: 0x2C }
  - { offset: 0x65104, size: 0x8, addend: 0x0, symName: '__ZN77_$LT$alloc..raw_vec..RawVec$LT$T$C$A$GT$$u20$as$u20$core..ops..drop..Drop$GT$4drop17head8c739f305bc48E', symObjAddr: 0xBFC, symBinAddr: 0xCB60, symSize: 0x34 }
  - { offset: 0x65236, size: 0x8, addend: 0x0, symName: '__ZN70_$LT$alloc..vec..Vec$LT$T$C$A$GT$$u20$as$u20$core..ops..drop..Drop$GT$4drop17h2634cdeb62bde39eE', symObjAddr: 0x9F8, symBinAddr: 0xC95C, symSize: 0x38 }
  - { offset: 0x65B26, size: 0x8, addend: 0x0, symName: '__ZN96_$LT$std..sync..reentrant_lock..ReentrantLockGuard$LT$T$GT$$u20$as$u20$core..ops..drop..Drop$GT$4drop17h3d7f2375aaf94dd3E', symObjAddr: 0xC30, symBinAddr: 0xCB94, symSize: 0xA8 }
  - { offset: 0x6662E, size: 0x8, addend: 0x0, symName: '__ZN63_$LT$I$u20$as$u20$core..iter..traits..collect..IntoIterator$GT$9into_iter17hd849ec3c4c68d4f3E', symObjAddr: 0x0, symBinAddr: 0xCC3C, symSize: 0x18 }
  - { offset: 0x66E15, size: 0x8, addend: 0x0, symName: '__ZN63_$LT$I$u20$as$u20$core..iter..traits..collect..IntoIterator$GT$9into_iter17hd849ec3c4c68d4f3E', symObjAddr: 0x0, symBinAddr: 0xCC3C, symSize: 0x18 }
  - { offset: 0x67E88, size: 0x8, addend: 0x0, symName: '__ZN15vibe_loadbar_rs15vibe_loadbar_rs11__pyo3_init28_$u7b$$u7b$closure$u7d$$u7d$17h54715f5f1e9ce4c9E', symObjAddr: 0x0, symBinAddr: 0xCC54, symSize: 0x28 }
  - { offset: 0x69188, size: 0x8, addend: 0x0, symName: '__ZN15vibe_loadbar_rs15vibe_loadbar_rs11__pyo3_init28_$u7b$$u7b$closure$u7d$$u7d$17h54715f5f1e9ce4c9E', symObjAddr: 0x0, symBinAddr: 0xCC54, symSize: 0x28 }
  - { offset: 0x698AC, size: 0x8, addend: 0x0, symName: __ZN15vibe_loadbar_rs12str_to_color17h427e266bf64ea68eE, symObjAddr: 0x0, symBinAddr: 0xCC7C, symSize: 0x260 }
  - { offset: 0x698D5, size: 0x8, addend: 0x0, symName: '__ZN15vibe_loadbar_rs168_$LT$impl$u20$pyo3..impl_..pyclass..PyMethods$LT$vibe_loadbar_rs..LoadBar$GT$$u20$for$u20$pyo3..impl_..pyclass..PyClassImplCollector$LT$vibe_loadbar_rs..LoadBar$GT$$GT$10py_methods5ITEMS17h2c81ad2a01e7125cE', symObjAddr: 0x3380, symBinAddr: 0xD8C48, symSize: 0x0 }
  - { offset: 0x698E7, size: 0x8, addend: 0x0, symName: '__ZN15vibe_loadbar_rs168_$LT$impl$u20$pyo3..impl_..pyclass..PyMethods$LT$vibe_loadbar_rs..LoadBar$GT$$u20$for$u20$pyo3..impl_..pyclass..PyClassImplCollector$LT$vibe_loadbar_rs..LoadBar$GT$$GT$10py_methods5ITEMS10trampoline17h7e7f678a634220d5E', symObjAddr: 0x324, symBinAddr: 0xCFA0, symSize: 0x4C }
  - { offset: 0x6992F, size: 0x8, addend: 0x0, symName: '__ZN15vibe_loadbar_rs168_$LT$impl$u20$pyo3..impl_..pyclass..PyMethods$LT$vibe_loadbar_rs..LoadBar$GT$$u20$for$u20$pyo3..impl_..pyclass..PyClassImplCollector$LT$vibe_loadbar_rs..LoadBar$GT$$GT$10py_methods5ITEMS10trampoline17h84c3f8fff454a9ebE', symObjAddr: 0x370, symBinAddr: 0xCFEC, symSize: 0x50 }
  - { offset: 0x69985, size: 0x8, addend: 0x0, symName: '__ZN15vibe_loadbar_rs168_$LT$impl$u20$pyo3..impl_..pyclass..PyMethods$LT$vibe_loadbar_rs..LoadBar$GT$$u20$for$u20$pyo3..impl_..pyclass..PyClassImplCollector$LT$vibe_loadbar_rs..LoadBar$GT$$GT$10py_methods5ITEMS10trampoline17hada019430ac344ccE', symObjAddr: 0x3C0, symBinAddr: 0xD03C, symSize: 0x44 }
  - { offset: 0x699D9, size: 0x8, addend: 0x0, symName: '__ZN78_$LT$vibe_loadbar_rs..LoadBar$u20$as$u20$pyo3..impl_..pyclass..PyClassImpl$GT$10items_iter15INTRINSIC_ITEMS17hc943aee5c1b3887bE', symObjAddr: 0x3258, symBinAddr: 0x9ADA0, symSize: 0x0 }
  - { offset: 0x699F9, size: 0x8, addend: 0x0, symName: '__ZN78_$LT$vibe_loadbar_rs..LoadBar$u20$as$u20$pyo3..impl_..pyclass..PyClassImpl$GT$16lazy_type_object11TYPE_OBJECT17hf227980bdc305b6eE', symObjAddr: 0x3718, symBinAddr: 0xE04F8, symSize: 0x0 }
  - { offset: 0x69A19, size: 0x8, addend: 0x0, symName: '__ZN78_$LT$vibe_loadbar_rs..LoadBar$u20$as$u20$pyo3..impl_..pyclass..PyClassImpl$GT$3doc3DOC17h5bd38715810cfdffE', symObjAddr: 0x3760, symBinAddr: 0xE0540, symSize: 0x0 }
  - { offset: 0x69A27, size: 0x8, addend: 0x0, symName: '__ZN78_$LT$vibe_loadbar_rs..LoadBar$u20$as$u20$pyo3..impl_..pyclass..PyClassImpl$GT$10items_iter17h65f442c43695eaa7E', symObjAddr: 0x2EBC, symBinAddr: 0xFB38, symSize: 0x38 }
  - { offset: 0x69A62, size: 0x8, addend: 0x0, symName: '__ZN78_$LT$vibe_loadbar_rs..LoadBar$u20$as$u20$pyo3..impl_..pyclass..PyClassImpl$GT$16lazy_type_object17h007be12b14e5cbedE', symObjAddr: 0x2EF4, symBinAddr: 0xFB70, symSize: 0xC }
  - { offset: 0x69A7F, size: 0x8, addend: 0x0, symName: '__ZN78_$LT$vibe_loadbar_rs..LoadBar$u20$as$u20$pyo3..impl_..pyclass..PyClassImpl$GT$3doc17he2e495738b6229a3E', symObjAddr: 0x2F00, symBinAddr: 0xFB7C, symSize: 0x3C }
  - { offset: 0x69D61, size: 0x8, addend: 0x0, symName: __ZN15vibe_loadbar_rs12str_to_color17h427e266bf64ea68eE, symObjAddr: 0x0, symBinAddr: 0xCC7C, symSize: 0x260 }
  - { offset: 0x69D8F, size: 0x8, addend: 0x0, symName: __ZN15vibe_loadbar_rs15vibe_loadbar_rs17h599548b33ab3a0acE, symObjAddr: 0x260, symBinAddr: 0xCEDC, symSize: 0xC4 }
  - { offset: 0x69E22, size: 0x8, addend: 0x0, symName: '__ZN15vibe_loadbar_rs59_$LT$impl$u20$vibe_loadbar_rs..vibe_loadbar_rs..MakeDef$GT$8make_def15__pyo3_pymodule17hdeb97a6d1b8191d5E', symObjAddr: 0x404, symBinAddr: 0xD080, symSize: 0x38 }
  - { offset: 0x69E57, size: 0x8, addend: 0x0, symName: '__ZN68_$LT$vibe_loadbar_rs..TemplatePart$u20$as$u20$core..clone..Clone$GT$5clone17h41c914430170a9d8E', symObjAddr: 0x2D38, symBinAddr: 0xF9B4, symSize: 0x160 }
  - { offset: 0x69EA6, size: 0x8, addend: 0x0, symName: '__ZN74_$LT$vibe_loadbar_rs..LoadBar$u20$as$u20$pyo3..type_object..PyTypeInfo$GT$15type_object_raw17ha4a9f7ecab92356aE', symObjAddr: 0x2E98, symBinAddr: 0xFB14, symSize: 0x24 }
  - { offset: 0x6D620, size: 0x8, addend: 0x0, symName: __ZN15vibe_loadbar_rs7LoadBar19__pymethod_finish__17hc196b3e863b926b6E, symObjAddr: 0x43C, symBinAddr: 0xD0B8, symSize: 0x1A8 }
  - { offset: 0x6D6F1, size: 0x8, addend: 0x0, symName: __ZN15vibe_loadbar_rs7LoadBar19__pymethod_update__17hca03fa65634db19aE, symObjAddr: 0x5E4, symBinAddr: 0xD260, symSize: 0x320 }
  - { offset: 0x6D87C, size: 0x8, addend: 0x0, symName: __ZN15vibe_loadbar_rs7LoadBar20__pymethod___new____17h8a406b5acadf3c37E, symObjAddr: 0x904, symBinAddr: 0xD580, symSize: 0x98C }
  - { offset: 0x6DC23, size: 0x8, addend: 0x0, symName: __ZN15vibe_loadbar_rs7LoadBar6finish17hd0f52a04bfc3239cE, symObjAddr: 0x1290, symBinAddr: 0xDF0C, symSize: 0x4C }
  - { offset: 0x6DC7F, size: 0x8, addend: 0x0, symName: __ZN15vibe_loadbar_rs7LoadBar6py_new17hb14f3cc5b3e51623E, symObjAddr: 0x12DC, symBinAddr: 0xDF58, symSize: 0xA40 }
  - { offset: 0x6DE78, size: 0x8, addend: 0x0, symName: __ZN15vibe_loadbar_rs7LoadBar6update17hc8791eb42c7892f3E, symObjAddr: 0x1D1C, symBinAddr: 0xE998, symSize: 0x101C }
  - { offset: 0x6E78A, size: 0x8, addend: 0x0, symName: __ZN5alloc3fmt6format17h25242c38299d2a3eE, symObjAddr: 0x0, symBinAddr: 0xFBB8, symSize: 0xD8 }
  - { offset: 0x6ECA2, size: 0x8, addend: 0x0, symName: __ZN5alloc3fmt6format17h25242c38299d2a3eE, symObjAddr: 0x0, symBinAddr: 0xFBB8, symSize: 0xD8 }
  - { offset: 0x6EE52, size: 0x8, addend: 0x0, symName: '__ZN153_$LT$core..result..Result$LT$T$C$F$GT$$u20$as$u20$core..ops..try_trait..FromResidual$LT$core..result..Result$LT$core..convert..Infallible$C$E$GT$$GT$$GT$13from_residual17h12015ccf98a2ba01E', symObjAddr: 0x0, symBinAddr: 0xFC90, symSize: 0x48 }
  - { offset: 0x701DC, size: 0x8, addend: 0x0, symName: '__ZN153_$LT$core..result..Result$LT$T$C$F$GT$$u20$as$u20$core..ops..try_trait..FromResidual$LT$core..result..Result$LT$core..convert..Infallible$C$E$GT$$GT$$GT$13from_residual17h12015ccf98a2ba01E', symObjAddr: 0x0, symBinAddr: 0xFC90, symSize: 0x48 }
  - { offset: 0x70261, size: 0x8, addend: 0x0, symName: '__ZN153_$LT$core..result..Result$LT$T$C$F$GT$$u20$as$u20$core..ops..try_trait..FromResidual$LT$core..result..Result$LT$core..convert..Infallible$C$E$GT$$GT$$GT$13from_residual17h127926cdc78f7b97E', symObjAddr: 0x48, symBinAddr: 0xFCD8, symSize: 0x48 }
  - { offset: 0x702E6, size: 0x8, addend: 0x0, symName: '__ZN153_$LT$core..result..Result$LT$T$C$F$GT$$u20$as$u20$core..ops..try_trait..FromResidual$LT$core..result..Result$LT$core..convert..Infallible$C$E$GT$$GT$$GT$13from_residual17h9105e7d7d9430182E', symObjAddr: 0x90, symBinAddr: 0xFD20, symSize: 0x48 }
  - { offset: 0x7036B, size: 0x8, addend: 0x0, symName: '__ZN153_$LT$core..result..Result$LT$T$C$F$GT$$u20$as$u20$core..ops..try_trait..FromResidual$LT$core..result..Result$LT$core..convert..Infallible$C$E$GT$$GT$$GT$13from_residual17ha20453a83f8a2631E', symObjAddr: 0xD8, symBinAddr: 0xFD68, symSize: 0x58 }
  - { offset: 0x703D3, size: 0x8, addend: 0x0, symName: '__ZN153_$LT$core..result..Result$LT$T$C$F$GT$$u20$as$u20$core..ops..try_trait..FromResidual$LT$core..result..Result$LT$core..convert..Infallible$C$E$GT$$GT$$GT$13from_residual17he1f250341eefd19bE', symObjAddr: 0x130, symBinAddr: 0xFDC0, symSize: 0x48 }
  - { offset: 0x70458, size: 0x8, addend: 0x0, symName: '__ZN153_$LT$core..result..Result$LT$T$C$F$GT$$u20$as$u20$core..ops..try_trait..FromResidual$LT$core..result..Result$LT$core..convert..Infallible$C$E$GT$$GT$$GT$13from_residual17he246195fc8f7c5ecE', symObjAddr: 0x178, symBinAddr: 0xFE08, symSize: 0x48 }
  - { offset: 0x711F2, size: 0x8, addend: 0x0, symName: '__ZN79_$LT$core..result..Result$LT$T$C$E$GT$$u20$as$u20$core..ops..try_trait..Try$GT$6branch17h012a2276fe95631bE', symObjAddr: 0xA40, symBinAddr: 0x106D0, symSize: 0x80 }
  - { offset: 0x71270, size: 0x8, addend: 0x0, symName: '__ZN79_$LT$core..result..Result$LT$T$C$E$GT$$u20$as$u20$core..ops..try_trait..Try$GT$6branch17h206cdcfa2dea8539E', symObjAddr: 0xAC0, symBinAddr: 0x10750, symSize: 0xC4 }
  - { offset: 0x712EE, size: 0x8, addend: 0x0, symName: '__ZN79_$LT$core..result..Result$LT$T$C$E$GT$$u20$as$u20$core..ops..try_trait..Try$GT$6branch17h47bfcb98781d7e9eE', symObjAddr: 0xB84, symBinAddr: 0x10814, symSize: 0x70 }
  - { offset: 0x7136C, size: 0x8, addend: 0x0, symName: '__ZN79_$LT$core..result..Result$LT$T$C$E$GT$$u20$as$u20$core..ops..try_trait..Try$GT$6branch17h5b9ca12cfc8e3592E', symObjAddr: 0xBF4, symBinAddr: 0x10884, symSize: 0x80 }
  - { offset: 0x713EA, size: 0x8, addend: 0x0, symName: '__ZN79_$LT$core..result..Result$LT$T$C$E$GT$$u20$as$u20$core..ops..try_trait..Try$GT$6branch17h6812392813912ac3E', symObjAddr: 0xC74, symBinAddr: 0x10904, symSize: 0x80 }
  - { offset: 0x71468, size: 0x8, addend: 0x0, symName: '__ZN79_$LT$core..result..Result$LT$T$C$E$GT$$u20$as$u20$core..ops..try_trait..Try$GT$6branch17h94b2ad15b6551cdaE', symObjAddr: 0xCF4, symBinAddr: 0x10984, symSize: 0x88 }
  - { offset: 0x714E6, size: 0x8, addend: 0x0, symName: '__ZN79_$LT$core..result..Result$LT$T$C$E$GT$$u20$as$u20$core..ops..try_trait..Try$GT$6branch17h9c6c6d3941e2267cE', symObjAddr: 0xD7C, symBinAddr: 0x10A0C, symSize: 0x80 }
  - { offset: 0x729DC, size: 0x8, addend: 0x0, symName: '__ZN4core6result19Result$LT$T$C$E$GT$14unwrap_or_else17h49fcc7a95162af31E', symObjAddr: 0x1C0, symBinAddr: 0xFE50, symSize: 0x74 }
  - { offset: 0x72A9A, size: 0x8, addend: 0x0, symName: '__ZN4core6result19Result$LT$T$C$E$GT$14unwrap_or_else17h6d15b2d2c597abd5E', symObjAddr: 0x234, symBinAddr: 0xFEC4, symSize: 0x7C }
  - { offset: 0x731E0, size: 0x8, addend: 0x0, symName: '__ZN4core6result19Result$LT$T$C$E$GT$3map17h3c36f856b4b2dceeE', symObjAddr: 0x2B0, symBinAddr: 0xFF40, symSize: 0x80 }
  - { offset: 0x732DD, size: 0x8, addend: 0x0, symName: '__ZN4core6result19Result$LT$T$C$E$GT$3map17h63646f12489eda3bE', symObjAddr: 0x330, symBinAddr: 0xFFC0, symSize: 0x84 }
  - { offset: 0x73370, size: 0x8, addend: 0x0, symName: '__ZN4core6result19Result$LT$T$C$E$GT$3map17h8bf735d7c10481e5E', symObjAddr: 0x3B4, symBinAddr: 0x10044, symSize: 0x80 }
  - { offset: 0x73403, size: 0x8, addend: 0x0, symName: '__ZN4core6result19Result$LT$T$C$E$GT$3map17he0ca2ee04f88af96E', symObjAddr: 0x434, symBinAddr: 0x100C4, symSize: 0x80 }
  - { offset: 0x734A3, size: 0x8, addend: 0x0, symName: '__ZN4core6result19Result$LT$T$C$E$GT$3map17hfd6439ac9f04bb14E', symObjAddr: 0x4B4, symBinAddr: 0x10144, symSize: 0x4C }
  - { offset: 0x73567, size: 0x8, addend: 0x0, symName: '__ZN4core6result19Result$LT$T$C$E$GT$6is_err17h7159cadbf9050081E', symObjAddr: 0x500, symBinAddr: 0x10190, symSize: 0x20 }
  - { offset: 0x735BA, size: 0x8, addend: 0x0, symName: '__ZN4core6result19Result$LT$T$C$E$GT$7map_err17h01437face38f7220E', symObjAddr: 0x520, symBinAddr: 0x101B0, symSize: 0x48 }
  - { offset: 0x7364C, size: 0x8, addend: 0x0, symName: '__ZN4core6result19Result$LT$T$C$E$GT$7map_err17h0c79c7856864dcd7E', symObjAddr: 0x568, symBinAddr: 0x101F8, symSize: 0x48 }
  - { offset: 0x736DE, size: 0x8, addend: 0x0, symName: '__ZN4core6result19Result$LT$T$C$E$GT$7map_err17h0fafb622199fa529E', symObjAddr: 0x5B0, symBinAddr: 0x10240, symSize: 0x48 }
  - { offset: 0x73770, size: 0x8, addend: 0x0, symName: '__ZN4core6result19Result$LT$T$C$E$GT$7map_err17h100428cbb3e73c3bE', symObjAddr: 0x5F8, symBinAddr: 0x10288, symSize: 0x48 }
  - { offset: 0x7381A, size: 0x8, addend: 0x0, symName: '__ZN4core6result19Result$LT$T$C$E$GT$7map_err17h2f8d22bb6594bf9bE', symObjAddr: 0x640, symBinAddr: 0x102D0, symSize: 0x20 }
  - { offset: 0x7388E, size: 0x8, addend: 0x0, symName: '__ZN4core6result19Result$LT$T$C$E$GT$7map_err17h3c80b26726180c5dE', symObjAddr: 0x660, symBinAddr: 0x102F0, symSize: 0x48 }
  - { offset: 0x73938, size: 0x8, addend: 0x0, symName: '__ZN4core6result19Result$LT$T$C$E$GT$7map_err17h47685f987058e051E', symObjAddr: 0x6A8, symBinAddr: 0x10338, symSize: 0x78 }
  - { offset: 0x739CA, size: 0x8, addend: 0x0, symName: '__ZN4core6result19Result$LT$T$C$E$GT$7map_err17h5a0c680329461a7fE', symObjAddr: 0x720, symBinAddr: 0x103B0, symSize: 0x48 }
  - { offset: 0x73A5C, size: 0x8, addend: 0x0, symName: '__ZN4core6result19Result$LT$T$C$E$GT$7map_err17h6492f207b144c474E', symObjAddr: 0x768, symBinAddr: 0x103F8, symSize: 0x48 }
  - { offset: 0x73AEE, size: 0x8, addend: 0x0, symName: '__ZN4core6result19Result$LT$T$C$E$GT$7map_err17h7a1f5adb321f3007E', symObjAddr: 0x7B0, symBinAddr: 0x10440, symSize: 0x48 }
  - { offset: 0x73B80, size: 0x8, addend: 0x0, symName: '__ZN4core6result19Result$LT$T$C$E$GT$7map_err17h7c405d2e49918e74E', symObjAddr: 0x7F8, symBinAddr: 0x10488, symSize: 0x48 }
  - { offset: 0x73C12, size: 0x8, addend: 0x0, symName: '__ZN4core6result19Result$LT$T$C$E$GT$7map_err17ha8f0f53c2b8f6da0E', symObjAddr: 0x840, symBinAddr: 0x104D0, symSize: 0x48 }
  - { offset: 0x73CA4, size: 0x8, addend: 0x0, symName: '__ZN4core6result19Result$LT$T$C$E$GT$7map_err17hb2e3f2177ee91425E', symObjAddr: 0x888, symBinAddr: 0x10518, symSize: 0x48 }
  - { offset: 0x73D36, size: 0x8, addend: 0x0, symName: '__ZN4core6result19Result$LT$T$C$E$GT$7map_err17hbaca459788f968ceE', symObjAddr: 0x8D0, symBinAddr: 0x10560, symSize: 0x48 }
  - { offset: 0x73DC8, size: 0x8, addend: 0x0, symName: '__ZN4core6result19Result$LT$T$C$E$GT$7map_err17hbe671b45107f0dceE', symObjAddr: 0x918, symBinAddr: 0x105A8, symSize: 0x48 }
  - { offset: 0x73E5A, size: 0x8, addend: 0x0, symName: '__ZN4core6result19Result$LT$T$C$E$GT$7map_err17hd8b5c763b7d1dd2fE', symObjAddr: 0x960, symBinAddr: 0x105F0, symSize: 0x48 }
  - { offset: 0x73F80, size: 0x8, addend: 0x0, symName: '__ZN4core6result19Result$LT$T$C$E$GT$9unwrap_or17hd398ed09d1a9bbd2E', symObjAddr: 0x9A8, symBinAddr: 0x10638, symSize: 0x98 }
  - { offset: 0x7401B, size: 0x8, addend: 0x0, symName: '__ZN4core3str6traits66_$LT$impl$u20$core..ops..index..Index$LT$I$GT$$u20$for$u20$str$GT$5index17hf6deb9def4ded502E', symObjAddr: 0x0, symBinAddr: 0x10A8C, symSize: 0x48 }
  - { offset: 0x7403C, size: 0x8, addend: 0x0, symName: '__ZN4core3str6traits66_$LT$impl$u20$core..ops..index..Index$LT$I$GT$$u20$for$u20$str$GT$5index17hf6deb9def4ded502E', symObjAddr: 0x0, symBinAddr: 0x10A8C, symSize: 0x48 }
  - { offset: 0x7410C, size: 0x8, addend: 0x0, symName: __ZN4core4char7convert18from_u32_unchecked18precondition_check17hedc947f2ac1664ecE, symObjAddr: 0x0, symBinAddr: 0x10AD4, symSize: 0x7C }
  - { offset: 0x74197, size: 0x8, addend: 0x0, symName: __ZN4core4char7convert18from_u32_unchecked18precondition_check17hedc947f2ac1664ecE, symObjAddr: 0x0, symBinAddr: 0x10AD4, symSize: 0x7C }
  - { offset: 0x7430B, size: 0x8, addend: 0x0, symName: '__ZN3std4sync14reentrant_lock3Tid3set28_$u7b$$u7b$closure$u7d$$u7d$17hcf78e8102a218710E', symObjAddr: 0x0, symBinAddr: 0x10B50, symSize: 0x10 }
  - { offset: 0x74331, size: 0x8, addend: 0x0, symName: '__ZN3std4sync14reentrant_lock3Tid3set28_$u7b$$u7b$closure$u7d$$u7d$17hcf78e8102a218710E', symObjAddr: 0x0, symBinAddr: 0x10B50, symSize: 0x10 }
  - { offset: 0x74404, size: 0x8, addend: 0x0, symName: __ZN4pyo33gil7GILPool3new17h1dfd489ada8924c8E, symObjAddr: 0x0, symBinAddr: 0x10B60, symSize: 0x3C }
  - { offset: 0x74621, size: 0x8, addend: 0x0, symName: __ZN4pyo33gil7GILPool3new17h1dfd489ada8924c8E, symObjAddr: 0x0, symBinAddr: 0x10B60, symSize: 0x3C }
  - { offset: 0x74657, size: 0x8, addend: 0x0, symName: __ZN4pyo33gil7GILPool6python17hb6e14bfba6ff88a6E, symObjAddr: 0x3C, symBinAddr: 0x10B9C, symSize: 0x20 }
  - { offset: 0x74698, size: 0x8, addend: 0x0, symName: __ZN4pyo35impl_5panic9PanicTrap3new17h8903e56c9a73cc1bE, symObjAddr: 0x0, symBinAddr: 0x10BBC, symSize: 0x18 }
  - { offset: 0x74727, size: 0x8, addend: 0x0, symName: __ZN4pyo35impl_5panic9PanicTrap3new17h8903e56c9a73cc1bE, symObjAddr: 0x0, symBinAddr: 0x10BBC, symSize: 0x18 }
  - { offset: 0x74749, size: 0x8, addend: 0x0, symName: __ZN4pyo35impl_5panic9PanicTrap6disarm17h3c5df0fa976244daE, symObjAddr: 0x18, symBinAddr: 0x10BD4, symSize: 0x28 }
  - { offset: 0x74789, size: 0x8, addend: 0x0, symName: __ZN13unicode_width6tables12lookup_width17hd8e523bd2d926e43E, symObjAddr: 0x0, symBinAddr: 0x10C10, symSize: 0x49C }
  - { offset: 0x747AF, size: 0x8, addend: 0x0, symName: __ZN13unicode_width6tables10WIDTH_ROOT17h852706bbec3ef205E, symObjAddr: 0x1300, symBinAddr: 0x9AF00, symSize: 0x0 }
  - { offset: 0x747EA, size: 0x8, addend: 0x0, symName: __ZN13unicode_width6tables12WIDTH_LEAVES17h904a6c07e777ef2dE, symObjAddr: 0x1400, symBinAddr: 0x9B000, symSize: 0x0 }
  - { offset: 0x74824, size: 0x8, addend: 0x0, symName: __ZN13unicode_width6tables12WIDTH_MIDDLE17h46585c3881ff254dE, symObjAddr: 0x2A80, symBinAddr: 0x9C680, symSize: 0x0 }
  - { offset: 0x7485E, size: 0x8, addend: 0x0, symName: __ZN13unicode_width6tables21EMOJI_MODIFIER_LEAF_017ha97232b2c06224a2E, symObjAddr: 0x35A4, symBinAddr: 0x9CC24, symSize: 0x0 }
  - { offset: 0x74879, size: 0x8, addend: 0x0, symName: __ZN13unicode_width6tables21EMOJI_MODIFIER_LEAF_117h8fabf9f3fa1322c9E, symObjAddr: 0x35A8, symBinAddr: 0x9CC28, symSize: 0x0 }
  - { offset: 0x74894, size: 0x8, addend: 0x0, symName: __ZN13unicode_width6tables21EMOJI_MODIFIER_LEAF_217h85187b81dcf43451E, symObjAddr: 0x35AA, symBinAddr: 0x9CC2A, symSize: 0x0 }
  - { offset: 0x748AF, size: 0x8, addend: 0x0, symName: __ZN13unicode_width6tables21EMOJI_MODIFIER_LEAF_317h405ce62d92406ccaE, symObjAddr: 0x35B2, symBinAddr: 0x9CC32, symSize: 0x0 }
  - { offset: 0x748CA, size: 0x8, addend: 0x0, symName: __ZN13unicode_width6tables21EMOJI_MODIFIER_LEAF_417h551e2adab6b39a9dE, symObjAddr: 0x35C4, symBinAddr: 0x9CC44, symSize: 0x0 }
  - { offset: 0x748E5, size: 0x8, addend: 0x0, symName: __ZN13unicode_width6tables21EMOJI_MODIFIER_LEAF_517hcd1e8727fdd5adfdE, symObjAddr: 0x35CC, symBinAddr: 0x9CC4C, symSize: 0x0 }
  - { offset: 0x74900, size: 0x8, addend: 0x0, symName: __ZN13unicode_width6tables21EMOJI_MODIFIER_LEAF_617he84569aa149fda98E, symObjAddr: 0x35D8, symBinAddr: 0x9CC58, symSize: 0x0 }
  - { offset: 0x7491B, size: 0x8, addend: 0x0, symName: __ZN13unicode_width6tables21EMOJI_MODIFIER_LEAF_717hd676800b549c9215E, symObjAddr: 0x35F0, symBinAddr: 0x9CC70, symSize: 0x0 }
  - { offset: 0x74936, size: 0x8, addend: 0x0, symName: __ZN13unicode_width6tables24TEXT_PRESENTATION_LEAF_017h79996b8e80f927a9E, symObjAddr: 0x35F4, symBinAddr: 0x9CC74, symSize: 0x0 }
  - { offset: 0x74951, size: 0x8, addend: 0x0, symName: __ZN13unicode_width6tables24TEXT_PRESENTATION_LEAF_117h46bb74f5b462ff7eE, symObjAddr: 0x35FC, symBinAddr: 0x9CC7C, symSize: 0x0 }
  - { offset: 0x7496C, size: 0x8, addend: 0x0, symName: __ZN13unicode_width6tables24TEXT_PRESENTATION_LEAF_217h20fa2a3d1c7fbca9E, symObjAddr: 0x35FE, symBinAddr: 0x9CC7E, symSize: 0x0 }
  - { offset: 0x74987, size: 0x8, addend: 0x0, symName: __ZN13unicode_width6tables24TEXT_PRESENTATION_LEAF_317h0eb77218dbcf04c8E, symObjAddr: 0x361C, symBinAddr: 0x9CC9C, symSize: 0x0 }
  - { offset: 0x749A2, size: 0x8, addend: 0x0, symName: __ZN13unicode_width6tables24TEXT_PRESENTATION_LEAF_417h6946b52421b5a908E, symObjAddr: 0x3630, symBinAddr: 0x9CCB0, symSize: 0x0 }
  - { offset: 0x749BD, size: 0x8, addend: 0x0, symName: __ZN13unicode_width6tables24TEXT_PRESENTATION_LEAF_517h9be856d81ecaadfcE, symObjAddr: 0x3636, symBinAddr: 0x9CCB6, symSize: 0x0 }
  - { offset: 0x749D8, size: 0x8, addend: 0x0, symName: __ZN13unicode_width6tables24TEXT_PRESENTATION_LEAF_617h2364e83c2824ab28E, symObjAddr: 0x3638, symBinAddr: 0x9CCB8, symSize: 0x0 }
  - { offset: 0x749F3, size: 0x8, addend: 0x0, symName: __ZN13unicode_width6tables24TEXT_PRESENTATION_LEAF_717h9835698325ebe8c0E, symObjAddr: 0x3652, symBinAddr: 0x9CCD2, symSize: 0x0 }
  - { offset: 0x74A0E, size: 0x8, addend: 0x0, symName: __ZN13unicode_width6tables24TEXT_PRESENTATION_LEAF_817ha47fee86e128fceeE, symObjAddr: 0x367E, symBinAddr: 0x9CCFE, symSize: 0x0 }
  - { offset: 0x74A29, size: 0x8, addend: 0x0, symName: __ZN13unicode_width6tables24TEXT_PRESENTATION_LEAF_917h5701a993e8b1fda7E, symObjAddr: 0x3686, symBinAddr: 0x9CD06, symSize: 0x0 }
  - { offset: 0x74A45, size: 0x8, addend: 0x0, symName: __ZN13unicode_width6tables25EMOJI_PRESENTATION_LEAVES17h27a89832da39a08eE, symObjAddr: 0x3700, symBinAddr: 0x9CD80, symSize: 0x0 }
  - { offset: 0x74A80, size: 0x8, addend: 0x0, symName: __ZN13unicode_width6tables27NON_TRANSPARENT_ZERO_WIDTHS17hf4adc2cdfd98d5e2E, symObjAddr: 0x3A80, symBinAddr: 0x9D100, symSize: 0x0 }
  - { offset: 0x74A8D, size: 0x8, addend: 0x0, symName: __ZN13unicode_width6tables12lookup_width17hd8e523bd2d926e43E, symObjAddr: 0x0, symBinAddr: 0x10C10, symSize: 0x49C }
  - { offset: 0x74B22, size: 0x8, addend: 0x0, symName: __ZN13unicode_width6tables23is_ligature_transparent17h78b32d04343bc86dE, symObjAddr: 0x63C, symBinAddr: 0x110AC, symSize: 0x120 }
  - { offset: 0x74B50, size: 0x8, addend: 0x0, symName: __ZN13unicode_width6tables25is_transparent_zero_width17h690c670f207ab2caE, symObjAddr: 0x75C, symBinAddr: 0x111CC, symSize: 0x88 }
  - { offset: 0x74BA1, size: 0x8, addend: 0x0, symName: '__ZN13unicode_width6tables25is_transparent_zero_width28_$u7b$$u7b$closure$u7d$$u7d$17h3efca81553849659E', symObjAddr: 0x7E4, symBinAddr: 0x11254, symSize: 0x114 }
  - { offset: 0x74EF3, size: 0x8, addend: 0x0, symName: '__ZN4core3num21_$LT$impl$u20$u32$GT$13from_le_bytes17ha86822cf6477654cE', symObjAddr: 0xB08, symBinAddr: 0x114F0, symSize: 0x1C }
  - { offset: 0x74FF9, size: 0x8, addend: 0x0, symName: '__ZN4core4char7convert65_$LT$impl$u20$core..convert..From$LT$char$GT$$u20$for$u20$u32$GT$4from17h120e6e9678a45c84E', symObjAddr: 0xB48, symBinAddr: 0x1150C, symSize: 0x10 }
  - { offset: 0x75032, size: 0x8, addend: 0x0, symName: __ZN4core4hint16assert_unchecked18precondition_check17ha49eccf8bb187d61E, symObjAddr: 0xB58, symBinAddr: 0x1151C, symSize: 0x58 }
  - { offset: 0x751A1, size: 0x8, addend: 0x0, symName: '__ZN75_$LT$usize$u20$as$u20$core..slice..index..SliceIndex$LT$$u5b$T$u5d$$GT$$GT$13get_unchecked18precondition_check17h1c6de00423aa53abE', symObjAddr: 0x1228, symBinAddr: 0x118C0, symSize: 0x60 }
  - { offset: 0x75238, size: 0x8, addend: 0x0, symName: '__ZN4core5slice29_$LT$impl$u20$$u5b$T$u5d$$GT$16binary_search_by17ha42893bf2e8153c9E', symObjAddr: 0xEBC, symBinAddr: 0x11574, symSize: 0x30C }
  - { offset: 0x7581F, size: 0x8, addend: 0x0, symName: '__ZN50_$LT$T$u20$as$u20$core..convert..Into$LT$U$GT$$GT$4into17h2bed2e49a2fad16eE', symObjAddr: 0x1208, symBinAddr: 0x118A0, symSize: 0x20 }
  - { offset: 0x75870, size: 0x8, addend: 0x0, symName: __ZN13unicode_width6tables9WidthInfo11set_zwj_bit17hd71b2ca7334a5a28E, symObjAddr: 0x8F8, symBinAddr: 0x11368, symSize: 0x14 }
  - { offset: 0x75899, size: 0x8, addend: 0x0, symName: __ZN13unicode_width6tables9WidthInfo20is_text_presentation17h21fe7d9ec63c5a67E, symObjAddr: 0x90C, symBinAddr: 0x1137C, symSize: 0x1C }
  - { offset: 0x758BB, size: 0x8, addend: 0x0, symName: __ZN13unicode_width6tables9WidthInfo21is_emoji_presentation17h4fe43c93c4abd38aE, symObjAddr: 0x928, symBinAddr: 0x11398, symSize: 0x20 }
  - { offset: 0x758DD, size: 0x8, addend: 0x0, symName: __ZN13unicode_width6tables9WidthInfo21set_text_presentation17h2b90fdf0062071faE, symObjAddr: 0x948, symBinAddr: 0x113B8, symSize: 0x44 }
  - { offset: 0x758FF, size: 0x8, addend: 0x0, symName: __ZN13unicode_width6tables9WidthInfo22set_emoji_presentation17hf99bd2dd7cb19e84E, symObjAddr: 0x98C, symBinAddr: 0x113FC, symSize: 0x60 }
  - { offset: 0x75921, size: 0x8, addend: 0x0, symName: __ZN13unicode_width6tables9WidthInfo23is_ligature_transparent17hd278f9b7a68e6c4dE, symObjAddr: 0x9EC, symBinAddr: 0x1145C, symSize: 0x1C }
  - { offset: 0x75943, size: 0x8, addend: 0x0, symName: __ZN13unicode_width6tables9WidthInfo23unset_text_presentation17h360a0c136f693d25E, symObjAddr: 0xA08, symBinAddr: 0x11478, symSize: 0x14 }
  - { offset: 0x75965, size: 0x8, addend: 0x0, symName: __ZN13unicode_width6tables9WidthInfo24unset_emoji_presentation17hf34def88020daf5cE, symObjAddr: 0xA1C, symBinAddr: 0x1148C, symSize: 0x40 }
  - { offset: 0x75987, size: 0x8, addend: 0x0, symName: __ZN13unicode_width6tables9WidthInfo25is_zwj_emoji_presentation17h95f8bb990c456a17E, symObjAddr: 0xA5C, symBinAddr: 0x114CC, symSize: 0x24 }
  - { offset: 0x75B1F, size: 0x8, addend: 0x0, symName: '__ZN4core6result19Result$LT$T$C$E$GT$6is_err17h6c7a9dcea77bd6a2E', symObjAddr: 0x11E8, symBinAddr: 0x11880, symSize: 0x20 }
  - { offset: 0x75D7C, size: 0x8, addend: 0x0, symName: '__ZN84_$LT$core..str..pattern..MatchOnly$u20$as$u20$core..str..pattern..TwoWayStrategy$GT$16use_early_reject17hf966640039cc3f59E', symObjAddr: 0x1950, symBinAddr: 0x12300, symSize: 0xC }
  - { offset: 0x75D9A, size: 0x8, addend: 0x0, symName: '__ZN84_$LT$core..str..pattern..MatchOnly$u20$as$u20$core..str..pattern..TwoWayStrategy$GT$8matching17hcfb193c927c7fcd1E', symObjAddr: 0x195C, symBinAddr: 0x1230C, symSize: 0x28 }
  - { offset: 0x75DD7, size: 0x8, addend: 0x0, symName: '__ZN84_$LT$core..str..pattern..MatchOnly$u20$as$u20$core..str..pattern..TwoWayStrategy$GT$9rejecting17h96b4dcd57b8b1cf6E', symObjAddr: 0x1984, symBinAddr: 0x12334, symSize: 0x18 }
  - { offset: 0x75E1A, size: 0x8, addend: 0x0, symName: '__ZN89_$LT$core..str..pattern..RejectAndMatch$u20$as$u20$core..str..pattern..TwoWayStrategy$GT$16use_early_reject17hd1085c0773d284c0E', symObjAddr: 0x199C, symBinAddr: 0x1234C, symSize: 0xC }
  - { offset: 0x75E38, size: 0x8, addend: 0x0, symName: '__ZN89_$LT$core..str..pattern..RejectAndMatch$u20$as$u20$core..str..pattern..TwoWayStrategy$GT$8matching17h35ebc8845288374eE', symObjAddr: 0x19A8, symBinAddr: 0x12358, symSize: 0x20 }
  - { offset: 0x75E75, size: 0x8, addend: 0x0, symName: '__ZN89_$LT$core..str..pattern..RejectAndMatch$u20$as$u20$core..str..pattern..TwoWayStrategy$GT$9rejecting17ha78a72bc6c13207aE', symObjAddr: 0x19C8, symBinAddr: 0x12378, symSize: 0x28 }
  - { offset: 0x766C7, size: 0x8, addend: 0x0, symName: __ZN4core3str7pattern14TwoWaySearcher4next17h4884a8eb6ca54e50E, symObjAddr: 0x1D8, symBinAddr: 0x11920, symSize: 0x4F0 }
  - { offset: 0x769F7, size: 0x8, addend: 0x0, symName: __ZN4core3str7pattern14TwoWaySearcher4next17h6cd3d3aef685ceefE, symObjAddr: 0x6C8, symBinAddr: 0x11E10, symSize: 0x4F0 }
  - { offset: 0x77210, size: 0x8, addend: 0x0, symName: __ZN4core3ptr9alignment9Alignment13new_unchecked18precondition_check17h09416ce3388074caE, symObjAddr: 0x6C8, symBinAddr: 0x12494, symSize: 0x70 }
  - { offset: 0x782D3, size: 0x8, addend: 0x0, symName: '__ZN50_$LT$T$u20$as$u20$core..convert..Into$LT$U$GT$$GT$4into17h2032568b8e06d600E', symObjAddr: 0x19D8, symBinAddr: 0x12714, symSize: 0x14 }
  - { offset: 0x78313, size: 0x8, addend: 0x0, symName: '__ZN50_$LT$T$u20$as$u20$core..convert..Into$LT$U$GT$$GT$4into17h4570ef0cf152e1ceE', symObjAddr: 0x19EC, symBinAddr: 0x12728, symSize: 0x1C }
  - { offset: 0x78359, size: 0x8, addend: 0x0, symName: '__ZN55_$LT$$RF$T$u20$as$u20$core..convert..AsRef$LT$U$GT$$GT$6as_ref17h4126692af86fb896E', symObjAddr: 0x1D08, symBinAddr: 0x12744, symSize: 0x30 }
  - { offset: 0x78399, size: 0x8, addend: 0x0, symName: '__ZN55_$LT$$RF$T$u20$as$u20$core..convert..AsRef$LT$U$GT$$GT$6as_ref17hf2a4e4b5f51ecd72E', symObjAddr: 0x1D38, symBinAddr: 0x12774, symSize: 0x30 }
  - { offset: 0x7933B, size: 0x8, addend: 0x0, symName: __ZN3std2io5error5Error13last_os_error17hed1c04ef553c49dfE, symObjAddr: 0x314, symBinAddr: 0x123A0, symSize: 0x70 }
  - { offset: 0x79604, size: 0x8, addend: 0x0, symName: '__ZN72_$LT$alloc..boxed..Box$LT$T$C$A$GT$$u20$as$u20$core..ops..drop..Drop$GT$4drop17h52b379649fb017b0E', symObjAddr: 0x2714, symBinAddr: 0x12814, symSize: 0xBC }
  - { offset: 0x7973D, size: 0x8, addend: 0x0, symName: '__ZN72_$LT$alloc..boxed..Box$LT$T$C$A$GT$$u20$as$u20$core..ops..drop..Drop$GT$4drop17h5ea4531f074bbe45E', symObjAddr: 0x2894, symBinAddr: 0x128D0, symSize: 0xBC }
  - { offset: 0x79876, size: 0x8, addend: 0x0, symName: '__ZN72_$LT$alloc..boxed..Box$LT$T$C$A$GT$$u20$as$u20$core..ops..drop..Drop$GT$4drop17hdd9ccb27ee2942e0E', symObjAddr: 0x2950, symBinAddr: 0x1298C, symSize: 0xC4 }
  - { offset: 0x799C0, size: 0x8, addend: 0x0, symName: '__ZN68_$LT$alloc..ffi..c_str..CString$u20$as$u20$core..ops..drop..Drop$GT$4drop17h9d7f7e3a84c42aafE', symObjAddr: 0x23BC, symBinAddr: 0x127A4, symSize: 0x70 }
  - { offset: 0x79A8D, size: 0x8, addend: 0x0, symName: __ZN4core3fmt2rt8Argument11new_display17hd5f94ffe21895cefE, symObjAddr: 0x52C, symBinAddr: 0x12410, symSize: 0x2C }
  - { offset: 0x79AB8, size: 0x8, addend: 0x0, symName: __ZN4core3fmt2rt8Argument11new_display17he66927fb41d4e760E, symObjAddr: 0x558, symBinAddr: 0x1243C, symSize: 0x2C }
  - { offset: 0x79AF0, size: 0x8, addend: 0x0, symName: __ZN4core3fmt2rt8Argument11new_display17he92fb6aecb7c1948E, symObjAddr: 0x584, symBinAddr: 0x12468, symSize: 0x2C }
  - { offset: 0x79D30, size: 0x8, addend: 0x0, symName: '__ZN4core6result19Result$LT$T$C$E$GT$2ok17he080126141396e03E', symObjAddr: 0x950, symBinAddr: 0x12504, symSize: 0xA8 }
  - { offset: 0x79D84, size: 0x8, addend: 0x0, symName: '__ZN4core6result19Result$LT$T$C$E$GT$3map17h5cbf45faf91a3346E', symObjAddr: 0xA60, symBinAddr: 0x125AC, symSize: 0x7C }
  - { offset: 0x79E24, size: 0x8, addend: 0x0, symName: '__ZN4core6result19Result$LT$T$C$E$GT$5is_ok17ha089a35ad4d15620E', symObjAddr: 0xD74, symBinAddr: 0x12628, symSize: 0x28 }
  - { offset: 0x79E59, size: 0x8, addend: 0x0, symName: '__ZN4core6result19Result$LT$T$C$E$GT$9unwrap_or17hae23c3f88bea45faE', symObjAddr: 0x1914, symBinAddr: 0x12650, symSize: 0xC4 }
  - { offset: 0x7A2B9, size: 0x8, addend: 0x0, symName: __ZN9crossterm5style5types9attribute3SGR17hc6e2b1535deb9448E, symObjAddr: 0x71D0, symBinAddr: 0xD91B0, symSize: 0x0 }
  - { offset: 0x7A67A, size: 0x8, addend: 0x0, symName: '__ZN75_$LT$crossterm..style..SetForegroundColor$u20$as$u20$core..fmt..Display$GT$3fmt17hb341b736718815a1E', symObjAddr: 0x1DB8, symBinAddr: 0x12BD8, symSize: 0x38 }
  - { offset: 0x7A6BA, size: 0x8, addend: 0x0, symName: '__ZN76_$LT$crossterm..style..ResetColor$u20$as$u20$crossterm..command..Command$GT$10write_ansi17h14789a85c7447babE', symObjAddr: 0x1E98, symBinAddr: 0x12C10, symSize: 0x40 }
  - { offset: 0x7A706, size: 0x8, addend: 0x0, symName: '__ZN78_$LT$crossterm..style..SetAttribute$u20$as$u20$crossterm..command..Command$GT$10write_ansi17h3f50cddc68dc13b6E', symObjAddr: 0x214C, symBinAddr: 0x12CB4, symSize: 0xC0 }
  - { offset: 0x7A787, size: 0x8, addend: 0x0, symName: '__ZN79_$LT$crossterm..style..SetAttributes$u20$as$u20$crossterm..command..Command$GT$10write_ansi17h0d307ebef2b00b56E', symObjAddr: 0x220C, symBinAddr: 0x12D74, symSize: 0x134 }
  - { offset: 0x7A860, size: 0x8, addend: 0x0, symName: '__ZN83_$LT$crossterm..style..SetUnderlineColor$u20$as$u20$crossterm..command..Command$GT$10write_ansi17h66538118fc614618E', symObjAddr: 0x23D8, symBinAddr: 0x12EA8, symSize: 0x84 }
  - { offset: 0x7A8E3, size: 0x8, addend: 0x0, symName: '__ZN84_$LT$crossterm..style..SetBackgroundColor$u20$as$u20$crossterm..command..Command$GT$10write_ansi17h0e6b053b1cd68de9E', symObjAddr: 0x2560, symBinAddr: 0x12F2C, symSize: 0x84 }
  - { offset: 0x7A966, size: 0x8, addend: 0x0, symName: '__ZN84_$LT$crossterm..style..SetForegroundColor$u20$as$u20$crossterm..command..Command$GT$10write_ansi17h4f1f0cbf945f873aE', symObjAddr: 0x25E4, symBinAddr: 0x12FB0, symSize: 0x80 }
  - { offset: 0x7AA60, size: 0x8, addend: 0x0, symName: '__ZN53_$LT$$RF$T$u20$as$u20$crossterm..command..Command$GT$10write_ansi17hd167ce2965349436E', symObjAddr: 0x1258, symBinAddr: 0x12BA8, symSize: 0x30 }
  - { offset: 0x7AEE7, size: 0x8, addend: 0x0, symName: '__ZN4core3num7nonzero16NonZero$LT$T$GT$13new_unchecked18precondition_check17h0f652b97310a8857E', symObjAddr: 0xB64, symBinAddr: 0x12B44, symSize: 0x3C }
  - { offset: 0x7AF86, size: 0x8, addend: 0x0, symName: '__ZN4core5slice29_$LT$impl$u20$$u5b$T$u5d$$GT$4iter17hcb310c56055c43bbE', symObjAddr: 0x1050, symBinAddr: 0x12B80, symSize: 0x28 }
  - { offset: 0x7B178, size: 0x8, addend: 0x0, symName: __ZN4core3cmp3Ord3max17he7515756928d510fE, symObjAddr: 0xA88, symBinAddr: 0x12AD0, symSize: 0x74 }
  - { offset: 0x7B448, size: 0x8, addend: 0x0, symName: '__ZN77_$LT$alloc..raw_vec..RawVec$LT$T$C$A$GT$$u20$as$u20$core..ops..drop..Drop$GT$4drop17h7bd28b284e20489fE', symObjAddr: 0x1F0C, symBinAddr: 0x12C50, symSize: 0x34 }
  - { offset: 0x7B484, size: 0x8, addend: 0x0, symName: '__ZN77_$LT$alloc..raw_vec..RawVec$LT$T$C$A$GT$$u20$as$u20$core..ops..drop..Drop$GT$4drop17h8aaac63d79fc47bfE', symObjAddr: 0x1F40, symBinAddr: 0x12C84, symSize: 0x30 }
  - { offset: 0x7B5BF, size: 0x8, addend: 0x0, symName: __ZN3std3env3var17hc57cc10a70dd3d4cE, symObjAddr: 0x7C8, symBinAddr: 0x12A50, symSize: 0x68 }
  - { offset: 0x7B659, size: 0x8, addend: 0x0, symName: '__ZN3std3ffi6os_str85_$LT$impl$u20$core..convert..AsRef$LT$std..ffi..os_str..OsStr$GT$$u20$for$u20$str$GT$6as_ref17hf06b74ca7fa3b10bE', symObjAddr: 0x830, symBinAddr: 0x12AB8, symSize: 0x18 }
  - { offset: 0x7B7CA, size: 0x8, addend: 0x0, symName: __ZN9crossterm5style5types9attribute9Attribute3sgr17hb5e29645d01f45c3E, symObjAddr: 0x6214, symBinAddr: 0x13030, symSize: 0x1D8 }
  - { offset: 0x7B7EC, size: 0x8, addend: 0x0, symName: __ZN9crossterm5style5types9attribute9Attribute8iterator17h122c2a22f405863dE, symObjAddr: 0x63EC, symBinAddr: 0x13208, symSize: 0x28 }
  - { offset: 0x7C152, size: 0x8, addend: 0x0, symName: '__ZN9crossterm8terminal3sys4unix108_$LT$impl$u20$core..convert..From$LT$libc..unix..winsize$GT$$u20$for$u20$crossterm..terminal..WindowSize$GT$4from17hef5990b3a57383d5E', symObjAddr: 0x5870, symBinAddr: 0x14C38, symSize: 0x3C }
  - { offset: 0x7C1A8, size: 0x8, addend: 0x0, symName: __ZN9crossterm8terminal4size17hcdbc5e613af28863E, symObjAddr: 0x58AC, symBinAddr: 0x14C74, symSize: 0x14 }
  - { offset: 0x7C49D, size: 0x8, addend: 0x0, symName: __ZN9crossterm7command11execute_fmt17h1f2800a5003e0b9aE, symObjAddr: 0x4EA4, symBinAddr: 0x14A04, symSize: 0x50 }
  - { offset: 0x7C4EC, size: 0x8, addend: 0x0, symName: __ZN9crossterm7command11execute_fmt17h2d297e218efded90E, symObjAddr: 0x4EF4, symBinAddr: 0x14A54, symSize: 0x5C }
  - { offset: 0x7C53B, size: 0x8, addend: 0x0, symName: __ZN9crossterm7command11execute_fmt17h35d0c8eff8ee417dE, symObjAddr: 0x4F50, symBinAddr: 0x14AB0, symSize: 0x64 }
  - { offset: 0x7C58A, size: 0x8, addend: 0x0, symName: __ZN9crossterm7command11execute_fmt17h5f5e334fc0865112E, symObjAddr: 0x5124, symBinAddr: 0x14B14, symSize: 0x64 }
  - { offset: 0x7C5D9, size: 0x8, addend: 0x0, symName: __ZN9crossterm7command11execute_fmt17ha33357b5f9f4d7dbE, symObjAddr: 0x53B0, symBinAddr: 0x14B78, symSize: 0x5C }
  - { offset: 0x7C628, size: 0x8, addend: 0x0, symName: __ZN9crossterm7command11execute_fmt17hf25ab9edefaf6acfE, symObjAddr: 0x56EC, symBinAddr: 0x14BD4, symSize: 0x64 }
  - { offset: 0x7D0C0, size: 0x8, addend: 0x0, symName: '__ZN4core3ptr104drop_in_place$LT$core..result..Result$LT$crossterm..terminal..WindowSize$C$std..io..error..Error$GT$$GT$17had72b0f18f5319edE', symObjAddr: 0xA40, symBinAddr: 0x1362C, symSize: 0x40 }
  - { offset: 0x7D0EF, size: 0x8, addend: 0x0, symName: '__ZN4core3ptr124drop_in_place$LT$core..result..Result$LT$crossterm..terminal..sys..file_descriptor..FileDesc$C$std..io..error..Error$GT$$GT$17ha246ab8251f3c347E', symObjAddr: 0xB30, symBinAddr: 0x1366C, symSize: 0x50 }
  - { offset: 0x7D11E, size: 0x8, addend: 0x0, symName: '__ZN4core3ptr152drop_in_place$LT$alloc..collections..btree..map..BTreeMap$LT$std..ffi..os_str..OsString$C$core..option..Option$LT$std..ffi..os_str..OsString$GT$$GT$$GT$17h7bb46363734e860dE', symObjAddr: 0xD50, symBinAddr: 0x136BC, symSize: 0x24 }
  - { offset: 0x7D14D, size: 0x8, addend: 0x0, symName: '__ZN4core3ptr152drop_in_place$LT$alloc..collections..btree..map..IntoIter$LT$std..ffi..os_str..OsString$C$core..option..Option$LT$std..ffi..os_str..OsString$GT$$GT$$GT$17h19eca4bd43c1768cE', symObjAddr: 0xD74, symBinAddr: 0x136E0, symSize: 0x24 }
  - { offset: 0x7D17C, size: 0x8, addend: 0x0, symName: '__ZN4core3ptr156drop_in_place$LT$$LT$alloc..vec..into_iter..IntoIter$LT$T$C$A$GT$$u20$as$u20$core..ops..drop..Drop$GT$..drop..DropGuard$LT$u8$C$alloc..alloc..Global$GT$$GT$17h5bbc1fb5021a4558E', symObjAddr: 0xD98, symBinAddr: 0x13704, symSize: 0x24 }
  - { offset: 0x7D1AB, size: 0x8, addend: 0x0, symName: '__ZN4core3ptr228drop_in_place$LT$alloc..boxed..Box$LT$dyn$u20$core..ops..function..FnMut$LT$$LP$$RP$$GT$$u2b$Output$u20$$u3d$$u20$core..result..Result$LT$$LP$$RP$$C$std..io..error..Error$GT$$u2b$core..marker..Sync$u2b$core..marker..Send$GT$$GT$17h7b82b4c09c66e108E', symObjAddr: 0xFC8, symBinAddr: 0x13728, symSize: 0x80 }
  - { offset: 0x7D1DA, size: 0x8, addend: 0x0, symName: '__ZN4core3ptr238drop_in_place$LT$$u5b$alloc..boxed..Box$LT$dyn$u20$core..ops..function..FnMut$LT$$LP$$RP$$GT$$u2b$Output$u20$$u3d$$u20$core..result..Result$LT$$LP$$RP$$C$std..io..error..Error$GT$$u2b$core..marker..Sync$u2b$core..marker..Send$GT$$u5d$$GT$17hd54c4412174366eeE', symObjAddr: 0x1048, symBinAddr: 0x137A8, symSize: 0xB4 }
  - { offset: 0x7D209, size: 0x8, addend: 0x0, symName: '__ZN4core3ptr250drop_in_place$LT$$LT$alloc..collections..btree..map..IntoIter$LT$K$C$V$C$A$GT$$u20$as$u20$core..ops..drop..Drop$GT$..drop..DropGuard$LT$std..ffi..os_str..OsString$C$core..option..Option$LT$std..ffi..os_str..OsString$GT$$C$alloc..alloc..Global$GT$$GT$17h4e4fe8c190dce6edE', symObjAddr: 0x10FC, symBinAddr: 0x1385C, symSize: 0x24 }
  - { offset: 0x7D238, size: 0x8, addend: 0x0, symName: '__ZN4core3ptr251drop_in_place$LT$alloc..vec..Vec$LT$alloc..boxed..Box$LT$dyn$u20$core..ops..function..FnMut$LT$$LP$$RP$$GT$$u2b$Output$u20$$u3d$$u20$core..result..Result$LT$$LP$$RP$$C$std..io..error..Error$GT$$u2b$core..marker..Sync$u2b$core..marker..Send$GT$$GT$$GT$17h8a613c850c8fc2cdE', symObjAddr: 0x1120, symBinAddr: 0x13880, symSize: 0x5C }
  - { offset: 0x7D267, size: 0x8, addend: 0x0, symName: '__ZN4core3ptr258drop_in_place$LT$alloc..raw_vec..RawVec$LT$alloc..boxed..Box$LT$dyn$u20$core..ops..function..FnMut$LT$$LP$$RP$$GT$$u2b$Output$u20$$u3d$$u20$core..result..Result$LT$$LP$$RP$$C$std..io..error..Error$GT$$u2b$core..marker..Sync$u2b$core..marker..Send$GT$$GT$$GT$17h8a0cff8da00112d0E', symObjAddr: 0x11A0, symBinAddr: 0x138DC, symSize: 0x24 }
  - { offset: 0x7D296, size: 0x8, addend: 0x0, symName: '__ZN4core3ptr312drop_in_place$LT$alloc..collections..btree..node..Handle$LT$alloc..collections..btree..node..NodeRef$LT$alloc..collections..btree..node..marker..Dying$C$K$C$V$C$NodeType$GT$$C$alloc..collections..btree..node..marker..KV$GT$..drop_key_val..Dropper$LT$core..option..Option$LT$std..ffi..os_str..OsString$GT$$GT$$GT$17h167927b3dbd01360E', symObjAddr: 0x11C4, symBinAddr: 0x13900, symSize: 0x24 }
  - { offset: 0x7D2C5, size: 0x8, addend: 0x0, symName: '__ZN4core3ptr39drop_in_place$LT$std..env..VarError$GT$17hfae0cae222d58de5E', symObjAddr: 0x120C, symBinAddr: 0x13924, symSize: 0x48 }
  - { offset: 0x7D2F4, size: 0x8, addend: 0x0, symName: '__ZN4core3ptr41drop_in_place$LT$std..process..Output$GT$17h48fac3782c07355dE', symObjAddr: 0x12B0, symBinAddr: 0x1396C, symSize: 0x60 }
  - { offset: 0x7D323, size: 0x8, addend: 0x0, symName: '__ZN4core3ptr42drop_in_place$LT$alloc..string..String$GT$17h026024db8793c8c7E', symObjAddr: 0x1310, symBinAddr: 0x139CC, symSize: 0x24 }
  - { offset: 0x7D352, size: 0x8, addend: 0x0, symName: '__ZN4core3ptr42drop_in_place$LT$std..process..Command$GT$17hf57e23761b330f04E', symObjAddr: 0x1334, symBinAddr: 0x139F0, symSize: 0x24 }
  - { offset: 0x7D381, size: 0x8, addend: 0x0, symName: '__ZN4core3ptr46drop_in_place$LT$alloc..vec..Vec$LT$u8$GT$$GT$17h3f32593468497942E', symObjAddr: 0x13B0, symBinAddr: 0x13A14, symSize: 0x5C }
  - { offset: 0x7D3B0, size: 0x8, addend: 0x0, symName: '__ZN4core3ptr47drop_in_place$LT$alloc..ffi..c_str..CString$GT$17h2c7489c5e4935c1cE', symObjAddr: 0x140C, symBinAddr: 0x13A70, symSize: 0x5C }
  - { offset: 0x7D3DF, size: 0x8, addend: 0x0, symName: '__ZN4core3ptr47drop_in_place$LT$std..ffi..os_str..OsString$GT$17h7d31aaa1fd3412aaE', symObjAddr: 0x148C, symBinAddr: 0x13ACC, symSize: 0x24 }
  - { offset: 0x7D40E, size: 0x8, addend: 0x0, symName: '__ZN4core3ptr49drop_in_place$LT$std..sys..os_str..bytes..Buf$GT$17h9297fda7bda07bc3E', symObjAddr: 0x14B0, symBinAddr: 0x13AF0, symSize: 0x24 }
  - { offset: 0x7D43D, size: 0x8, addend: 0x0, symName: '__ZN4core3ptr53drop_in_place$LT$alloc..raw_vec..RawVec$LT$u8$GT$$GT$17ha38541a313946990E', symObjAddr: 0x1578, symBinAddr: 0x13B14, symSize: 0x24 }
  - { offset: 0x7D46C, size: 0x8, addend: 0x0, symName: '__ZN4core3ptr55drop_in_place$LT$std..sys..process..env..CommandEnv$GT$17h2c98ed90ac2741c9E', symObjAddr: 0x15C0, symBinAddr: 0x13B38, symSize: 0x24 }
  - { offset: 0x7D49B, size: 0x8, addend: 0x0, symName: '__ZN4core3ptr58drop_in_place$LT$alloc..boxed..Box$LT$$u5b$u8$u5d$$GT$$GT$17hf2cddacfd8f628aeE', symObjAddr: 0x15E4, symBinAddr: 0x13B5C, symSize: 0x2C }
  - { offset: 0x7D4CA, size: 0x8, addend: 0x0, symName: '__ZN4core3ptr59drop_in_place$LT$alloc..boxed..Box$LT$$u5b$u32$u5d$$GT$$GT$17hbf8ceae3a351026fE', symObjAddr: 0x1610, symBinAddr: 0x13B88, symSize: 0x2C }
  - { offset: 0x7D4F9, size: 0x8, addend: 0x0, symName: '__ZN4core3ptr59drop_in_place$LT$std..sys..process..unix..common..Stdio$GT$17h69fa8e2165cdb0c8E', symObjAddr: 0x16CC, symBinAddr: 0x13BB4, symSize: 0x44 }
  - { offset: 0x7D528, size: 0x8, addend: 0x0, symName: '__ZN4core3ptr60drop_in_place$LT$alloc..vec..Vec$LT$$BP$const$u20$i8$GT$$GT$17h46397db92ddfe017E', symObjAddr: 0x1710, symBinAddr: 0x13BF8, symSize: 0x5C }
  - { offset: 0x7D557, size: 0x8, addend: 0x0, symName: '__ZN4core3ptr61drop_in_place$LT$std..sys..process..unix..common..Command$GT$17h78c415904420d3a9E', symObjAddr: 0x1790, symBinAddr: 0x13C54, symSize: 0x1DC }
  - { offset: 0x7D586, size: 0x8, addend: 0x0, symName: '__ZN4core3ptr62drop_in_place$LT$alloc..vec..into_iter..IntoIter$LT$u8$GT$$GT$17ha3b490512a322257E', symObjAddr: 0x1A30, symBinAddr: 0x13E30, symSize: 0x24 }
  - { offset: 0x7D5B5, size: 0x8, addend: 0x0, symName: '__ZN4core3ptr67drop_in_place$LT$alloc..raw_vec..RawVec$LT$$BP$const$u20$i8$GT$$GT$17hc1721640b5d4ad2dE', symObjAddr: 0x1BE8, symBinAddr: 0x13E54, symSize: 0x24 }
  - { offset: 0x7D5E4, size: 0x8, addend: 0x0, symName: '__ZN4core3ptr72drop_in_place$LT$alloc..collections..btree..mem..replace..PanicGuard$GT$17h53f703ec7c27f7a0E', symObjAddr: 0x1C30, symBinAddr: 0x13E78, symSize: 0x24 }
  - { offset: 0x7D613, size: 0x8, addend: 0x0, symName: '__ZN4core3ptr72drop_in_place$LT$crossterm..terminal..sys..file_descriptor..FileDesc$GT$17hd3a9f70ea744835eE', symObjAddr: 0x1C54, symBinAddr: 0x13E9C, symSize: 0x24 }
  - { offset: 0x7D642, size: 0x8, addend: 0x0, symName: '__ZN4core3ptr75drop_in_place$LT$core..option..Option$LT$alloc..ffi..c_str..CString$GT$$GT$17h61b99fcf97be0343E', symObjAddr: 0x1DC0, symBinAddr: 0x13EC0, symSize: 0x44 }
  - { offset: 0x7D671, size: 0x8, addend: 0x0, symName: '__ZN4core3ptr75drop_in_place$LT$core..option..Option$LT$std..ffi..os_str..OsString$GT$$GT$17h8210129e9d23d6cbE', symObjAddr: 0x1E04, symBinAddr: 0x13F04, symSize: 0x48 }
  - { offset: 0x7D6A0, size: 0x8, addend: 0x0, symName: '__ZN4core3ptr81drop_in_place$LT$std..sys..process..unix..common..cstring_array..CStringArray$GT$17h1677e3005316559bE', symObjAddr: 0x2028, symBinAddr: 0x13F4C, symSize: 0x5C }
  - { offset: 0x7D6CF, size: 0x8, addend: 0x0, symName: '__ZN4core3ptr87drop_in_place$LT$core..option..Option$LT$alloc..boxed..Box$LT$$u5b$u32$u5d$$GT$$GT$$GT$17h7caf48dbcf3e7093E', symObjAddr: 0x20F0, symBinAddr: 0x13FA8, symSize: 0x44 }
  - { offset: 0x7D6FE, size: 0x8, addend: 0x0, symName: '__ZN4core3ptr87drop_in_place$LT$core..option..Option$LT$std..sys..process..unix..common..Stdio$GT$$GT$17h0a87b3b8e22fc095E', symObjAddr: 0x2134, symBinAddr: 0x13FEC, symSize: 0x44 }
  - { offset: 0x7D72D, size: 0x8, addend: 0x0, symName: '__ZN4core3ptr90drop_in_place$LT$core..result..Result$LT$$LP$u16$C$u16$RP$$C$std..io..error..Error$GT$$GT$17h51ce88a1dda08edfE', symObjAddr: 0x2234, symBinAddr: 0x14030, symSize: 0x40 }
  - { offset: 0x7D75C, size: 0x8, addend: 0x0, symName: '__ZN4core3ptr91drop_in_place$LT$core..result..Result$LT$alloc..string..String$C$std..env..VarError$GT$$GT$17hf0392e9d35a1c078E', symObjAddr: 0x22F4, symBinAddr: 0x14070, symSize: 0x50 }
  - { offset: 0x7D78B, size: 0x8, addend: 0x0, symName: '__ZN4core3ptr93drop_in_place$LT$core..result..Result$LT$std..process..Output$C$std..io..error..Error$GT$$GT$17hf81b1642326ad0c2E', symObjAddr: 0x238C, symBinAddr: 0x140C0, symSize: 0x5C }
  - { offset: 0x7D882, size: 0x8, addend: 0x0, symName: '__ZN145_$LT$core..option..Option$LT$T$GT$$u20$as$u20$core..ops..try_trait..FromResidual$LT$core..option..Option$LT$core..convert..Infallible$GT$$GT$$GT$13from_residual17h1501e783544aff1aE', symObjAddr: 0xE4, symBinAddr: 0x13230, symSize: 0x10 }
  - { offset: 0x7DD98, size: 0x8, addend: 0x0, symName: '__ZN75_$LT$core..option..Option$LT$T$GT$$u20$as$u20$core..ops..try_trait..Try$GT$6branch17h9905a88ceb35aa76E', symObjAddr: 0x45F0, symBinAddr: 0x14740, symSize: 0x78 }
  - { offset: 0x7EC69, size: 0x8, addend: 0x0, symName: '__ZN57_$LT$core..fmt..Formatter$u20$as$u20$core..fmt..Write$GT$9write_fmt17h5a83016edc54f048E', symObjAddr: 0x40F8, symBinAddr: 0x14540, symSize: 0xA4 }
  - { offset: 0x7F21C, size: 0x8, addend: 0x0, symName: '__ZN4core3ops8function6FnOnce40call_once$u7b$$u7b$vtable.shim$u7d$$u7d$17h4d6beb365a6c0372E', symObjAddr: 0x6B0, symBinAddr: 0x135B0, symSize: 0x30 }
  - { offset: 0x7F25C, size: 0x8, addend: 0x0, symName: __ZN4core3ops8function6FnOnce9call_once17hc258455e68681a71E, symObjAddr: 0x910, symBinAddr: 0x135E0, symSize: 0x4C }
  - { offset: 0x7F38F, size: 0x8, addend: 0x0, symName: '__ZN4core4char7convert64_$LT$impl$u20$core..convert..From$LT$u8$GT$$u20$for$u20$char$GT$4from17h3cb9728e1435480aE', symObjAddr: 0x2964, symBinAddr: 0x1411C, symSize: 0x14 }
  - { offset: 0x7F3C7, size: 0x8, addend: 0x0, symName: '__ZN4core4char7methods22_$LT$impl$u20$char$GT$8to_digit17h42f5d157abefaa71E', symObjAddr: 0x2DA8, symBinAddr: 0x14130, symSize: 0x120 }
  - { offset: 0x7F47D, size: 0x8, addend: 0x0, symName: __ZN4core4char7methods25encode_utf8_raw_unchecked17h9433b107a03c4607E, symObjAddr: 0x2EC8, symBinAddr: 0x14250, symSize: 0x188 }
  - { offset: 0x7F68D, size: 0x8, addend: 0x0, symName: __ZN4core5alloc6layout6Layout25from_size_align_unchecked18precondition_check17h8a5d6e49a3e6190eE, symObjAddr: 0x3068, symBinAddr: 0x143D8, symSize: 0xBC }
  - { offset: 0x7F7F6, size: 0x8, addend: 0x0, symName: '__ZN96_$LT$core..option..Option$LT$T$GT$$u20$as$u20$parking_lot..util..UncheckedOptionExt$LT$T$GT$$GT$16unchecked_unwrap17h78d2ec25133ea153E', symObjAddr: 0x48E4, symBinAddr: 0x147C4, symSize: 0x2C }
  - { offset: 0x7F854, size: 0x8, addend: 0x0, symName: '__ZN174_$LT$$LT$alloc..collections..btree..map..IntoIter$LT$K$C$V$C$A$GT$$u20$as$u20$core..ops..drop..Drop$GT$..drop..DropGuard$LT$K$C$V$C$A$GT$$u20$as$u20$core..ops..drop..Drop$GT$4drop17ha9a2c5e172f6212dE', symObjAddr: 0x170, symBinAddr: 0x13240, symSize: 0x64 }
  - { offset: 0x7F8E9, size: 0x8, addend: 0x0, symName: '__ZN99_$LT$alloc..collections..btree..map..IntoIter$LT$K$C$V$C$A$GT$$u20$as$u20$core..ops..drop..Drop$GT$4drop17h1159eb4bd752bf80E', symObjAddr: 0x4A88, symBinAddr: 0x14968, symSize: 0x9C }
  - { offset: 0x7FA99, size: 0x8, addend: 0x0, symName: '__ZN99_$LT$alloc..collections..btree..map..BTreeMap$LT$K$C$V$C$A$GT$$u20$as$u20$core..ops..drop..Drop$GT$4drop17h3776a9ef7b51079cE', symObjAddr: 0x4910, symBinAddr: 0x147F0, symSize: 0x178 }
  - { offset: 0x80071, size: 0x8, addend: 0x0, symName: __ZN5alloc11collections5btree3mem7replace17h8698885e1cb669e3E, symObjAddr: 0x422C, symBinAddr: 0x14674, symSize: 0xCC }
  - { offset: 0x8016B, size: 0x8, addend: 0x0, symName: '__ZN93_$LT$alloc..collections..btree..mem..replace..PanicGuard$u20$as$u20$core..ops..drop..Drop$GT$4drop17hc4bd6c6235102f55E', symObjAddr: 0x48D8, symBinAddr: 0x147B8, symSize: 0xC }
  - { offset: 0x805A5, size: 0x8, addend: 0x0, symName: __ZN3std7process7Command3arg17h10bec153f1c789afE, symObjAddr: 0x1D4, symBinAddr: 0x132A4, symSize: 0x70 }
  - { offset: 0x805E0, size: 0x8, addend: 0x0, symName: __ZN3std7process7Command3new17h6c0b610b8ea41fd5E, symObjAddr: 0x244, symBinAddr: 0x13314, symSize: 0x84 }
  - { offset: 0x80710, size: 0x8, addend: 0x0, symName: __ZN4core3fmt9Arguments23as_statically_known_str17hfd23e8f7617f3d23E, symObjAddr: 0x398, symBinAddr: 0x13398, symSize: 0x104 }
  - { offset: 0x8081E, size: 0x8, addend: 0x0, symName: __ZN4core3fmt9Arguments3new17h1301e08948d55763E, symObjAddr: 0x49C, symBinAddr: 0x1349C, symSize: 0x1C }
  - { offset: 0x808B8, size: 0x8, addend: 0x0, symName: __ZN4core3fmt9Arguments3new17h4e32b190db84d855E, symObjAddr: 0x4D4, symBinAddr: 0x134B8, symSize: 0x1C }
  - { offset: 0x80938, size: 0x8, addend: 0x0, symName: __ZN4core3fmt9Arguments3new17h958e63dd71943c81E, symObjAddr: 0x528, symBinAddr: 0x134D4, symSize: 0x1C }
  - { offset: 0x8099E, size: 0x8, addend: 0x0, symName: __ZN4core3fmt9Arguments3new17hab264b61e2281938E, symObjAddr: 0x560, symBinAddr: 0x134F0, symSize: 0x1C }
  - { offset: 0x809EA, size: 0x8, addend: 0x0, symName: __ZN4core3fmt9Formatter9write_fmt17h01458f3c428d97f3E, symObjAddr: 0x5B8, symBinAddr: 0x1350C, symSize: 0xA4 }
  - { offset: 0x80BA1, size: 0x8, addend: 0x0, symName: '__ZN4core6option15Option$LT$T$GT$10ok_or_else17h8fb2da555505b9d5E', symObjAddr: 0x3328, symBinAddr: 0x14494, symSize: 0x8C }
  - { offset: 0x80CDA, size: 0x8, addend: 0x0, symName: '__ZN4core6option15Option$LT$T$GT$4take17ha101fd04d1d5fdcdE', symObjAddr: 0x3C74, symBinAddr: 0x14520, symSize: 0x20 }
  - { offset: 0x80DAC, size: 0x8, addend: 0x0, symName: '__ZN5alloc11collections5btree3map25IntoIter$LT$K$C$V$C$A$GT$10dying_next17h1df6df027b9d7ba8E', symObjAddr: 0x419C, symBinAddr: 0x145E4, symSize: 0x90 }
  - { offset: 0x812ED, size: 0x8, addend: 0x0, symName: '__ZN4core3num23_$LT$impl$u20$usize$GT$13unchecked_add18precondition_check17hd11b2c8b9591eaadE', symObjAddr: 0x120C, symBinAddr: 0x14D9C, symSize: 0x64 }
  - { offset: 0x8136C, size: 0x8, addend: 0x0, symName: '__ZN4core3num23_$LT$impl$u20$usize$GT$13unchecked_sub18precondition_check17h4758ce3e306c59a3E', symObjAddr: 0x1270, symBinAddr: 0x14E00, symSize: 0x60 }
  - { offset: 0x814FF, size: 0x8, addend: 0x0, symName: '__ZN104_$LT$core..iter..adapters..copied..Copied$LT$I$GT$$u20$as$u20$core..iter..traits..iterator..Iterator$GT$4next17h2322fa431fd537eeE', symObjAddr: 0x1EC, symBinAddr: 0x14C88, symSize: 0x60 }
  - { offset: 0x8159E, size: 0x8, addend: 0x0, symName: '__ZN115_$LT$core..iter..adapters..filter_map..FilterMap$LT$I$C$F$GT$$u20$as$u20$core..iter..traits..iterator..Iterator$GT$4fold17h21d8a606b1a001d6E', symObjAddr: 0x2E4, symBinAddr: 0x14CE8, symSize: 0x38 }
  - { offset: 0x8161A, size: 0x8, addend: 0x0, symName: '__ZN4core4iter8adapters10filter_map15filter_map_fold28_$u7b$$u7b$closure$u7d$$u7d$17h73f54fa42762f6e9E', symObjAddr: 0x16AC, symBinAddr: 0x14E60, symSize: 0xD8 }
  - { offset: 0x816FB, size: 0x8, addend: 0x0, symName: '__ZN63_$LT$I$u20$as$u20$core..iter..traits..collect..IntoIterator$GT$9into_iter17h673912a5024ac5cfE', symObjAddr: 0x2890, symBinAddr: 0x15AA8, symSize: 0x1C }
  - { offset: 0x82338, size: 0x8, addend: 0x0, symName: '__ZN44_$LT$$RF$T$u20$as$u20$core..fmt..Display$GT$3fmt17ha60a772e184c5cb6E', symObjAddr: 0x31C, symBinAddr: 0x14D20, symSize: 0x30 }
  - { offset: 0x827FD, size: 0x8, addend: 0x0, symName: __ZN4core9ub_checks23maybe_is_nonoverlapping7runtime17h0a27ebf839d71a13E, symObjAddr: 0x1BF8, symBinAddr: 0x14F38, symSize: 0xD8 }
  - { offset: 0x829B4, size: 0x8, addend: 0x0, symName: '__ZN50_$LT$T$u20$as$u20$core..convert..Into$LT$U$GT$$GT$4into17h9c829ca838f9f81cE', symObjAddr: 0x1CD0, symBinAddr: 0x15010, symSize: 0x44 }
  - { offset: 0x82B54, size: 0x8, addend: 0x0, symName: '__ZN45_$LT$T$u20$as$u20$alloc..string..ToString$GT$9to_string17h33344163cd8d711cE', symObjAddr: 0x34C, symBinAddr: 0x14D50, symSize: 0x28 }
  - { offset: 0x82B8B, size: 0x8, addend: 0x0, symName: '__ZN45_$LT$T$u20$as$u20$alloc..string..ToString$GT$9to_string17h69bfdf80f360cd2aE', symObjAddr: 0x374, symBinAddr: 0x14D78, symSize: 0x24 }
  - { offset: 0x82BC8, size: 0x8, addend: 0x0, symName: '__ZN51_$LT$i16$u20$as$u20$alloc..string..SpecToString$GT$14spec_to_string17he48580c60864c5afE', symObjAddr: 0x1D28, symBinAddr: 0x15054, symSize: 0x2F0 }
  - { offset: 0x830C8, size: 0x8, addend: 0x0, symName: '__ZN51_$LT$str$u20$as$u20$alloc..string..SpecToString$GT$14spec_to_string17hefac9d3248901a34E', symObjAddr: 0x2018, symBinAddr: 0x15344, symSize: 0x50 }
  - { offset: 0x83215, size: 0x8, addend: 0x0, symName: '__ZN60_$LT$alloc..string..String$u20$as$u20$core..fmt..Display$GT$3fmt17h82a9a20421b9e4e5E', symObjAddr: 0x2740, symBinAddr: 0x15A6C, symSize: 0x3C }
  - { offset: 0x83301, size: 0x8, addend: 0x0, symName: '__ZN78_$LT$alloc..string..String$u20$as$u20$core..ops..arith..Add$LT$$RF$str$GT$$GT$3add17h709429680037ec9bE', symObjAddr: 0x2988, symBinAddr: 0x15AC4, symSize: 0x130 }
  - { offset: 0x83EDE, size: 0x8, addend: 0x0, symName: '__ZN5alloc11collections5btree8navigate263_$LT$impl$u20$alloc..collections..btree..node..Handle$LT$alloc..collections..btree..node..NodeRef$LT$alloc..collections..btree..node..marker..Dying$C$K$C$V$C$alloc..collections..btree..node..marker..Leaf$GT$$C$alloc..collections..btree..node..marker..Edge$GT$$GT$27deallocating_next_unchecked28_$u7b$$u7b$closure$u7d$$u7d$17h393ed9a9528c3b4aE', symObjAddr: 0x2068, symBinAddr: 0x15394, symSize: 0x58 }
  - { offset: 0x84890, size: 0x8, addend: 0x0, symName: '__ZN5alloc11collections5btree8navigate39LazyLeafRange$LT$BorrowType$C$K$C$V$GT$10init_front17h743d294dd1ba9240E', symObjAddr: 0x20C0, symBinAddr: 0x153EC, symSize: 0x1F8 }
  - { offset: 0x84CD6, size: 0x8, addend: 0x0, symName: '__ZN5alloc11collections5btree8navigate75LazyLeafRange$LT$alloc..collections..btree..node..marker..Dying$C$K$C$V$GT$10take_front17h2c6a81d3a322140eE', symObjAddr: 0x22B8, symBinAddr: 0x155E4, symSize: 0x1F4 }
  - { offset: 0x84FC3, size: 0x8, addend: 0x0, symName: '__ZN5alloc11collections5btree8navigate75LazyLeafRange$LT$alloc..collections..btree..node..marker..Dying$C$K$C$V$GT$16deallocating_end17h1cbefc252ba63d66E', symObjAddr: 0x24AC, symBinAddr: 0x157D8, symSize: 0x98 }
  - { offset: 0x85088, size: 0x8, addend: 0x0, symName: '__ZN5alloc11collections5btree8navigate75LazyLeafRange$LT$alloc..collections..btree..node..marker..Dying$C$K$C$V$GT$27deallocating_next_unchecked17h3c2751f460bb153dE', symObjAddr: 0x2544, symBinAddr: 0x15870, symSize: 0xA8 }
  - { offset: 0x852CD, size: 0x8, addend: 0x0, symName: __ZN5alloc6string6String4push17h42b5aa690ce0cc05E, symObjAddr: 0x25EC, symBinAddr: 0x15918, symSize: 0x114 }
  - { offset: 0x85566, size: 0x8, addend: 0x0, symName: __ZN5alloc6string6String6as_str17h95bde91be51f8ac8E, symObjAddr: 0x2700, symBinAddr: 0x15A2C, symSize: 0x20 }
  - { offset: 0x85622, size: 0x8, addend: 0x0, symName: __ZN5alloc6string6String8is_empty17hda39bcfda3a1dd44E, symObjAddr: 0x2720, symBinAddr: 0x15A4C, symSize: 0x20 }
  - { offset: 0x867E4, size: 0x8, addend: 0x0, symName: '__ZN4core3ptr9const_ptr33_$LT$impl$u20$$BP$const$u20$T$GT$20offset_from_unsigned18precondition_check17h6b61b495b2795aa7E', symObjAddr: 0x39C, symBinAddr: 0x15C0C, symSize: 0x60 }
  - { offset: 0x869C5, size: 0x8, addend: 0x0, symName: '__ZN91_$LT$core..slice..iter..Iter$LT$T$GT$$u20$as$u20$core..iter..traits..iterator..Iterator$GT$4next17hc43bfdcd26c8720bE', symObjAddr: 0x2B30, symBinAddr: 0x16254, symSize: 0x84 }
  - { offset: 0x86AB4, size: 0x8, addend: 0x0, symName: __ZN4core5slice3raw14from_raw_parts18precondition_check17h9c044386a2339cc8E, symObjAddr: 0x884, symBinAddr: 0x15CC4, symSize: 0x10C }
  - { offset: 0x86BDB, size: 0x8, addend: 0x0, symName: '__ZN75_$LT$usize$u20$as$u20$core..slice..index..SliceIndex$LT$$u5b$T$u5d$$GT$$GT$13get_unchecked18precondition_check17h7165dceaee4a309cE', symObjAddr: 0x25C4, symBinAddr: 0x15FE0, symSize: 0x60 }
  - { offset: 0x86C34, size: 0x8, addend: 0x0, symName: '__ZN75_$LT$usize$u20$as$u20$core..slice..index..SliceIndex$LT$$u5b$T$u5d$$GT$$GT$17get_unchecked_mut18precondition_check17hd801964d26bc326cE', symObjAddr: 0x2624, symBinAddr: 0x16040, symSize: 0x60 }
  - { offset: 0x86DA9, size: 0x8, addend: 0x0, symName: __ZN4core4hint21unreachable_unchecked18precondition_check17h1cb681255c68150dE, symObjAddr: 0x78C, symBinAddr: 0x15C6C, symSize: 0x3C }
  - { offset: 0x86DF6, size: 0x8, addend: 0x0, symName: __ZN4core4iter6traits8iterator8Iterator6copied17h1ba607db253178a6E, symObjAddr: 0x7C8, symBinAddr: 0x15CA8, symSize: 0x1C }
  - { offset: 0x86F9A, size: 0x8, addend: 0x0, symName: '__ZN55_$LT$$RF$T$u20$as$u20$core..convert..AsRef$LT$U$GT$$GT$6as_ref17h5d31bccd4bca3e32E', symObjAddr: 0xE68, symBinAddr: 0x15E20, symSize: 0x30 }
  - { offset: 0x876AF, size: 0x8, addend: 0x0, symName: '__ZN5alloc3vec16Vec$LT$T$C$A$GT$7set_len18precondition_check17h0ff2b22ddd58834fE', symObjAddr: 0x2284, symBinAddr: 0x15F24, symSize: 0x60 }
  - { offset: 0x87764, size: 0x8, addend: 0x0, symName: '__ZN70_$LT$alloc..vec..Vec$LT$T$C$A$GT$$u20$as$u20$core..ops..drop..Drop$GT$4drop17h05a908886e1eaf39E', symObjAddr: 0x24EC, symBinAddr: 0x15F84, symSize: 0x38 }
  - { offset: 0x87814, size: 0x8, addend: 0x0, symName: '__ZN70_$LT$alloc..vec..Vec$LT$T$C$A$GT$$u20$as$u20$core..ops..drop..Drop$GT$4drop17h5349405976655fccE', symObjAddr: 0x255C, symBinAddr: 0x15FBC, symSize: 0x24 }
  - { offset: 0x87925, size: 0x8, addend: 0x0, symName: '__ZN90_$LT$alloc..vec..Vec$LT$T$C$A$GT$$u20$as$u20$core..iter..traits..collect..IntoIterator$GT$9into_iter17h070ade3a7d5e75b2E', symObjAddr: 0x28FC, symBinAddr: 0x161AC, symSize: 0xA8 }
  - { offset: 0x87B9B, size: 0x8, addend: 0x0, symName: '__ZN87_$LT$T$u20$as$u20$alloc..slice..$LT$impl$u20$$u5b$T$u5d$$GT$..to_vec_in..ConvertVec$GT$6to_vec17hbea4663fdb3a2448E', symObjAddr: 0x2808, symBinAddr: 0x160B8, symSize: 0xF4 }
  - { offset: 0x87DE3, size: 0x8, addend: 0x0, symName: '__ZN3std4path77_$LT$impl$u20$core..convert..AsRef$LT$std..path..Path$GT$$u20$for$u20$str$GT$6as_ref17h3b9483e10894e1a5E', symObjAddr: 0x374, symBinAddr: 0x15BF4, symSize: 0x18 }
  - { offset: 0x87E17, size: 0x8, addend: 0x0, symName: '__ZN79_$LT$std..path..Path$u20$as$u20$core..convert..AsRef$LT$std..path..Path$GT$$GT$6as_ref17h085c22e72aadd983E', symObjAddr: 0x27CC, symBinAddr: 0x160A0, symSize: 0x18 }
  - { offset: 0x87FF2, size: 0x8, addend: 0x0, symName: '__ZN4core5slice4iter13Iter$LT$T$GT$3new17h0b43011245037ed4E', symObjAddr: 0xA9C, symBinAddr: 0x15DD0, symSize: 0x50 }
  - { offset: 0x88201, size: 0x8, addend: 0x0, symName: '__ZN5alloc3vec16Vec$LT$T$C$A$GT$15append_elements17h9523137c27147462E', symObjAddr: 0x1FD0, symBinAddr: 0x15E50, symSize: 0xD4 }
  - { offset: 0x88987, size: 0x8, addend: 0x0, symName: '__ZN103_$LT$alloc..vec..into_iter..IntoIter$LT$T$C$A$GT$$u20$as$u20$core..iter..traits..iterator..Iterator$GT$4fold17hd984696cbd57718bE', symObjAddr: 0x0, symBinAddr: 0x162D8, symSize: 0x100 }
  - { offset: 0x889D1, size: 0x8, addend: 0x0, symName: '__ZN103_$LT$alloc..vec..into_iter..IntoIter$LT$T$C$A$GT$$u20$as$u20$core..iter..traits..iterator..Iterator$GT$4fold17hd984696cbd57718bE', symObjAddr: 0x0, symBinAddr: 0x162D8, symSize: 0x100 }
  - { offset: 0x88B83, size: 0x8, addend: 0x0, symName: '__ZN103_$LT$alloc..vec..into_iter..IntoIter$LT$T$C$A$GT$$u20$as$u20$core..iter..traits..iterator..Iterator$GT$9size_hint17h7273a614209bda86E', symObjAddr: 0x100, symBinAddr: 0x163D8, symSize: 0xB4 }
  - { offset: 0x88CAC, size: 0x8, addend: 0x0, symName: '__ZN157_$LT$$LT$alloc..vec..into_iter..IntoIter$LT$T$C$A$GT$$u20$as$u20$core..ops..drop..Drop$GT$..drop..DropGuard$LT$T$C$A$GT$$u20$as$u20$core..ops..drop..Drop$GT$4drop17h7684639799065124E', symObjAddr: 0x558, symBinAddr: 0x1648C, symSize: 0x6C }
  - { offset: 0x88E18, size: 0x8, addend: 0x0, symName: '__ZN86_$LT$alloc..vec..into_iter..IntoIter$LT$T$C$A$GT$$u20$as$u20$core..ops..drop..Drop$GT$4drop17h0ca429ecb5570cbfE', symObjAddr: 0x2498, symBinAddr: 0x1760C, symSize: 0x64 }
  - { offset: 0x890C6, size: 0x8, addend: 0x0, symName: '__ZN280_$LT$alloc..collections..btree..node..Handle$LT$alloc..collections..btree..node..NodeRef$LT$alloc..collections..btree..node..marker..Dying$C$K$C$V$C$NodeType$GT$$C$alloc..collections..btree..node..marker..KV$GT$..drop_key_val..Dropper$LT$T$GT$$u20$as$u20$core..ops..drop..Drop$GT$4drop17h8058324510e2903fE', symObjAddr: 0x62C, symBinAddr: 0x164F8, symSize: 0x2C }
  - { offset: 0x8B634, size: 0x8, addend: 0x0, symName: __ZN4core4iter6traits8iterator8Iterator10filter_map17h94fdbabee51a5370E, symObjAddr: 0xA74, symBinAddr: 0x16524, symSize: 0x1C }
  - { offset: 0x8B948, size: 0x8, addend: 0x0, symName: __ZN9crossterm5style5types7colored11INITIALIZER17hf619bb592dee9febE, symObjAddr: 0x31340, symBinAddr: 0xE1258, symSize: 0x0 }
  - { offset: 0x8B962, size: 0x8, addend: 0x0, symName: __ZN9crossterm5style5types7colored19ANSI_COLOR_DISABLED17hf891c2fbb2c7c180E, symObjAddr: 0x31341, symBinAddr: 0xE1259, symSize: 0x0 }
  - { offset: 0x8B974, size: 0x8, addend: 0x0, symName: '__ZN80_$LT$crossterm..style..types..colored..Colored$u20$as$u20$core..fmt..Display$GT$3fmt17h16555bf9743ab403E', symObjAddr: 0x1EE8, symBinAddr: 0x170CC, symSize: 0x540 }
  - { offset: 0x8BBFE, size: 0x8, addend: 0x0, symName: '__ZN9crossterm5style5types7colored7Colored28ansi_color_disabled_memoized28_$u7b$$u7b$closure$u7d$$u7d$17h70d7e01b4bb815dcE', symObjAddr: 0x34D4, symBinAddr: 0x17784, symSize: 0x30 }
  - { offset: 0x8BC36, size: 0x8, addend: 0x0, symName: '__ZN78_$LT$crossterm..style..types..color..Color$u20$as$u20$core..cmp..PartialEq$GT$2eq17h0fc49e13951228c7E', symObjAddr: 0x1AF0, symBinAddr: 0x16F6C, symSize: 0x160 }
  - { offset: 0x8BF6B, size: 0x8, addend: 0x0, symName: '__ZN9crossterm8terminal3sys4unix10tput_value28_$u7b$$u7b$closure$u7d$$u7d$17h534fbf800921eed9E', symObjAddr: 0x3738, symBinAddr: 0x179E8, symSize: 0x34 }
  - { offset: 0x8BFA1, size: 0x8, addend: 0x0, symName: '__ZN9crossterm8terminal3sys4unix10tput_value28_$u7b$$u7b$closure$u7d$$u7d$17heaa06368e463477fE', symObjAddr: 0x376C, symBinAddr: 0x17A1C, symSize: 0x80 }
  - { offset: 0x8BFED, size: 0x8, addend: 0x0, symName: __ZN9crossterm8terminal3sys4unix10tput_value17he778349dc1d3e276E, symObjAddr: 0x3504, symBinAddr: 0x177B4, symSize: 0x234 }
  - { offset: 0x8C087, size: 0x8, addend: 0x0, symName: __ZN9crossterm8terminal3sys4unix11window_size17h0bdae2c96652b5edE, symObjAddr: 0x37EC, symBinAddr: 0x17A9C, symSize: 0x200 }
  - { offset: 0x8C101, size: 0x8, addend: 0x0, symName: '__ZN9crossterm8terminal3sys4unix11window_size28_$u7b$$u7b$closure$u7d$$u7d$17hd108e40ea578d28bE', symObjAddr: 0x39EC, symBinAddr: 0x17C9C, symSize: 0x30 }
  - { offset: 0x8C13F, size: 0x8, addend: 0x0, symName: __ZN9crossterm8terminal3sys4unix16wrap_with_result17h4e1fbeea967a9d26E, symObjAddr: 0x3F00, symBinAddr: 0x17CCC, symSize: 0x40 }
  - { offset: 0x8C16B, size: 0x8, addend: 0x0, symName: __ZN9crossterm8terminal3sys4unix4size17h73c207e6fd6a7379E, symObjAddr: 0x46C8, symBinAddr: 0x17D0C, symSize: 0xD4 }
  - { offset: 0x8C1A3, size: 0x8, addend: 0x0, symName: '__ZN9crossterm8terminal3sys4unix4size28_$u7b$$u7b$closure$u7d$$u7d$17h905ddb11cba9113dE', symObjAddr: 0x479C, symBinAddr: 0x17DE0, symSize: 0x28 }
  - { offset: 0x8C1D3, size: 0x8, addend: 0x0, symName: __ZN9crossterm8terminal3sys4unix9tput_size17h3a10fe184a23ea82E, symObjAddr: 0x47C4, symBinAddr: 0x17E08, symSize: 0xC4 }
  - { offset: 0x8D0A1, size: 0x8, addend: 0x0, symName: __ZN4core4sync6atomic10AtomicBool4load17hccc02fd1268c2d66E, symObjAddr: 0xCF4, symBinAddr: 0x16540, symSize: 0x2C }
  - { offset: 0x8D0D3, size: 0x8, addend: 0x0, symName: __ZN4core4sync6atomic10AtomicBool5store17h3754189751b7bf29E, symObjAddr: 0xD20, symBinAddr: 0x1656C, symSize: 0x28 }
  - { offset: 0x8D121, size: 0x8, addend: 0x0, symName: __ZN4core4sync6atomic8AtomicU84load17h120b94af5dacf065E, symObjAddr: 0xE84, symBinAddr: 0x16594, symSize: 0x24 }
  - { offset: 0x8D290, size: 0x8, addend: 0x0, symName: '__ZN5alloc11collections5btree4node127NodeRef$LT$alloc..collections..btree..node..marker..Dying$C$K$C$V$C$alloc..collections..btree..node..marker..LeafOrInternal$GT$21deallocate_and_ascend17hca9340c3f5d2fd4eE', symObjAddr: 0x10F8, symBinAddr: 0x165B8, symSize: 0xFC }
  - { offset: 0x8D4FD, size: 0x8, addend: 0x0, symName: '__ZN5alloc11collections5btree4node173Handle$LT$alloc..collections..btree..node..NodeRef$LT$alloc..collections..btree..node..marker..Dying$C$K$C$V$C$NodeType$GT$$C$alloc..collections..btree..node..marker..KV$GT$12drop_key_val17ha63780cedece6296E', symObjAddr: 0x11F4, symBinAddr: 0x166B4, symSize: 0x128 }
  - { offset: 0x8D7D3, size: 0x8, addend: 0x0, symName: '__ZN5alloc11collections5btree4node40NodeRef$LT$BorrowType$C$K$C$V$C$Type$GT$6ascend17hc2539cae5dab0f91E', symObjAddr: 0x131C, symBinAddr: 0x167DC, symSize: 0x154 }
  - { offset: 0x8DC70, size: 0x8, addend: 0x0, symName: '__ZN5alloc11collections5btree8navigate235_$LT$impl$u20$alloc..collections..btree..node..Handle$LT$alloc..collections..btree..node..NodeRef$LT$BorrowType$C$K$C$V$C$alloc..collections..btree..node..marker..LeafOrInternal$GT$$C$alloc..collections..btree..node..marker..KV$GT$$GT$14next_leaf_edge17h6afa7de77c0ddd0aE', symObjAddr: 0x1470, symBinAddr: 0x16930, symSize: 0x298 }
  - { offset: 0x8E19D, size: 0x8, addend: 0x0, symName: '__ZN5alloc11collections5btree8navigate263_$LT$impl$u20$alloc..collections..btree..node..Handle$LT$alloc..collections..btree..node..NodeRef$LT$alloc..collections..btree..node..marker..Dying$C$K$C$V$C$alloc..collections..btree..node..marker..Leaf$GT$$C$alloc..collections..btree..node..marker..Edge$GT$$GT$16deallocating_end17h0be119e6ca408199E', symObjAddr: 0x1708, symBinAddr: 0x16BC8, symSize: 0xAC }
  - { offset: 0x8E43D, size: 0x8, addend: 0x0, symName: '__ZN5alloc11collections5btree8navigate263_$LT$impl$u20$alloc..collections..btree..node..Handle$LT$alloc..collections..btree..node..NodeRef$LT$alloc..collections..btree..node..marker..Dying$C$K$C$V$C$alloc..collections..btree..node..marker..Leaf$GT$$C$alloc..collections..btree..node..marker..Edge$GT$$GT$17deallocating_next17h6721bd1dfd3b89beE', symObjAddr: 0x17B4, symBinAddr: 0x16C74, symSize: 0x22C }
  - { offset: 0x8E666, size: 0x8, addend: 0x0, symName: '__ZN5alloc3vec9into_iter21IntoIter$LT$T$C$A$GT$16as_raw_mut_slice17hf354ac9604947afeE', symObjAddr: 0x19E0, symBinAddr: 0x16EA0, symSize: 0xCC }
  - { offset: 0x8E773, size: 0x8, addend: 0x0, symName: __ZN9crossterm5style5types7colored7Colored19ansi_color_disabled17h5b2e18624a09aea4E, symObjAddr: 0x3388, symBinAddr: 0x17670, symSize: 0xE8 }
  - { offset: 0x8E786, size: 0x8, addend: 0x0, symName: __ZN9crossterm5style5types7colored7Colored28ansi_color_disabled_memoized17h85211fac50eaaabbE, symObjAddr: 0x34A8, symBinAddr: 0x17758, symSize: 0x2C }
  - { offset: 0x8E924, size: 0x8, addend: 0x0, symName: '__ZN11parking_lot4once4Once9call_once28_$u7b$$u7b$closure$u7d$$u7d$17hec138c89d5b03545E', symObjAddr: 0xF14, symBinAddr: 0x17F98, symSize: 0x34 }
  - { offset: 0x8E9C2, size: 0x8, addend: 0x0, symName: __ZN11parking_lot4util11unreachable17h38265624f920d096E, symObjAddr: 0xF94, symBinAddr: 0x17FCC, symSize: 0x24 }
  - { offset: 0x8F010, size: 0x8, addend: 0x0, symName: __ZN4core3ptr19copy_nonoverlapping18precondition_check17hc2355f6807498a23E, symObjAddr: 0x1E04, symBinAddr: 0x18170, symSize: 0x168 }
  - { offset: 0x8F448, size: 0x8, addend: 0x0, symName: '__ZN4core3cmp5impls53_$LT$impl$u20$core..cmp..PartialEq$u20$for$u20$u8$GT$2eq17hcb0f274dc48106b6E', symObjAddr: 0x1B48, symBinAddr: 0x18110, symSize: 0x2C }
  - { offset: 0x8F48B, size: 0x8, addend: 0x0, symName: '__ZN4core3cmp5impls69_$LT$impl$u20$core..cmp..PartialEq$LT$$RF$B$GT$$u20$for$u20$$RF$A$GT$2eq17hf52e58dbfcce6d6bE', symObjAddr: 0x1C44, symBinAddr: 0x1813C, symSize: 0x34 }
  - { offset: 0x8F6DC, size: 0x8, addend: 0x0, symName: '__ZN93_$LT$crossterm..terminal..sys..file_descriptor..FileDesc$u20$as$u20$core..ops..drop..Drop$GT$4drop17ha84485fcfa488e2cE', symObjAddr: 0x3184, symBinAddr: 0x18350, symSize: 0x40 }
  - { offset: 0x8F744, size: 0x8, addend: 0x0, symName: '__ZN61_$LT$std..fs..File$u20$as$u20$std..os..fd..raw..IntoRawFd$GT$11into_raw_fd17h1c6cdc6a77967ae8E', symObjAddr: 0x2A98, symBinAddr: 0x182E8, symSize: 0x10 }
  - { offset: 0x8FD72, size: 0x8, addend: 0x0, symName: '__ZN59_$LT$alloc..alloc..Global$u20$as$u20$core..clone..Clone$GT$5clone17h7ca10a9809112be6E', symObjAddr: 0x2844, symBinAddr: 0x182D8, symSize: 0x10 }
  - { offset: 0x8FDA0, size: 0x8, addend: 0x0, symName: '__ZN63_$LT$alloc..alloc..Global$u20$as$u20$core..alloc..Allocator$GT$10deallocate17hbd3b01a65403a3b5E', symObjAddr: 0x2AF0, symBinAddr: 0x182F8, symSize: 0x58 }
  - { offset: 0x8FEFA, size: 0x8, addend: 0x0, symName: __ZN11parking_lot4once4Once9call_once17h162c042ff8bad5c0E, symObjAddr: 0xE48, symBinAddr: 0x17ECC, symSize: 0xCC }
  - { offset: 0x90038, size: 0x8, addend: 0x0, symName: __ZN3std2fs11OpenOptions4open17hc49a9e2472a1cbc0E, symObjAddr: 0x16EC, symBinAddr: 0x17FF0, symSize: 0x74 }
  - { offset: 0x900BF, size: 0x8, addend: 0x0, symName: __ZN3std2fs4File4open17h881f417f416a7a9dE, symObjAddr: 0x180C, symBinAddr: 0x18064, symSize: 0xAC }
  - { offset: 0x9022F, size: 0x8, addend: 0x0, symName: __ZN9crossterm8terminal3sys15file_descriptor8FileDesc3new17hf4db0d561bf8784fE, symObjAddr: 0x5740, symBinAddr: 0x18390, symSize: 0x14 }
  - { offset: 0x9028A, size: 0x8, addend: 0x0, symName: __ZN9crossterm8terminal3sys15file_descriptor8FileDesc6raw_fd17h1e858cf4636384d4E, symObjAddr: 0x57DC, symBinAddr: 0x183A4, symSize: 0x18 }
  - { offset: 0x90337, size: 0x8, addend: 0x0, symName: __ZN4core4sync6atomic11atomic_load17h67d79ae768d0523bE, symObjAddr: 0x281C, symBinAddr: 0x18414, symSize: 0xF8 }
  - { offset: 0x9037D, size: 0x8, addend: 0x0, symName: __ZN4core4sync6atomic11atomic_load17h7863ecc1e6512a9cE, symObjAddr: 0x2A0C, symBinAddr: 0x1850C, symSize: 0xF8 }
  - { offset: 0x903C3, size: 0x8, addend: 0x0, symName: __ZN4core4sync6atomic12atomic_store17h9b502d821a5a924eE, symObjAddr: 0x2CF4, symBinAddr: 0x18604, symSize: 0xFC }
  - { offset: 0x90463, size: 0x8, addend: 0x0, symName: __ZN4core4hint16assert_unchecked18precondition_check17h2d877acb221a1cb9E, symObjAddr: 0x23D4, symBinAddr: 0x183BC, symSize: 0x58 }
  - { offset: 0x90FBA, size: 0x8, addend: 0x0, symName: '__ZN5alloc7raw_vec20RawVecInner$LT$A$GT$16with_capacity_in17h1b1eab1749bed34cE', symObjAddr: 0x2898, symBinAddr: 0x18700, symSize: 0xF0 }
  - { offset: 0x911B3, size: 0x8, addend: 0x0, symName: '__ZN4core3ptr9const_ptr33_$LT$impl$u20$$BP$const$u20$T$GT$13is_aligned_to17hc0a0dc6799b17376E', symObjAddr: 0x4E4, symBinAddr: 0x187F0, symSize: 0x88 }
  - { offset: 0x91381, size: 0x8, addend: 0x0, symName: '__ZN153_$LT$core..result..Result$LT$T$C$F$GT$$u20$as$u20$core..ops..try_trait..FromResidual$LT$core..result..Result$LT$core..convert..Infallible$C$E$GT$$GT$$GT$13from_residual17hba70f0430186ad7bE', symObjAddr: 0x3944, symBinAddr: 0x18878, symSize: 0x14 }
  - { offset: 0x9148F, size: 0x8, addend: 0x0, symName: '__ZN79_$LT$core..result..Result$LT$T$C$E$GT$$u20$as$u20$core..ops..try_trait..Try$GT$6branch17hfe232cccc1a69ac3E', symObjAddr: 0x7718, symBinAddr: 0x1888C, symSize: 0x38 }
  - { offset: 0x91BF6, size: 0x8, addend: 0x0, symName: '__ZN4core3ptr8non_null16NonNull$LT$T$GT$13new_unchecked18precondition_check17h06d67014252cb7d3E', symObjAddr: 0x1D48, symBinAddr: 0x18D84, symSize: 0x58 }
  - { offset: 0x91DBE, size: 0x8, addend: 0x0, symName: '__ZN4core3ptr9const_ptr33_$LT$impl$u20$$BP$const$u20$T$GT$13is_aligned_to17h1c06ffbc0bc3d5caE', symObjAddr: 0x1DA0, symBinAddr: 0x18DDC, symSize: 0x88 }
  - { offset: 0x920A4, size: 0x8, addend: 0x0, symName: __ZN4core5slice3raw14from_raw_parts18precondition_check17h7ccffce180b94f10E, symObjAddr: 0x2788, symBinAddr: 0x191B0, symSize: 0x10C }
  - { offset: 0x921C0, size: 0x8, addend: 0x0, symName: __ZN4core5slice3raw18from_raw_parts_mut18precondition_check17hc0ce766b7f3a3ed3E, symObjAddr: 0x28F0, symBinAddr: 0x192BC, symSize: 0x10C }
  - { offset: 0x928D5, size: 0x8, addend: 0x0, symName: __ZN4core4char7methods15encode_utf8_raw8do_panic7runtime17h9659d70e314a54c1E, symObjAddr: 0x1F88, symBinAddr: 0x18F64, symSize: 0xC4 }
  - { offset: 0x929D2, size: 0x8, addend: 0x0, symName: __ZN4core4char7methods15encode_utf8_raw17hd19ee7f3de54d567E, symObjAddr: 0x1E88, symBinAddr: 0x18E64, symSize: 0x100 }
  - { offset: 0x92B0C, size: 0x8, addend: 0x0, symName: __ZN4core4char7methods25encode_utf8_raw_unchecked17hff1868a6b2a45ce6E, symObjAddr: 0x204C, symBinAddr: 0x19028, symSize: 0x188 }
  - { offset: 0x9323C, size: 0x8, addend: 0x0, symName: __ZN3std2io5Write9write_all17hd372a08cbb14c02cE, symObjAddr: 0x12F0, symBinAddr: 0x188C4, symSize: 0x27C }
  - { offset: 0x9342C, size: 0x8, addend: 0x0, symName: __ZN3std2io5Write9write_fmt17h49492dd0f7465f70E, symObjAddr: 0x156C, symBinAddr: 0x18B40, symSize: 0x8C }
  - { offset: 0x934DF, size: 0x8, addend: 0x0, symName: __ZN3std3sys2fs4unix23debug_assert_fd_is_open17h178ba18eccfbb7a9E, symObjAddr: 0x1770, symBinAddr: 0x18BCC, symSize: 0x98 }
  - { offset: 0x936E1, size: 0x8, addend: 0x0, symName: '__ZN63_$LT$alloc..alloc..Global$u20$as$u20$core..alloc..Allocator$GT$10deallocate17hfd08b5b31b6a36efE', symObjAddr: 0x3134, symBinAddr: 0x193C8, symSize: 0x58 }
  - { offset: 0x9397C, size: 0x8, addend: 0x0, symName: __ZN4core3fmt9Arguments23as_statically_known_str17h2e179dbc91c58e2cE, symObjAddr: 0x19C8, symBinAddr: 0x18C64, symSize: 0x104 }
  - { offset: 0x93A8A, size: 0x8, addend: 0x0, symName: __ZN4core3fmt9Arguments3new17h217eb8f1993f5ae4E, symObjAddr: 0x1ACC, symBinAddr: 0x18D68, symSize: 0x1C }
  - { offset: 0x93F9C, size: 0x8, addend: 0x0, symName: __ZN4core3ptr9alignment9Alignment13new_unchecked18precondition_check17h9895200165e7498eE, symObjAddr: 0x4708, symBinAddr: 0x19C9C, symSize: 0x70 }
  - { offset: 0x947C7, size: 0x8, addend: 0x0, symName: __ZN4core4hint21unreachable_unchecked18precondition_check17hae928f2115a9d5b4E, symObjAddr: 0x47D0, symBinAddr: 0x19D0C, symSize: 0x3C }
  - { offset: 0x949C6, size: 0x8, addend: 0x0, symName: __ZN4core5alloc6layout6Layout25from_size_align_unchecked18precondition_check17hac2e54e998fc06b5E, symObjAddr: 0x483C, symBinAddr: 0x19D48, symSize: 0xBC }
  - { offset: 0x94D78, size: 0x8, addend: 0x0, symName: '__ZN3std2io5error14repr_bitpacked4Repr4data28_$u7b$$u7b$closure$u7d$$u7d$17he05094466fa99fb1E', symObjAddr: 0x4228, symBinAddr: 0x19C88, symSize: 0x14 }
  - { offset: 0x94DB0, size: 0x8, addend: 0x0, symName: __ZN3std2io5error14repr_bitpacked11decode_repr17h2dfaa82ccd27238eE, symObjAddr: 0x3954, symBinAddr: 0x19420, symSize: 0x1DC }
  - { offset: 0x95006, size: 0x8, addend: 0x0, symName: '__ZN78_$LT$std..io..error..repr_bitpacked..Repr$u20$as$u20$core..ops..drop..Drop$GT$4drop28_$u7b$$u7b$closure$u7d$$u7d$17ha5c79a606721fbc5E', symObjAddr: 0x4EBC, symBinAddr: 0x19E3C, symSize: 0x3C }
  - { offset: 0x950BB, size: 0x8, addend: 0x0, symName: '__ZN78_$LT$std..io..error..repr_bitpacked..Repr$u20$as$u20$core..ops..drop..Drop$GT$4drop17h0b5b534e0dcc4dfbE', symObjAddr: 0x4E84, symBinAddr: 0x19E04, symSize: 0x38 }
  - { offset: 0x950E4, size: 0x8, addend: 0x0, symName: __ZN3std2io5error14repr_bitpacked11decode_repr17hea7e8884bd96055dE, symObjAddr: 0x3B30, symBinAddr: 0x195FC, symSize: 0x1DC }
  - { offset: 0x95329, size: 0x8, addend: 0x0, symName: __ZN3std2io5error14repr_bitpacked14kind_from_prim17hf5e46787798ae9e6E, symObjAddr: 0x3D0C, symBinAddr: 0x197D8, symSize: 0x4B0 }
  - { offset: 0x961B5, size: 0x8, addend: 0x0, symName: '__ZN81_$LT$std..io..default_write_fmt..Adapter$LT$T$GT$$u20$as$u20$core..fmt..Write$GT$9write_str17h9efc5406fb6200e8E', symObjAddr: 0x53CC, symBinAddr: 0x1A4AC, symSize: 0xB4 }
  - { offset: 0x96591, size: 0x8, addend: 0x0, symName: __ZN3std2io17default_write_fmt17hb4b1c1483d951a2fE, symObjAddr: 0x2D70, symBinAddr: 0x19E78, symSize: 0x100 }
  - { offset: 0x9667D, size: 0x8, addend: 0x0, symName: '__ZN69_$LT$std..os..fd..owned..OwnedFd$u20$as$u20$core..ops..drop..Drop$GT$4drop17h8c676d4dbfc64abbE', symObjAddr: 0x4C18, symBinAddr: 0x1A260, symSize: 0x40 }
  - { offset: 0x96BCC, size: 0x8, addend: 0x0, symName: '__ZN4core3ptr101drop_in_place$LT$std..io..error..ErrorData$LT$alloc..boxed..Box$LT$std..io..error..Custom$GT$$GT$$GT$17h6060d4650167a563E', symObjAddr: 0x34C8, symBinAddr: 0x1A01C, symSize: 0x48 }
  - { offset: 0x96BFB, size: 0x8, addend: 0x0, symName: '__ZN4core3ptr118drop_in_place$LT$alloc..boxed..Box$LT$dyn$u20$core..error..Error$u2b$core..marker..Sync$u2b$core..marker..Send$GT$$GT$17h7f705d31e80e8a60E', symObjAddr: 0x35D0, symBinAddr: 0x1A064, symSize: 0x80 }
  - { offset: 0x96C2A, size: 0x8, addend: 0x0, symName: '__ZN4core3ptr42drop_in_place$LT$std..io..error..Error$GT$17hb25982bbbae6fcf3E', symObjAddr: 0x3674, symBinAddr: 0x1A0E4, symSize: 0x24 }
  - { offset: 0x96C59, size: 0x8, addend: 0x0, symName: '__ZN4core3ptr43drop_in_place$LT$std..io..error..Custom$GT$17he0c6c70763232b94E', symObjAddr: 0x3698, symBinAddr: 0x1A108, symSize: 0x24 }
  - { offset: 0x96C88, size: 0x8, addend: 0x0, symName: '__ZN4core3ptr48drop_in_place$LT$std..os..fd..owned..OwnedFd$GT$17h4281b683ed3f0b6dE', symObjAddr: 0x374C, symBinAddr: 0x1A12C, symSize: 0x24 }
  - { offset: 0x96CB7, size: 0x8, addend: 0x0, symName: '__ZN4core3ptr49drop_in_place$LT$std..sys..fd..unix..FileDesc$GT$17h5f3e2b2e4e4b54afE', symObjAddr: 0x3770, symBinAddr: 0x1A150, symSize: 0x24 }
  - { offset: 0x96CE6, size: 0x8, addend: 0x0, symName: '__ZN4core3ptr57drop_in_place$LT$std..io..error..repr_bitpacked..Repr$GT$17haa8bd0d4210cdda1E', symObjAddr: 0x3824, symBinAddr: 0x1A174, symSize: 0x24 }
  - { offset: 0x96D15, size: 0x8, addend: 0x0, symName: '__ZN4core3ptr68drop_in_place$LT$alloc..boxed..Box$LT$std..io..error..Custom$GT$$GT$17h3293e0d5d6563bacE', symObjAddr: 0x398C, symBinAddr: 0x1A198, symSize: 0x60 }
  - { offset: 0x96D44, size: 0x8, addend: 0x0, symName: '__ZN4core3ptr81drop_in_place$LT$core..result..Result$LT$$LP$$RP$$C$std..io..error..Error$GT$$GT$17h564a79b23e9c0b5cE', symObjAddr: 0x3B00, symBinAddr: 0x1A1F8, symSize: 0x44 }
  - { offset: 0x96D73, size: 0x8, addend: 0x0, symName: '__ZN4core3ptr93drop_in_place$LT$std..io..default_write_fmt..Adapter$LT$std..sys..stdio..unix..Stderr$GT$$GT$17h8bd2213bf34d49c4E', symObjAddr: 0x3BB0, symBinAddr: 0x1A23C, symSize: 0x24 }
  - { offset: 0x97213, size: 0x8, addend: 0x0, symName: __ZN4core3fmt5Write10write_char17h1409194381f82d51E, symObjAddr: 0x3184, symBinAddr: 0x19F78, symSize: 0x70 }
  - { offset: 0x9727B, size: 0x8, addend: 0x0, symName: __ZN4core3fmt5Write9write_fmt17h6dbec67e375c33b8E, symObjAddr: 0x31F4, symBinAddr: 0x19FE8, symSize: 0x34 }
  - { offset: 0x972C8, size: 0x8, addend: 0x0, symName: '__ZN75_$LT$$RF$mut$u20$W$u20$as$u20$core..fmt..Write..write_fmt..SpecWriteFmt$GT$14spec_write_fmt17hcaa99cb3c9542299E', symObjAddr: 0x5174, symBinAddr: 0x1A414, symSize: 0x98 }
  - { offset: 0x9767D, size: 0x8, addend: 0x0, symName: '__ZN72_$LT$alloc..boxed..Box$LT$T$C$A$GT$$u20$as$u20$core..ops..drop..Drop$GT$4drop17h07c5d89bc017f777E', symObjAddr: 0x4F40, symBinAddr: 0x1A2A0, symSize: 0xB0 }
  - { offset: 0x977B6, size: 0x8, addend: 0x0, symName: '__ZN72_$LT$alloc..boxed..Box$LT$T$C$A$GT$$u20$as$u20$core..ops..drop..Drop$GT$4drop17h15a7dd6b3dbab5b9E', symObjAddr: 0x4FF0, symBinAddr: 0x1A350, symSize: 0xC4 }
  - { offset: 0x998B0, size: 0x8, addend: 0x0, symName: '__ZN42_$LT$$RF$T$u20$as$u20$core..fmt..Debug$GT$3fmt17h253127ad96d41b0eE', symObjAddr: 0x5BE4, symBinAddr: 0x1B684, symSize: 0x30 }
  - { offset: 0x998FC, size: 0x8, addend: 0x0, symName: '__ZN44_$LT$$RF$T$u20$as$u20$core..fmt..Display$GT$3fmt17h2f26ded754ce9506E', symObjAddr: 0x5C14, symBinAddr: 0x1B6B4, symSize: 0x30 }
  - { offset: 0x99942, size: 0x8, addend: 0x0, symName: '__ZN44_$LT$$RF$T$u20$as$u20$core..fmt..Display$GT$3fmt17h496395be77cfecbdE', symObjAddr: 0x5C44, symBinAddr: 0x1B6E4, symSize: 0x30 }
  - { offset: 0x99AD0, size: 0x8, addend: 0x0, symName: '__ZN4core5array4iter94_$LT$impl$u20$core..iter..traits..collect..IntoIterator$u20$for$u20$$u5b$T$u3b$$u20$N$u5d$$GT$9into_iter17h07115cb8aec29733E', symObjAddr: 0x5D04, symBinAddr: 0x1B714, symSize: 0x68 }
  - { offset: 0x9A781, size: 0x8, addend: 0x0, symName: '__ZN50_$LT$T$u20$as$u20$core..convert..Into$LT$U$GT$$GT$4into17h0423ad413fa1dae3E', symObjAddr: 0x103C8, symBinAddr: 0x1DEB4, symSize: 0x24 }
  - { offset: 0x9A7C1, size: 0x8, addend: 0x0, symName: '__ZN50_$LT$T$u20$as$u20$core..convert..Into$LT$U$GT$$GT$4into17h2cae7d1bc7cd23bdE', symObjAddr: 0x10458, symBinAddr: 0x1DED8, symSize: 0x24 }
  - { offset: 0x9A801, size: 0x8, addend: 0x0, symName: '__ZN50_$LT$T$u20$as$u20$core..convert..Into$LT$U$GT$$GT$4into17h326eb54242a27d5fE', symObjAddr: 0x1047C, symBinAddr: 0x1DEFC, symSize: 0x24 }
  - { offset: 0x9A841, size: 0x8, addend: 0x0, symName: '__ZN50_$LT$T$u20$as$u20$core..convert..Into$LT$U$GT$$GT$4into17h61cc68d16ca71046E', symObjAddr: 0x104C4, symBinAddr: 0x1DF20, symSize: 0x24 }
  - { offset: 0x9A881, size: 0x8, addend: 0x0, symName: '__ZN50_$LT$T$u20$as$u20$core..convert..Into$LT$U$GT$$GT$4into17haf713e5ec88b3534E', symObjAddr: 0x104E8, symBinAddr: 0x1DF44, symSize: 0x24 }
  - { offset: 0x9A8C1, size: 0x8, addend: 0x0, symName: '__ZN50_$LT$T$u20$as$u20$core..convert..Into$LT$U$GT$$GT$4into17hd2c793c5a3e4a0e2E', symObjAddr: 0x10554, symBinAddr: 0x1DF68, symSize: 0x24 }
  - { offset: 0x9A956, size: 0x8, addend: 0x0, symName: '__ZN103_$LT$pyo3..instance..Bound$LT$pyo3..types..any..PyAny$GT$$u20$as$u20$pyo3..types..any..PyAnyMethods$GT$13downcast_into17h74240d23f08d1940E', symObjAddr: 0x40C, symBinAddr: 0x1A560, symSize: 0xE8 }
  - { offset: 0x9A98D, size: 0x8, addend: 0x0, symName: '__ZN103_$LT$pyo3..instance..Bound$LT$pyo3..types..any..PyAny$GT$$u20$as$u20$pyo3..types..any..PyAnyMethods$GT$13downcast_into17he26d55d90e87bc04E', symObjAddr: 0x6C4, symBinAddr: 0x1A648, symSize: 0xE8 }
  - { offset: 0x9A9C4, size: 0x8, addend: 0x0, symName: '__ZN103_$LT$pyo3..instance..Bound$LT$pyo3..types..any..PyAny$GT$$u20$as$u20$pyo3..types..any..PyAnyMethods$GT$14downcast_exact17h45580a8014581669E', symObjAddr: 0x7AC, symBinAddr: 0x1A730, symSize: 0x84 }
  - { offset: 0x9A9FB, size: 0x8, addend: 0x0, symName: '__ZN103_$LT$pyo3..instance..Bound$LT$pyo3..types..any..PyAny$GT$$u20$as$u20$pyo3..types..any..PyAnyMethods$GT$18downcast_unchecked17h24b6369b560406e8E', symObjAddr: 0x830, symBinAddr: 0x1A7B4, symSize: 0x6C }
  - { offset: 0x9AA32, size: 0x8, addend: 0x0, symName: '__ZN103_$LT$pyo3..instance..Bound$LT$pyo3..types..any..PyAny$GT$$u20$as$u20$pyo3..types..any..PyAnyMethods$GT$18downcast_unchecked17hb38fb52e7c5589aeE', symObjAddr: 0xAB8, symBinAddr: 0x1A820, symSize: 0x6C }
  - { offset: 0x9AA69, size: 0x8, addend: 0x0, symName: '__ZN103_$LT$pyo3..instance..Bound$LT$pyo3..types..any..PyAny$GT$$u20$as$u20$pyo3..types..any..PyAnyMethods$GT$20is_exact_instance_of17h3bfaa67c0b3f4febE', symObjAddr: 0xBFC, symBinAddr: 0x1A88C, symSize: 0x24 }
  - { offset: 0x9AAA0, size: 0x8, addend: 0x0, symName: '__ZN103_$LT$pyo3..instance..Bound$LT$pyo3..types..any..PyAny$GT$$u20$as$u20$pyo3..types..any..PyAnyMethods$GT$23downcast_into_unchecked17h256de1e38650c516E', symObjAddr: 0xC70, symBinAddr: 0x1A8B0, symSize: 0x14 }
  - { offset: 0x9AAD7, size: 0x8, addend: 0x0, symName: '__ZN103_$LT$pyo3..instance..Bound$LT$pyo3..types..any..PyAny$GT$$u20$as$u20$pyo3..types..any..PyAnyMethods$GT$23downcast_into_unchecked17h435c0e88aa5dc05dE', symObjAddr: 0xC98, symBinAddr: 0x1A8C4, symSize: 0x14 }
  - { offset: 0x9AB0E, size: 0x8, addend: 0x0, symName: '__ZN103_$LT$pyo3..instance..Bound$LT$pyo3..types..any..PyAny$GT$$u20$as$u20$pyo3..types..any..PyAnyMethods$GT$23downcast_into_unchecked17h4a195c261ac8bdbeE', symObjAddr: 0xCC0, symBinAddr: 0x1A8D8, symSize: 0x14 }
  - { offset: 0x9AB45, size: 0x8, addend: 0x0, symName: '__ZN103_$LT$pyo3..instance..Bound$LT$pyo3..types..any..PyAny$GT$$u20$as$u20$pyo3..types..any..PyAnyMethods$GT$23downcast_into_unchecked17h8daeac342aca84e3E', symObjAddr: 0xD60, symBinAddr: 0x1A8EC, symSize: 0x14 }
  - { offset: 0x9AB7C, size: 0x8, addend: 0x0, symName: '__ZN103_$LT$pyo3..instance..Bound$LT$pyo3..types..any..PyAny$GT$$u20$as$u20$pyo3..types..any..PyAnyMethods$GT$23downcast_into_unchecked17haf316b0fe79e7b57E', symObjAddr: 0xDB0, symBinAddr: 0x1A900, symSize: 0x14 }
  - { offset: 0x9ABB3, size: 0x8, addend: 0x0, symName: '__ZN103_$LT$pyo3..instance..Bound$LT$pyo3..types..any..PyAny$GT$$u20$as$u20$pyo3..types..any..PyAnyMethods$GT$23downcast_into_unchecked17hf118576d452cc134E', symObjAddr: 0xE28, symBinAddr: 0x1A914, symSize: 0x14 }
  - { offset: 0x9ABEA, size: 0x8, addend: 0x0, symName: '__ZN103_$LT$pyo3..instance..Bound$LT$pyo3..types..any..PyAny$GT$$u20$as$u20$pyo3..types..any..PyAnyMethods$GT$2is17h6bbe6753c5130a5dE', symObjAddr: 0xE50, symBinAddr: 0x1A928, symSize: 0x4C }
  - { offset: 0x9AC30, size: 0x8, addend: 0x0, symName: '__ZN103_$LT$pyo3..instance..Bound$LT$pyo3..types..any..PyAny$GT$$u20$as$u20$pyo3..types..any..PyAnyMethods$GT$3str17haf5054fd77529a42E', symObjAddr: 0xFA0, symBinAddr: 0x1A974, symSize: 0x5C }
  - { offset: 0x9AC5E, size: 0x8, addend: 0x0, symName: '__ZN103_$LT$pyo3..instance..Bound$LT$pyo3..types..any..PyAny$GT$$u20$as$u20$pyo3..types..any..PyAnyMethods$GT$4repr17hff61370d4d116371E', symObjAddr: 0x1470, symBinAddr: 0x1A9D0, symSize: 0x5C }
  - { offset: 0x9AC8C, size: 0x8, addend: 0x0, symName: '__ZN103_$LT$pyo3..instance..Bound$LT$pyo3..types..any..PyAny$GT$$u20$as$u20$pyo3..types..any..PyAnyMethods$GT$7extract17h80f70d3d185bea57E', symObjAddr: 0x17C0, symBinAddr: 0x1AA2C, symSize: 0x30 }
  - { offset: 0x9ACC3, size: 0x8, addend: 0x0, symName: '__ZN103_$LT$pyo3..instance..Bound$LT$pyo3..types..any..PyAny$GT$$u20$as$u20$pyo3..types..any..PyAnyMethods$GT$7extract17hcd638a0d1ca4c838E', symObjAddr: 0x1880, symBinAddr: 0x1AA5C, symSize: 0x30 }
  - { offset: 0x9ACFA, size: 0x8, addend: 0x0, symName: '__ZN103_$LT$pyo3..instance..Bound$LT$pyo3..types..any..PyAny$GT$$u20$as$u20$pyo3..types..any..PyAnyMethods$GT$7getattr17h0572e60ca403c742E', symObjAddr: 0x1A00, symBinAddr: 0x1AA8C, symSize: 0xE4 }
  - { offset: 0x9AD56, size: 0x8, addend: 0x0, symName: '__ZN103_$LT$pyo3..instance..Bound$LT$pyo3..types..any..PyAny$GT$$u20$as$u20$pyo3..types..any..PyAnyMethods$GT$7setattr17h015da567f1597f5eE', symObjAddr: 0x1B28, symBinAddr: 0x1AB70, symSize: 0x140 }
  - { offset: 0x9ADCA, size: 0x8, addend: 0x0, symName: '__ZN103_$LT$pyo3..instance..Bound$LT$pyo3..types..any..PyAny$GT$$u20$as$u20$pyo3..types..any..PyAnyMethods$GT$7setattr17hf20683018199e44cE', symObjAddr: 0x1C68, symBinAddr: 0x1ACB0, symSize: 0x11C }
  - { offset: 0x9AE3F, size: 0x8, addend: 0x0, symName: '__ZN103_$LT$pyo3..instance..Bound$LT$pyo3..types..any..PyAny$GT$$u20$as$u20$pyo3..types..any..PyAnyMethods$GT$8downcast17h4ae84f35f2ceba0fE', symObjAddr: 0x1E08, symBinAddr: 0x1ADCC, symSize: 0x84 }
  - { offset: 0x9AE76, size: 0x8, addend: 0x0, symName: '__ZN103_$LT$pyo3..instance..Bound$LT$pyo3..types..any..PyAny$GT$$u20$as$u20$pyo3..types..any..PyAnyMethods$GT$8get_type17h8852d3605e355409E', symObjAddr: 0x211C, symBinAddr: 0x1AE50, symSize: 0x38 }
  - { offset: 0x9AF13, size: 0x8, addend: 0x0, symName: '__ZN107_$LT$pyo3..instance..Bound$LT$pyo3..types..list..PyList$GT$$u20$as$u20$pyo3..types..list..PyListMethods$GT$6append17h985f82d4788029c9E', symObjAddr: 0x2840, symBinAddr: 0x1AEF4, symSize: 0x80 }
  - { offset: 0x9AF98, size: 0x8, addend: 0x0, symName: '__ZN111_$LT$pyo3..instance..Bound$LT$pyo3..types..bytes..PyBytes$GT$$u20$as$u20$pyo3..types..bytes..PyBytesMethods$GT$8as_bytes17had5f5f0a2bd17e75E', symObjAddr: 0x2A60, symBinAddr: 0x1AF74, symSize: 0x28 }
  - { offset: 0x9AFE5, size: 0x8, addend: 0x0, symName: '__ZN111_$LT$pyo3..instance..Bound$LT$pyo3..types..float..PyFloat$GT$$u20$as$u20$pyo3..types..float..PyFloatMethods$GT$5value17h7aacb271a4eb74dbE', symObjAddr: 0x2A88, symBinAddr: 0x1AF9C, symSize: 0x28 }
  - { offset: 0x9B032, size: 0x8, addend: 0x0, symName: '__ZN111_$LT$pyo3..instance..Bound$LT$pyo3..types..tuple..PyTuple$GT$$u20$as$u20$pyo3..types..tuple..PyTupleMethods$GT$3len17h31ebc2121aaee2deE', symObjAddr: 0x2CC8, symBinAddr: 0x1AFC4, symSize: 0x2C }
  - { offset: 0x9B0AE, size: 0x8, addend: 0x0, symName: '__ZN115_$LT$pyo3..instance..Bound$LT$pyo3..types..module..PyModule$GT$$u20$as$u20$pyo3..types..module..PyModuleMethods$GT$5index17hd9e51a61cc379d85E', symObjAddr: 0x394C, symBinAddr: 0x1B014, symSize: 0x248 }
  - { offset: 0x9B181, size: 0x8, addend: 0x0, symName: '__ZN115_$LT$pyo3..instance..Bound$LT$pyo3..types..string..PyString$GT$$u20$as$u20$pyo3..types..string..PyStringMethods$GT$15to_string_lossy17h9903398973113b03E', symObjAddr: 0x3C4C, symBinAddr: 0x1B25C, symSize: 0x30 }
  - { offset: 0x9B1AF, size: 0x8, addend: 0x0, symName: '__ZN115_$LT$pyo3..instance..Bound$LT$pyo3..types..string..PyString$GT$$u20$as$u20$pyo3..types..string..PyStringMethods$GT$6to_cow17h5cde4776c15fc643E', symObjAddr: 0x3CAC, symBinAddr: 0x1B28C, symSize: 0x30 }
  - { offset: 0x9B1E3, size: 0x8, addend: 0x0, symName: '__ZN4pyo35types6string176_$LT$impl$u20$pyo3..conversion..IntoPy$LT$pyo3..instance..Py$LT$pyo3..types..string..PyString$GT$$GT$$u20$for$u20$pyo3..instance..Bound$LT$pyo3..types..string..PyString$GT$$GT$7into_py17hc37a0345e5926160E', symObjAddr: 0x6450, symBinAddr: 0x1BA54, symSize: 0x24 }
  - { offset: 0x9B232, size: 0x8, addend: 0x0, symName: '__ZN4pyo35types6string180_$LT$impl$u20$pyo3..conversion..IntoPy$LT$pyo3..instance..Py$LT$pyo3..types..string..PyString$GT$$GT$$u20$for$u20$$RF$pyo3..instance..Bound$LT$pyo3..types..string..PyString$GT$$GT$7into_py17hbac12768d30257e5E', symObjAddr: 0x6498, symBinAddr: 0x1BA78, symSize: 0x28 }
  - { offset: 0x9B31B, size: 0x8, addend: 0x0, symName: '__ZN119_$LT$pyo3..instance..Bound$LT$pyo3..types..typeobject..PyType$GT$$u20$as$u20$pyo3..types..typeobject..PyTypeMethods$GT$11as_type_ptr17he0648c6e3cab6936E', symObjAddr: 0x45DC, symBinAddr: 0x1B2BC, symSize: 0x24 }
  - { offset: 0x9B347, size: 0x8, addend: 0x0, symName: '__ZN119_$LT$pyo3..instance..Bound$LT$pyo3..types..typeobject..PyType$GT$$u20$as$u20$pyo3..types..typeobject..PyTypeMethods$GT$4name17h88d8ded3143093ccE', symObjAddr: 0x46E4, symBinAddr: 0x1B2E0, symSize: 0x30 }
  - { offset: 0x9B373, size: 0x8, addend: 0x0, symName: '__ZN119_$LT$pyo3..instance..Bound$LT$pyo3..types..typeobject..PyType$GT$$u20$as$u20$pyo3..types..typeobject..PyTypeMethods$GT$8qualname17h776e9eda14f231e4E', symObjAddr: 0x4714, symBinAddr: 0x1B310, symSize: 0x110 }
  - { offset: 0x9B48A, size: 0x8, addend: 0x0, symName: '__ZN105_$LT$pyo3..instance..Py$LT$T$GT$$u20$as$u20$core..convert..From$LT$pyo3..instance..Bound$LT$T$GT$$GT$$GT$4from17h2f300f601b99de82E', symObjAddr: 0x23A4, symBinAddr: 0x1AE88, symSize: 0x24 }
  - { offset: 0x9B4C1, size: 0x8, addend: 0x0, symName: '__ZN105_$LT$pyo3..instance..Py$LT$T$GT$$u20$as$u20$core..convert..From$LT$pyo3..instance..Bound$LT$T$GT$$GT$$GT$4from17h3ab2bdaddcb0da3aE', symObjAddr: 0x23C8, symBinAddr: 0x1AEAC, symSize: 0x24 }
  - { offset: 0x9B4F8, size: 0x8, addend: 0x0, symName: '__ZN105_$LT$pyo3..instance..Py$LT$T$GT$$u20$as$u20$core..convert..From$LT$pyo3..instance..Bound$LT$T$GT$$GT$$GT$4from17ha7b274dfd2d24437E', symObjAddr: 0x23EC, symBinAddr: 0x1AED0, symSize: 0x24 }
  - { offset: 0x9B535, size: 0x8, addend: 0x0, symName: '__ZN115_$LT$pyo3..instance..Borrowed$LT$T$GT$$u20$as$u20$core..convert..From$LT$$RF$pyo3..instance..Bound$LT$T$GT$$GT$$GT$4from17h085d158eb4e43922E', symObjAddr: 0x3060, symBinAddr: 0x1AFF0, symSize: 0x24 }
  - { offset: 0x9B572, size: 0x8, addend: 0x0, symName: '__ZN124_$LT$pyo3..instance..Py$LT$pyo3..types..any..PyAny$GT$$u20$as$u20$core..convert..From$LT$pyo3..instance..Py$LT$T$GT$$GT$$GT$4from17hda7f3ce0bae596d1E', symObjAddr: 0x4B98, symBinAddr: 0x1B420, symSize: 0x24 }
  - { offset: 0x9B5AF, size: 0x8, addend: 0x0, symName: '__ZN127_$LT$pyo3..instance..Py$LT$pyo3..types..any..PyAny$GT$$u20$as$u20$core..convert..From$LT$pyo3..instance..Bound$LT$T$GT$$GT$$GT$4from17h6bffbab98b96b104E', symObjAddr: 0x5460, symBinAddr: 0x1B444, symSize: 0x84 }
  - { offset: 0x9B604, size: 0x8, addend: 0x0, symName: '__ZN127_$LT$pyo3..instance..Py$LT$pyo3..types..any..PyAny$GT$$u20$as$u20$core..convert..From$LT$pyo3..instance..Bound$LT$T$GT$$GT$$GT$4from17hbb1d38ab0c9d8c3aE', symObjAddr: 0x5568, symBinAddr: 0x1B4C8, symSize: 0x84 }
  - { offset: 0x9B65F, size: 0x8, addend: 0x0, symName: '__ZN129_$LT$pyo3..instance..Py$LT$T$GT$$u20$as$u20$pyo3..conversion..IntoPy$LT$pyo3..instance..Py$LT$pyo3..types..any..PyAny$GT$$GT$$GT$7into_py17h2671c2ce7a9de2daE', symObjAddr: 0x5778, symBinAddr: 0x1B54C, symSize: 0x24 }
  - { offset: 0x9B6B7, size: 0x8, addend: 0x0, symName: '__ZN132_$LT$pyo3..instance..Bound$LT$T$GT$$u20$as$u20$pyo3..conversion..IntoPy$LT$pyo3..instance..Py$LT$pyo3..types..any..PyAny$GT$$GT$$GT$7into_py17h1babf7bfc3c7838aE', symObjAddr: 0x57C4, symBinAddr: 0x1B570, symSize: 0x28 }
  - { offset: 0x9B709, size: 0x8, addend: 0x0, symName: '__ZN132_$LT$pyo3..instance..Bound$LT$T$GT$$u20$as$u20$pyo3..conversion..IntoPy$LT$pyo3..instance..Py$LT$pyo3..types..any..PyAny$GT$$GT$$GT$7into_py17h4122f254a267bcd0E', symObjAddr: 0x5814, symBinAddr: 0x1B598, symSize: 0x28 }
  - { offset: 0x9B75B, size: 0x8, addend: 0x0, symName: '__ZN132_$LT$pyo3..instance..Bound$LT$T$GT$$u20$as$u20$pyo3..conversion..IntoPy$LT$pyo3..instance..Py$LT$pyo3..types..any..PyAny$GT$$GT$$GT$7into_py17h70c98c9a440291e6E', symObjAddr: 0x5864, symBinAddr: 0x1B5C0, symSize: 0x28 }
  - { offset: 0x9B7AD, size: 0x8, addend: 0x0, symName: '__ZN132_$LT$pyo3..instance..Bound$LT$T$GT$$u20$as$u20$pyo3..conversion..IntoPy$LT$pyo3..instance..Py$LT$pyo3..types..any..PyAny$GT$$GT$$GT$7into_py17haa659ee00d86f149E', symObjAddr: 0x588C, symBinAddr: 0x1B5E8, symSize: 0x28 }
  - { offset: 0x9B7FF, size: 0x8, addend: 0x0, symName: '__ZN132_$LT$pyo3..instance..Bound$LT$T$GT$$u20$as$u20$pyo3..conversion..IntoPy$LT$pyo3..instance..Py$LT$pyo3..types..any..PyAny$GT$$GT$$GT$7into_py17hede276cc149d32cdE', symObjAddr: 0x592C, symBinAddr: 0x1B610, symSize: 0x28 }
  - { offset: 0x9B857, size: 0x8, addend: 0x0, symName: '__ZN135_$LT$pyo3..instance..Borrowed$LT$T$GT$$u20$as$u20$pyo3..conversion..IntoPy$LT$pyo3..instance..Py$LT$pyo3..types..any..PyAny$GT$$GT$$GT$7into_py17hdc08109bb1d13a7fE', symObjAddr: 0x59C8, symBinAddr: 0x1B638, symSize: 0x28 }
  - { offset: 0x9B8AF, size: 0x8, addend: 0x0, symName: '__ZN136_$LT$$RF$pyo3..instance..Bound$LT$T$GT$$u20$as$u20$pyo3..conversion..IntoPy$LT$pyo3..instance..Py$LT$pyo3..types..any..PyAny$GT$$GT$$GT$7into_py17h2ca1ce4ef17a09acE', symObjAddr: 0x5A38, symBinAddr: 0x1B660, symSize: 0x24 }
  - { offset: 0x9CF55, size: 0x8, addend: 0x0, symName: '__ZN4pyo38instance11Py$LT$T$GT$21from_owned_ptr_or_opt28_$u7b$$u7b$closure$u7d$$u7d$17h66ef51768a406168E', symObjAddr: 0x8688, symBinAddr: 0x1C244, symSize: 0x14 }
  - { offset: 0x9CF97, size: 0x8, addend: 0x0, symName: '__ZN4pyo38instance11Py$LT$T$GT$21from_owned_ptr_or_opt28_$u7b$$u7b$closure$u7d$$u7d$17h9dea4b4e671682d6E', symObjAddr: 0x869C, symBinAddr: 0x1C258, symSize: 0x14 }
  - { offset: 0x9CFED, size: 0x8, addend: 0x0, symName: '__ZN4pyo38instance11Py$LT$T$GT$24from_borrowed_ptr_or_opt28_$u7b$$u7b$closure$u7d$$u7d$17h2a8ad1132592667aE', symObjAddr: 0x8BB4, symBinAddr: 0x1C3D8, symSize: 0xFC }
  - { offset: 0x9D09D, size: 0x8, addend: 0x0, symName: '__ZN4pyo38instance11Py$LT$T$GT$24from_borrowed_ptr_or_opt28_$u7b$$u7b$closure$u7d$$u7d$17h2b88d025a8f34a4fE', symObjAddr: 0x8CB0, symBinAddr: 0x1C4D4, symSize: 0xFC }
  - { offset: 0x9D14D, size: 0x8, addend: 0x0, symName: '__ZN4pyo38instance11Py$LT$T$GT$24from_borrowed_ptr_or_opt28_$u7b$$u7b$closure$u7d$$u7d$17h4fdcb5f4bccc6982E', symObjAddr: 0x8EA8, symBinAddr: 0x1C5D0, symSize: 0xFC }
  - { offset: 0x9D1FD, size: 0x8, addend: 0x0, symName: '__ZN4pyo38instance11Py$LT$T$GT$24from_borrowed_ptr_or_opt28_$u7b$$u7b$closure$u7d$$u7d$17h9cc64614902f92adE', symObjAddr: 0x919C, symBinAddr: 0x1C6CC, symSize: 0xFC }
  - { offset: 0x9D2AD, size: 0x8, addend: 0x0, symName: '__ZN4pyo38instance11Py$LT$T$GT$24from_borrowed_ptr_or_opt28_$u7b$$u7b$closure$u7d$$u7d$17hc0e28a0afcf74297E', symObjAddr: 0x9394, symBinAddr: 0x1C7C8, symSize: 0xFC }
  - { offset: 0x9D35D, size: 0x8, addend: 0x0, symName: '__ZN4pyo38instance11Py$LT$T$GT$24from_borrowed_ptr_or_opt28_$u7b$$u7b$closure$u7d$$u7d$17hc1a79cdd8a311799E', symObjAddr: 0x9490, symBinAddr: 0x1C8C4, symSize: 0xFC }
  - { offset: 0x9D40D, size: 0x8, addend: 0x0, symName: '__ZN4pyo38instance11Py$LT$T$GT$24from_borrowed_ptr_or_opt28_$u7b$$u7b$closure$u7d$$u7d$17he29671d51b50109bE', symObjAddr: 0x9784, symBinAddr: 0x1C9C0, symSize: 0xFC }
  - { offset: 0x9D7A8, size: 0x8, addend: 0x0, symName: __ZN4pyo38instance13python_format17hd34c2ac4e0c70f7fE, symObjAddr: 0xA4F0, symBinAddr: 0x1D080, symSize: 0x2F0 }
  - { offset: 0x9DE0A, size: 0x8, addend: 0x0, symName: '__ZN4pyo38instance36Bound$LT$pyo3..types..any..PyAny$GT$21from_owned_ptr_or_err28_$u7b$$u7b$closure$u7d$$u7d$17h93f34abf98dce623E', symObjAddr: 0xFFEC, symBinAddr: 0x1DCE0, symSize: 0x28 }
  - { offset: 0x9DE68, size: 0x8, addend: 0x0, symName: '__ZN4pyo38instance36Bound$LT$pyo3..types..any..PyAny$GT$21from_owned_ptr_or_opt28_$u7b$$u7b$closure$u7d$$u7d$17hf49281123a967a22E', symObjAddr: 0x10040, symBinAddr: 0x1DD34, symSize: 0x28 }
  - { offset: 0x9DECC, size: 0x8, addend: 0x0, symName: '__ZN4pyo38instance39Borrowed$LT$pyo3..types..any..PyAny$GT$15from_ptr_or_opt28_$u7b$$u7b$closure$u7d$$u7d$17hb0d6b5db25012af4E', symObjAddr: 0x10138, symBinAddr: 0x1DD5C, symSize: 0x20 }
  - { offset: 0x9DF2E, size: 0x8, addend: 0x0, symName: '__ZN4pyo38instance39Borrowed$LT$pyo3..types..any..PyAny$GT$8from_ptr28_$u7b$$u7b$closure$u7d$$u7d$17hf14b20b6109c4e85E', symObjAddr: 0x103B4, symBinAddr: 0x1DEA0, symSize: 0x14 }
  - { offset: 0x9DF82, size: 0x8, addend: 0x0, symName: '__ZN66_$LT$pyo3..instance..Py$LT$T$GT$$u20$as$u20$core..clone..Clone$GT$5clone17ha104ed70d984cf4dE', symObjAddr: 0x10634, symBinAddr: 0x1E000, symSize: 0x34 }
  - { offset: 0x9DFBF, size: 0x8, addend: 0x0, symName: '__ZN67_$LT$pyo3..instance..Bound$LT$T$GT$$u20$as$u20$core..fmt..Debug$GT$3fmt17h01a3779453a4d5f5E', symObjAddr: 0x10668, symBinAddr: 0x1E034, symSize: 0x54 }
  - { offset: 0x9E023, size: 0x8, addend: 0x0, symName: '__ZN67_$LT$pyo3..instance..Bound$LT$T$GT$$u20$as$u20$core..fmt..Debug$GT$3fmt17h5fa6837f8d9571ebE', symObjAddr: 0x106BC, symBinAddr: 0x1E088, symSize: 0x54 }
  - { offset: 0x9E087, size: 0x8, addend: 0x0, symName: '__ZN67_$LT$pyo3..instance..Bound$LT$T$GT$$u20$as$u20$core..fmt..Debug$GT$3fmt17hee88ed885dc09e42E', symObjAddr: 0x10710, symBinAddr: 0x1E0DC, symSize: 0x54 }
  - { offset: 0x9E0F1, size: 0x8, addend: 0x0, symName: '__ZN69_$LT$pyo3..instance..Bound$LT$T$GT$$u20$as$u20$core..clone..Clone$GT$5clone17h245b7bd40da0e46bE', symObjAddr: 0x10800, symBinAddr: 0x1E130, symSize: 0x34 }
  - { offset: 0x9E128, size: 0x8, addend: 0x0, symName: '__ZN69_$LT$pyo3..instance..Bound$LT$T$GT$$u20$as$u20$core..clone..Clone$GT$5clone17h458a676c3600b305E', symObjAddr: 0x108D0, symBinAddr: 0x1E164, symSize: 0x34 }
  - { offset: 0x9E15F, size: 0x8, addend: 0x0, symName: '__ZN69_$LT$pyo3..instance..Bound$LT$T$GT$$u20$as$u20$core..clone..Clone$GT$5clone17h4a8a6d8fdf73dfd2E', symObjAddr: 0x10904, symBinAddr: 0x1E198, symSize: 0x34 }
  - { offset: 0x9E196, size: 0x8, addend: 0x0, symName: '__ZN69_$LT$pyo3..instance..Bound$LT$T$GT$$u20$as$u20$core..clone..Clone$GT$5clone17h68d1030f7370cd76E', symObjAddr: 0x10938, symBinAddr: 0x1E1CC, symSize: 0x34 }
  - { offset: 0x9E1CD, size: 0x8, addend: 0x0, symName: '__ZN69_$LT$pyo3..instance..Bound$LT$T$GT$$u20$as$u20$core..clone..Clone$GT$5clone17h76c04d432c221073E', symObjAddr: 0x109A0, symBinAddr: 0x1E200, symSize: 0x34 }
  - { offset: 0x9E20A, size: 0x8, addend: 0x0, symName: '__ZN69_$LT$pyo3..instance..Bound$LT$T$GT$$u20$as$u20$core..fmt..Display$GT$3fmt17h4d5a406a913789e3E', symObjAddr: 0x10A90, symBinAddr: 0x1E234, symSize: 0x54 }
  - { offset: 0x9E26E, size: 0x8, addend: 0x0, symName: '__ZN69_$LT$pyo3..instance..Bound$LT$T$GT$$u20$as$u20$core..fmt..Display$GT$3fmt17h6c573a59661e0b07E', symObjAddr: 0x10AE4, symBinAddr: 0x1E288, symSize: 0x54 }
  - { offset: 0x9E2D8, size: 0x8, addend: 0x0, symName: '__ZN69_$LT$pyo3..instance..Py$LT$T$GT$$u20$as$u20$core..ops..drop..Drop$GT$4drop17h4297739d78c2a755E', symObjAddr: 0x10B60, symBinAddr: 0x1E2DC, symSize: 0x28 }
  - { offset: 0x9E30B, size: 0x8, addend: 0x0, symName: '__ZN69_$LT$pyo3..instance..Py$LT$T$GT$$u20$as$u20$core..ops..drop..Drop$GT$4drop17h6b14de9c700a1888E', symObjAddr: 0x10B88, symBinAddr: 0x1E304, symSize: 0x28 }
  - { offset: 0x9E33E, size: 0x8, addend: 0x0, symName: '__ZN69_$LT$pyo3..instance..Py$LT$T$GT$$u20$as$u20$core..ops..drop..Drop$GT$4drop17h7002037b82e3c395E', symObjAddr: 0x10BB0, symBinAddr: 0x1E32C, symSize: 0x28 }
  - { offset: 0x9E371, size: 0x8, addend: 0x0, symName: '__ZN69_$LT$pyo3..instance..Py$LT$T$GT$$u20$as$u20$core..ops..drop..Drop$GT$4drop17h9ddb0205ed07bda2E', symObjAddr: 0x10BD8, symBinAddr: 0x1E354, symSize: 0x28 }
  - { offset: 0x9E3A4, size: 0x8, addend: 0x0, symName: '__ZN69_$LT$pyo3..instance..Py$LT$T$GT$$u20$as$u20$core..ops..drop..Drop$GT$4drop17hd191f382aa32660fE', symObjAddr: 0x10C00, symBinAddr: 0x1E37C, symSize: 0x28 }
  - { offset: 0x9E3D7, size: 0x8, addend: 0x0, symName: '__ZN69_$LT$pyo3..instance..Py$LT$T$GT$$u20$as$u20$core..ops..drop..Drop$GT$4drop17hdb7487ff12180eb7E', symObjAddr: 0x10C28, symBinAddr: 0x1E3A4, symSize: 0x28 }
  - { offset: 0x9E410, size: 0x8, addend: 0x0, symName: '__ZN72_$LT$pyo3..instance..Bound$LT$T$GT$$u20$as$u20$core..ops..drop..Drop$GT$4drop17h2429bd99dbadf091E', symObjAddr: 0x11130, symBinAddr: 0x1E3CC, symSize: 0x1A0 }
  - { offset: 0x9E47F, size: 0x8, addend: 0x0, symName: '__ZN72_$LT$pyo3..instance..Bound$LT$T$GT$$u20$as$u20$core..ops..drop..Drop$GT$4drop17h36ac51169f60846fE', symObjAddr: 0x11470, symBinAddr: 0x1E56C, symSize: 0x1A0 }
  - { offset: 0x9E4EE, size: 0x8, addend: 0x0, symName: '__ZN72_$LT$pyo3..instance..Bound$LT$T$GT$$u20$as$u20$core..ops..drop..Drop$GT$4drop17h938a5fd8bf22ad86E', symObjAddr: 0x124B0, symBinAddr: 0x1E70C, symSize: 0x1A0 }
  - { offset: 0x9E55D, size: 0x8, addend: 0x0, symName: '__ZN72_$LT$pyo3..instance..Bound$LT$T$GT$$u20$as$u20$core..ops..drop..Drop$GT$4drop17h9a26399332e34fa2E', symObjAddr: 0x127F0, symBinAddr: 0x1E8AC, symSize: 0x1A0 }
  - { offset: 0x9E5CC, size: 0x8, addend: 0x0, symName: '__ZN72_$LT$pyo3..instance..Bound$LT$T$GT$$u20$as$u20$core..ops..drop..Drop$GT$4drop17ha53e94d740afd4daE', symObjAddr: 0x12990, symBinAddr: 0x1EA4C, symSize: 0x1A0 }
  - { offset: 0x9E63B, size: 0x8, addend: 0x0, symName: '__ZN72_$LT$pyo3..instance..Bound$LT$T$GT$$u20$as$u20$core..ops..drop..Drop$GT$4drop17hc350d3b208497120E', symObjAddr: 0x12CD0, symBinAddr: 0x1EBEC, symSize: 0x1A0 }
  - { offset: 0x9E6AA, size: 0x8, addend: 0x0, symName: '__ZN72_$LT$pyo3..instance..Bound$LT$T$GT$$u20$as$u20$core..ops..drop..Drop$GT$4drop17hdf46ab7c1636d643E', symObjAddr: 0x13350, symBinAddr: 0x1ED8C, symSize: 0x1A0 }
  - { offset: 0x9E71F, size: 0x8, addend: 0x0, symName: '__ZN74_$LT$pyo3..instance..Bound$LT$T$GT$$u20$as$u20$core..ops..deref..Deref$GT$5deref17h86cc50796878cbe8E', symObjAddr: 0x140C4, symBinAddr: 0x1EF2C, symSize: 0x24 }
  - { offset: 0x9E756, size: 0x8, addend: 0x0, symName: '__ZN74_$LT$pyo3..instance..Bound$LT$T$GT$$u20$as$u20$core..ops..deref..Deref$GT$5deref17hc213d48684da2098E', symObjAddr: 0x14490, symBinAddr: 0x1EF50, symSize: 0x24 }
  - { offset: 0x9E78D, size: 0x8, addend: 0x0, symName: '__ZN74_$LT$pyo3..instance..Bound$LT$T$GT$$u20$as$u20$core..ops..deref..Deref$GT$5deref17hd3ac5892e8faf25dE', symObjAddr: 0x14520, symBinAddr: 0x1EF74, symSize: 0x24 }
  - { offset: 0x9E7CA, size: 0x8, addend: 0x0, symName: '__ZN76_$LT$pyo3..instance..Py$LT$T$GT$$u20$as$u20$pyo3..conversion..ToPyObject$GT$9to_object17h55e7b29bb0e5b66cE', symObjAddr: 0x14838, symBinAddr: 0x1EF98, symSize: 0x28 }
  - { offset: 0x9E822, size: 0x8, addend: 0x0, symName: '__ZN77_$LT$pyo3..instance..Borrowed$LT$T$GT$$u20$as$u20$core..ops..deref..Deref$GT$5deref17h0998cc4f3c3e1fa7E', symObjAddr: 0x14A68, symBinAddr: 0x1EFC0, symSize: 0x68 }
  - { offset: 0x9E859, size: 0x8, addend: 0x0, symName: '__ZN77_$LT$pyo3..instance..Borrowed$LT$T$GT$$u20$as$u20$core..ops..deref..Deref$GT$5deref17h2a179b3322787660E', symObjAddr: 0x150E8, symBinAddr: 0x1F028, symSize: 0x68 }
  - { offset: 0x9E890, size: 0x8, addend: 0x0, symName: '__ZN77_$LT$pyo3..instance..Borrowed$LT$T$GT$$u20$as$u20$core..ops..deref..Deref$GT$5deref17h3b18ecab470e0028E', symObjAddr: 0x153C0, symBinAddr: 0x1F090, symSize: 0x68 }
  - { offset: 0x9E8C7, size: 0x8, addend: 0x0, symName: '__ZN77_$LT$pyo3..instance..Borrowed$LT$T$GT$$u20$as$u20$core..ops..deref..Deref$GT$5deref17h5908bfce52eda3c2E', symObjAddr: 0x15838, symBinAddr: 0x1F0F8, symSize: 0x68 }
  - { offset: 0x9E8FE, size: 0x8, addend: 0x0, symName: '__ZN77_$LT$pyo3..instance..Borrowed$LT$T$GT$$u20$as$u20$core..ops..deref..Deref$GT$5deref17h5f23add6cc73731bE', symObjAddr: 0x15AA8, symBinAddr: 0x1F160, symSize: 0x68 }
  - { offset: 0x9E935, size: 0x8, addend: 0x0, symName: '__ZN77_$LT$pyo3..instance..Borrowed$LT$T$GT$$u20$as$u20$core..ops..deref..Deref$GT$5deref17hc33c4d19dea5898fE', symObjAddr: 0x16A80, symBinAddr: 0x1F1C8, symSize: 0x68 }
  - { offset: 0x9E96C, size: 0x8, addend: 0x0, symName: '__ZN77_$LT$pyo3..instance..Borrowed$LT$T$GT$$u20$as$u20$core..ops..deref..Deref$GT$5deref17hf538e7b85054af30E', symObjAddr: 0x174A8, symBinAddr: 0x1F230, symSize: 0x68 }
  - { offset: 0x9E9A9, size: 0x8, addend: 0x0, symName: '__ZN79_$LT$pyo3..instance..Bound$LT$T$GT$$u20$as$u20$pyo3..conversion..ToPyObject$GT$9to_object17h053bbff1ecaf49bfE', symObjAddr: 0x17718, symBinAddr: 0x1F298, symSize: 0x28 }
  - { offset: 0x9E9FB, size: 0x8, addend: 0x0, symName: '__ZN79_$LT$pyo3..instance..Bound$LT$T$GT$$u20$as$u20$pyo3..conversion..ToPyObject$GT$9to_object17h4b0531901a84c841E', symObjAddr: 0x17768, symBinAddr: 0x1F2C0, symSize: 0x28 }
  - { offset: 0x9EA4D, size: 0x8, addend: 0x0, symName: '__ZN79_$LT$pyo3..instance..Bound$LT$T$GT$$u20$as$u20$pyo3..conversion..ToPyObject$GT$9to_object17h8cc7555b8d7fa0b0E', symObjAddr: 0x177B8, symBinAddr: 0x1F2E8, symSize: 0x28 }
  - { offset: 0x9EAA5, size: 0x8, addend: 0x0, symName: '__ZN80_$LT$pyo3..instance..Bound$LT$T$GT$$u20$as$u20$pyo3..conversion..AsPyPointer$GT$6as_ptr17h1c482317a1cbed9aE', symObjAddr: 0x17808, symBinAddr: 0x1F310, symSize: 0x2C }
  - { offset: 0x9EBF6, size: 0x8, addend: 0x0, symName: '__ZN58_$LT$T$u20$as$u20$pyo3..err..err_state..PyErrArguments$GT$9arguments17h9ffabab83e00d7e5E', symObjAddr: 0x10610, symBinAddr: 0x1DFDC, symSize: 0x24 }
  - { offset: 0x9ECAE, size: 0x8, addend: 0x0, symName: '__ZN54_$LT$$RF$T$u20$as$u20$pyo3..conversion..ToPyObject$GT$9to_object17h2ed947c60e6d3303E', symObjAddr: 0x105C0, symBinAddr: 0x1DF8C, symSize: 0x28 }
  - { offset: 0x9ED00, size: 0x8, addend: 0x0, symName: '__ZN54_$LT$$RF$T$u20$as$u20$pyo3..conversion..ToPyObject$GT$9to_object17hb748fe43c8b76f0eE', symObjAddr: 0x105E8, symBinAddr: 0x1DFB4, symSize: 0x28 }
  - { offset: 0x9F410, size: 0x8, addend: 0x0, symName: '__ZN4pyo35types10typeobject81_$LT$impl$u20$pyo3..instance..Borrowed$LT$pyo3..types..typeobject..PyType$GT$$GT$4name17h395d92c2c151538bE', symObjAddr: 0x5E20, symBinAddr: 0x1B77C, symSize: 0x198 }
  - { offset: 0x9F487, size: 0x8, addend: 0x0, symName: '__ZN4pyo35types4dict75_$LT$impl$u20$pyo3..instance..Borrowed$LT$pyo3..types..dict..PyDict$GT$$GT$13iter_borrowed17hd0c7d6d5d7592fd6E', symObjAddr: 0x6074, symBinAddr: 0x1B914, symSize: 0x24 }
  - { offset: 0x9F4D5, size: 0x8, addend: 0x0, symName: '__ZN4pyo35types5bytes77_$LT$impl$u20$pyo3..instance..Borrowed$LT$pyo3..types..bytes..PyBytes$GT$$GT$8as_bytes17h98b05ac4ed9a9652E', symObjAddr: 0x6108, symBinAddr: 0x1B938, symSize: 0x9C }
  - { offset: 0x9F52E, size: 0x8, addend: 0x0, symName: '__ZN4pyo35types5tuple77_$LT$impl$u20$pyo3..instance..Borrowed$LT$pyo3..types..tuple..PyTuple$GT$$GT$13iter_borrowed17hc412d74d1c86cb08E', symObjAddr: 0x636C, symBinAddr: 0x1B9D4, symSize: 0x24 }
  - { offset: 0x9F55E, size: 0x8, addend: 0x0, symName: '__ZN4pyo35types5tuple77_$LT$impl$u20$pyo3..instance..Borrowed$LT$pyo3..types..tuple..PyTuple$GT$$GT$27get_borrowed_item_unchecked17hcd7d3087ba8e5241E', symObjAddr: 0x63F4, symBinAddr: 0x1B9F8, symSize: 0x5C }
  - { offset: 0x9F59D, size: 0x8, addend: 0x0, symName: '__ZN4pyo35types6string79_$LT$impl$u20$pyo3..instance..Borrowed$LT$pyo3..types..string..PyString$GT$$GT$15to_string_lossy17h53422281a682d266E', symObjAddr: 0x6550, symBinAddr: 0x1BAA0, symSize: 0x17C }
  - { offset: 0x9F671, size: 0x8, addend: 0x0, symName: '__ZN4pyo35types6string79_$LT$impl$u20$pyo3..instance..Borrowed$LT$pyo3..types..string..PyString$GT$$GT$6to_cow17h439abd0d5129c654E', symObjAddr: 0x6840, symBinAddr: 0x1BC1C, symSize: 0x3C }
  - { offset: 0x9F694, size: 0x8, addend: 0x0, symName: '__ZN4pyo35types6string79_$LT$impl$u20$pyo3..instance..Borrowed$LT$pyo3..types..string..PyString$GT$$GT$6to_str17ha030c4054de1af09E', symObjAddr: 0x687C, symBinAddr: 0x1BC58, symSize: 0xCC }
  - { offset: 0x9F738, size: 0x8, addend: 0x0, symName: '__ZN4pyo38instance11Py$LT$T$GT$10into_bound17h04601976b8bcd791E', symObjAddr: 0x7CE4, symBinAddr: 0x1BD24, symSize: 0x1C }
  - { offset: 0x9F77F, size: 0x8, addend: 0x0, symName: '__ZN4pyo38instance11Py$LT$T$GT$10into_bound17hfddfb78ddbdb4801E', symObjAddr: 0x7D1C, symBinAddr: 0x1BD40, symSize: 0x1C }
  - { offset: 0x9F7E6, size: 0x8, addend: 0x0, symName: '__ZN4pyo38instance11Py$LT$T$GT$13from_non_null17h13bc23137142e74dE', symObjAddr: 0x7E50, symBinAddr: 0x1BD5C, symSize: 0x14 }
  - { offset: 0x9F812, size: 0x8, addend: 0x0, symName: '__ZN4pyo38instance11Py$LT$T$GT$13from_non_null17h4c92793e58f82228E', symObjAddr: 0x7E8C, symBinAddr: 0x1BD70, symSize: 0x14 }
  - { offset: 0x9F83E, size: 0x8, addend: 0x0, symName: '__ZN4pyo38instance11Py$LT$T$GT$13from_non_null17h66036b1f6f47a231E', symObjAddr: 0x7EB4, symBinAddr: 0x1BD84, symSize: 0x14 }
  - { offset: 0x9F86A, size: 0x8, addend: 0x0, symName: '__ZN4pyo38instance11Py$LT$T$GT$13from_non_null17hc70a7891b67a30faE', symObjAddr: 0x7EF0, symBinAddr: 0x1BD98, symSize: 0x14 }
  - { offset: 0x9F896, size: 0x8, addend: 0x0, symName: '__ZN4pyo38instance11Py$LT$T$GT$13from_non_null17hcac9cf5e6491406cE', symObjAddr: 0x7F04, symBinAddr: 0x1BDAC, symSize: 0x14 }
  - { offset: 0x9F8C2, size: 0x8, addend: 0x0, symName: '__ZN4pyo38instance11Py$LT$T$GT$13from_non_null17hd71d66b2d74ac902E', symObjAddr: 0x7F40, symBinAddr: 0x1BDC0, symSize: 0x14 }
  - { offset: 0x9F8EE, size: 0x8, addend: 0x0, symName: '__ZN4pyo38instance11Py$LT$T$GT$14from_owned_ptr17h184ba4ee587fd976E', symObjAddr: 0x7F90, symBinAddr: 0x1BDD4, symSize: 0x48 }
  - { offset: 0x9F935, size: 0x8, addend: 0x0, symName: '__ZN4pyo38instance11Py$LT$T$GT$14from_owned_ptr17hbf3a757a83bc359fE', symObjAddr: 0x8020, symBinAddr: 0x1BE1C, symSize: 0x48 }
  - { offset: 0x9F97C, size: 0x8, addend: 0x0, symName: '__ZN4pyo38instance11Py$LT$T$GT$17from_borrowed_ptr17h1c03013c7c0dcde8E', symObjAddr: 0x80B0, symBinAddr: 0x1BE64, symSize: 0x48 }
  - { offset: 0x9F9C3, size: 0x8, addend: 0x0, symName: '__ZN4pyo38instance11Py$LT$T$GT$17from_borrowed_ptr17h39cda791b14ea2a2E', symObjAddr: 0x8140, symBinAddr: 0x1BEAC, symSize: 0x48 }
  - { offset: 0x9FA0A, size: 0x8, addend: 0x0, symName: '__ZN4pyo38instance11Py$LT$T$GT$17from_borrowed_ptr17h7b030c013f40c8eaE', symObjAddr: 0x8260, symBinAddr: 0x1BEF4, symSize: 0x48 }
  - { offset: 0x9FA51, size: 0x8, addend: 0x0, symName: '__ZN4pyo38instance11Py$LT$T$GT$17from_borrowed_ptr17h83108a0b53826f34E', symObjAddr: 0x82A8, symBinAddr: 0x1BF3C, symSize: 0x48 }
  - { offset: 0x9FA98, size: 0x8, addend: 0x0, symName: '__ZN4pyo38instance11Py$LT$T$GT$17from_borrowed_ptr17h833f2adfd2e59d24E', symObjAddr: 0x82F0, symBinAddr: 0x1BF84, symSize: 0x48 }
  - { offset: 0x9FADF, size: 0x8, addend: 0x0, symName: '__ZN4pyo38instance11Py$LT$T$GT$17from_borrowed_ptr17he9683d5bb7d75885E', symObjAddr: 0x83C8, symBinAddr: 0x1BFCC, symSize: 0x48 }
  - { offset: 0x9FB26, size: 0x8, addend: 0x0, symName: '__ZN4pyo38instance11Py$LT$T$GT$17from_borrowed_ptr17hebbb02383ac4f540E', symObjAddr: 0x8410, symBinAddr: 0x1C014, symSize: 0x48 }
  - { offset: 0x9FB6D, size: 0x8, addend: 0x0, symName: '__ZN4pyo38instance11Py$LT$T$GT$21from_owned_ptr_or_err17hbb5818adac39f92cE', symObjAddr: 0x84A0, symBinAddr: 0x1C05C, symSize: 0x88 }
  - { offset: 0x9FBD2, size: 0x8, addend: 0x0, symName: '__ZN4pyo38instance11Py$LT$T$GT$21from_owned_ptr_or_err17hc4057a223995e89fE', symObjAddr: 0x8528, symBinAddr: 0x1C0E4, symSize: 0x88 }
  - { offset: 0x9FC37, size: 0x8, addend: 0x0, symName: '__ZN4pyo38instance11Py$LT$T$GT$21from_owned_ptr_or_err17hf19a484e00811efbE', symObjAddr: 0x85B0, symBinAddr: 0x1C16C, symSize: 0x88 }
  - { offset: 0x9FC9C, size: 0x8, addend: 0x0, symName: '__ZN4pyo38instance11Py$LT$T$GT$21from_owned_ptr_or_opt17h3c16ad9e886f829dE', symObjAddr: 0x8638, symBinAddr: 0x1C1F4, symSize: 0x28 }
  - { offset: 0x9FCE3, size: 0x8, addend: 0x0, symName: '__ZN4pyo38instance11Py$LT$T$GT$21from_owned_ptr_or_opt17hee8ef933a5f3660aE', symObjAddr: 0x8660, symBinAddr: 0x1C21C, symSize: 0x28 }
  - { offset: 0x9FD2A, size: 0x8, addend: 0x0, symName: '__ZN4pyo38instance11Py$LT$T$GT$24from_borrowed_ptr_or_opt17h6d273e8d11a401cbE', symObjAddr: 0x874C, symBinAddr: 0x1C26C, symSize: 0x34 }
  - { offset: 0x9FD71, size: 0x8, addend: 0x0, symName: '__ZN4pyo38instance11Py$LT$T$GT$24from_borrowed_ptr_or_opt17h76417c001ceadb1cE', symObjAddr: 0x8780, symBinAddr: 0x1C2A0, symSize: 0x34 }
  - { offset: 0x9FDB8, size: 0x8, addend: 0x0, symName: '__ZN4pyo38instance11Py$LT$T$GT$24from_borrowed_ptr_or_opt17hb4802633c849917cE', symObjAddr: 0x881C, symBinAddr: 0x1C2D4, symSize: 0x34 }
  - { offset: 0x9FDFF, size: 0x8, addend: 0x0, symName: '__ZN4pyo38instance11Py$LT$T$GT$24from_borrowed_ptr_or_opt17hb6d7e9ae8a1397e2E', symObjAddr: 0x8884, symBinAddr: 0x1C308, symSize: 0x34 }
  - { offset: 0x9FE46, size: 0x8, addend: 0x0, symName: '__ZN4pyo38instance11Py$LT$T$GT$24from_borrowed_ptr_or_opt17hd364144f0330a64bE', symObjAddr: 0x88EC, symBinAddr: 0x1C33C, symSize: 0x34 }
  - { offset: 0x9FE8D, size: 0x8, addend: 0x0, symName: '__ZN4pyo38instance11Py$LT$T$GT$24from_borrowed_ptr_or_opt17hdea9e5ea43b54c66E', symObjAddr: 0x8920, symBinAddr: 0x1C370, symSize: 0x34 }
  - { offset: 0x9FED4, size: 0x8, addend: 0x0, symName: '__ZN4pyo38instance11Py$LT$T$GT$24from_borrowed_ptr_or_opt17hedbd0a75acec5079E', symObjAddr: 0x8988, symBinAddr: 0x1C3A4, symSize: 0x34 }
  - { offset: 0x9FF35, size: 0x8, addend: 0x0, symName: '__ZN4pyo38instance11Py$LT$T$GT$4bind17h1df1954b5a753c82E', symObjAddr: 0x9880, symBinAddr: 0x1CABC, symSize: 0x6C }
  - { offset: 0x9FF7C, size: 0x8, addend: 0x0, symName: '__ZN4pyo38instance11Py$LT$T$GT$4bind17h406b4d1961c2834dE', symObjAddr: 0x98EC, symBinAddr: 0x1CB28, symSize: 0x6C }
  - { offset: 0x9FFDD, size: 0x8, addend: 0x0, symName: '__ZN4pyo38instance11Py$LT$T$GT$4bind17h7421c583556bef97E', symObjAddr: 0x9958, symBinAddr: 0x1CB94, symSize: 0x6C }
  - { offset: 0xA0031, size: 0x8, addend: 0x0, symName: '__ZN4pyo38instance11Py$LT$T$GT$4bind17had207adc34405e0bE', symObjAddr: 0x99C4, symBinAddr: 0x1CC00, symSize: 0x6C }
  - { offset: 0xA0092, size: 0x8, addend: 0x0, symName: '__ZN4pyo38instance11Py$LT$T$GT$6as_ptr17h06c8c0e7bad494baE', symObjAddr: 0x9A9C, symBinAddr: 0x1CC6C, symSize: 0x1C }
  - { offset: 0xA00BE, size: 0x8, addend: 0x0, symName: '__ZN4pyo38instance11Py$LT$T$GT$6as_ptr17h184f61e2b2204324E', symObjAddr: 0x9AD4, symBinAddr: 0x1CC88, symSize: 0x1C }
  - { offset: 0xA00EA, size: 0x8, addend: 0x0, symName: '__ZN4pyo38instance11Py$LT$T$GT$6as_ptr17h1e5ccb417c7cdc30E', symObjAddr: 0x9B0C, symBinAddr: 0x1CCA4, symSize: 0x1C }
  - { offset: 0xA0116, size: 0x8, addend: 0x0, symName: '__ZN4pyo38instance11Py$LT$T$GT$6as_ptr17h2158896e143ea1a8E', symObjAddr: 0x9B28, symBinAddr: 0x1CCC0, symSize: 0x1C }
  - { offset: 0xA0142, size: 0x8, addend: 0x0, symName: '__ZN4pyo38instance11Py$LT$T$GT$6as_ptr17h6424a1d94531d1dbE', symObjAddr: 0x9BEC, symBinAddr: 0x1CCDC, symSize: 0x1C }
  - { offset: 0xA016E, size: 0x8, addend: 0x0, symName: '__ZN4pyo38instance11Py$LT$T$GT$6as_ptr17h7816ecd94e828bcdE', symObjAddr: 0x9C40, symBinAddr: 0x1CCF8, symSize: 0x1C }
  - { offset: 0xA01A7, size: 0x8, addend: 0x0, symName: '__ZN4pyo38instance11Py$LT$T$GT$6as_ptr17ha74143ba2c58be22E', symObjAddr: 0x9C78, symBinAddr: 0x1CD14, symSize: 0x1C }
  - { offset: 0xA01D3, size: 0x8, addend: 0x0, symName: '__ZN4pyo38instance11Py$LT$T$GT$6as_ptr17had2598a9c1564de3E', symObjAddr: 0x9C94, symBinAddr: 0x1CD30, symSize: 0x1C }
  - { offset: 0xA01FF, size: 0x8, addend: 0x0, symName: '__ZN4pyo38instance11Py$LT$T$GT$6as_ptr17hc1b8d143ad75ea61E', symObjAddr: 0x9CE8, symBinAddr: 0x1CD4C, symSize: 0x1C }
  - { offset: 0xA0238, size: 0x8, addend: 0x0, symName: '__ZN4pyo38instance11Py$LT$T$GT$6as_ptr17hf34524da131a60ddE', symObjAddr: 0x9DE4, symBinAddr: 0x1CD68, symSize: 0x1C }
  - { offset: 0xA0264, size: 0x8, addend: 0x0, symName: '__ZN4pyo38instance11Py$LT$T$GT$8into_any17h156a6bc33a138fc7E', symObjAddr: 0x9E3C, symBinAddr: 0x1CD84, symSize: 0x3C }
  - { offset: 0xA0290, size: 0x8, addend: 0x0, symName: '__ZN4pyo38instance11Py$LT$T$GT$8into_any17h43a335902bb65a98E', symObjAddr: 0x9E78, symBinAddr: 0x1CDC0, symSize: 0x3C }
  - { offset: 0xA02BC, size: 0x8, addend: 0x0, symName: '__ZN4pyo38instance11Py$LT$T$GT$8into_any17h6b0c6095dcb7c19eE', symObjAddr: 0x9FA4, symBinAddr: 0x1CDFC, symSize: 0x3C }
  - { offset: 0xA02E8, size: 0x8, addend: 0x0, symName: '__ZN4pyo38instance11Py$LT$T$GT$8into_any17h7092cf7d3dee587bE', symObjAddr: 0x9FE0, symBinAddr: 0x1CE38, symSize: 0x3C }
  - { offset: 0xA0314, size: 0x8, addend: 0x0, symName: '__ZN4pyo38instance11Py$LT$T$GT$8into_any17h9839e76148a6f5a9E', symObjAddr: 0xA01C, symBinAddr: 0x1CE74, symSize: 0x3C }
  - { offset: 0xA0340, size: 0x8, addend: 0x0, symName: '__ZN4pyo38instance11Py$LT$T$GT$8into_any17hcd36c176b32e6552E', symObjAddr: 0xA10C, symBinAddr: 0x1CEB0, symSize: 0x3C }
  - { offset: 0xA036C, size: 0x8, addend: 0x0, symName: '__ZN4pyo38instance11Py$LT$T$GT$8into_ptr17h5402e34f9e1fd570E', symObjAddr: 0xA1FC, symBinAddr: 0x1CEEC, symSize: 0x30 }
  - { offset: 0xA0398, size: 0x8, addend: 0x0, symName: '__ZN4pyo38instance11Py$LT$T$GT$8into_ptr17h79ccb9370e240969E', symObjAddr: 0xA22C, symBinAddr: 0x1CF1C, symSize: 0x30 }
  - { offset: 0xA03D1, size: 0x8, addend: 0x0, symName: '__ZN4pyo38instance11Py$LT$T$GT$9clone_ref17h26d908069804f5a0E', symObjAddr: 0xA288, symBinAddr: 0x1CF4C, symSize: 0x2C }
  - { offset: 0xA0418, size: 0x8, addend: 0x0, symName: '__ZN4pyo38instance11Py$LT$T$GT$9clone_ref17h270fd3d99ea927eaE', symObjAddr: 0xA2B4, symBinAddr: 0x1CF78, symSize: 0x2C }
  - { offset: 0xA045F, size: 0x8, addend: 0x0, symName: '__ZN4pyo38instance11Py$LT$T$GT$9clone_ref17h2ccb965d2768e971E', symObjAddr: 0xA30C, symBinAddr: 0x1CFA4, symSize: 0x2C }
  - { offset: 0xA04A6, size: 0x8, addend: 0x0, symName: '__ZN4pyo38instance11Py$LT$T$GT$9clone_ref17h8a250c6b98b54cf1E', symObjAddr: 0xA3BC, symBinAddr: 0x1CFD0, symSize: 0x2C }
  - { offset: 0xA04ED, size: 0x8, addend: 0x0, symName: '__ZN4pyo38instance11Py$LT$T$GT$9clone_ref17h951d3b145512fcbeE', symObjAddr: 0xA3E8, symBinAddr: 0x1CFFC, symSize: 0x2C }
  - { offset: 0xA0534, size: 0x8, addend: 0x0, symName: '__ZN4pyo38instance11Py$LT$T$GT$9clone_ref17ha5ced345d909ac7dE', symObjAddr: 0xA414, symBinAddr: 0x1D028, symSize: 0x2C }
  - { offset: 0xA057B, size: 0x8, addend: 0x0, symName: '__ZN4pyo38instance11Py$LT$T$GT$9clone_ref17hf527ce9381225011E', symObjAddr: 0xA4C4, symBinAddr: 0x1D054, symSize: 0x2C }
  - { offset: 0xA05DC, size: 0x8, addend: 0x0, symName: '__ZN4pyo38instance14Bound$LT$T$GT$11as_borrowed17h00ecb6b63b657d43E', symObjAddr: 0xA814, symBinAddr: 0x1D370, symSize: 0x48 }
  - { offset: 0xA0608, size: 0x8, addend: 0x0, symName: '__ZN4pyo38instance14Bound$LT$T$GT$11as_borrowed17h19b66b5ed04f6b1fE', symObjAddr: 0xA8A4, symBinAddr: 0x1D3B8, symSize: 0x48 }
  - { offset: 0xA0634, size: 0x8, addend: 0x0, symName: '__ZN4pyo38instance14Bound$LT$T$GT$11as_borrowed17h4e87298747e84b41E', symObjAddr: 0xA934, symBinAddr: 0x1D400, symSize: 0x48 }
  - { offset: 0xA0660, size: 0x8, addend: 0x0, symName: '__ZN4pyo38instance14Bound$LT$T$GT$11as_borrowed17hb8845686f4bfa81fE', symObjAddr: 0xA9C4, symBinAddr: 0x1D448, symSize: 0x48 }
  - { offset: 0xA0701, size: 0x8, addend: 0x0, symName: '__ZN4pyo38instance14Bound$LT$T$GT$2py17h05d0b2ee8d07d2cbE', symObjAddr: 0xB834, symBinAddr: 0x1D490, symSize: 0x10 }
  - { offset: 0xA072D, size: 0x8, addend: 0x0, symName: '__ZN4pyo38instance14Bound$LT$T$GT$2py17h188add930ebaed52E', symObjAddr: 0xB844, symBinAddr: 0x1D4A0, symSize: 0x10 }
  - { offset: 0xA0766, size: 0x8, addend: 0x0, symName: '__ZN4pyo38instance14Bound$LT$T$GT$2py17h18eeb8e19469baceE', symObjAddr: 0xB854, symBinAddr: 0x1D4B0, symSize: 0x10 }
  - { offset: 0xA079F, size: 0x8, addend: 0x0, symName: '__ZN4pyo38instance14Bound$LT$T$GT$2py17h3ce2c4231cdb968bE', symObjAddr: 0xB8A4, symBinAddr: 0x1D4C0, symSize: 0x10 }
  - { offset: 0xA07CB, size: 0x8, addend: 0x0, symName: '__ZN4pyo38instance14Bound$LT$T$GT$2py17h64c221611eac2832E', symObjAddr: 0xB914, symBinAddr: 0x1D4D0, symSize: 0x10 }
  - { offset: 0xA07F7, size: 0x8, addend: 0x0, symName: '__ZN4pyo38instance14Bound$LT$T$GT$2py17hb3bc2ffb2c2bf791E', symObjAddr: 0xB974, symBinAddr: 0x1D4E0, symSize: 0x10 }
  - { offset: 0xA0830, size: 0x8, addend: 0x0, symName: '__ZN4pyo38instance14Bound$LT$T$GT$2py17hdd369e7b7c685886E', symObjAddr: 0xB9B4, symBinAddr: 0x1D4F0, symSize: 0x10 }
  - { offset: 0xA0869, size: 0x8, addend: 0x0, symName: '__ZN4pyo38instance14Bound$LT$T$GT$2py17hf0ca531cb18a7412E', symObjAddr: 0xB9D4, symBinAddr: 0x1D500, symSize: 0x10 }
  - { offset: 0xA0895, size: 0x8, addend: 0x0, symName: '__ZN4pyo38instance14Bound$LT$T$GT$6as_any17h0a67e3e18b412da5E', symObjAddr: 0xBBA4, symBinAddr: 0x1D510, symSize: 0x6C }
  - { offset: 0xA08C1, size: 0x8, addend: 0x0, symName: '__ZN4pyo38instance14Bound$LT$T$GT$6as_any17h0e1586c10224ec27E', symObjAddr: 0xBC10, symBinAddr: 0x1D57C, symSize: 0x6C }
  - { offset: 0xA08ED, size: 0x8, addend: 0x0, symName: '__ZN4pyo38instance14Bound$LT$T$GT$6as_any17h66d7280833e5386aE', symObjAddr: 0xCBAC, symBinAddr: 0x1D5E8, symSize: 0x6C }
  - { offset: 0xA0919, size: 0x8, addend: 0x0, symName: '__ZN4pyo38instance14Bound$LT$T$GT$6as_any17h6e6e3d13aa53f79aE', symObjAddr: 0xCEA0, symBinAddr: 0x1D654, symSize: 0x6C }
  - { offset: 0xA0945, size: 0x8, addend: 0x0, symName: '__ZN4pyo38instance14Bound$LT$T$GT$6as_any17h771e71b598752701E', symObjAddr: 0xD050, symBinAddr: 0x1D6C0, symSize: 0x6C }
  - { offset: 0xA097E, size: 0x8, addend: 0x0, symName: '__ZN4pyo38instance14Bound$LT$T$GT$6as_ptr17h0aee23e565952bd2E', symObjAddr: 0xEAA4, symBinAddr: 0x1D72C, symSize: 0x2C }
  - { offset: 0xA09AA, size: 0x8, addend: 0x0, symName: '__ZN4pyo38instance14Bound$LT$T$GT$6as_ptr17h11e4e816943b5d6aE', symObjAddr: 0xEAFC, symBinAddr: 0x1D758, symSize: 0x2C }
  - { offset: 0xA09D6, size: 0x8, addend: 0x0, symName: '__ZN4pyo38instance14Bound$LT$T$GT$6as_ptr17h26f362dd11a70568E', symObjAddr: 0xEB28, symBinAddr: 0x1D784, symSize: 0x2C }
  - { offset: 0xA0A02, size: 0x8, addend: 0x0, symName: '__ZN4pyo38instance14Bound$LT$T$GT$6as_ptr17h5925a80cf2cc9fe4E', symObjAddr: 0xEB80, symBinAddr: 0x1D7B0, symSize: 0x2C }
  - { offset: 0xA0A2E, size: 0x8, addend: 0x0, symName: '__ZN4pyo38instance14Bound$LT$T$GT$6as_ptr17h83be8063d044545fE', symObjAddr: 0xECE0, symBinAddr: 0x1D7DC, symSize: 0x2C }
  - { offset: 0xA0A5A, size: 0x8, addend: 0x0, symName: '__ZN4pyo38instance14Bound$LT$T$GT$6as_ptr17ha6fdd6080d074cb3E', symObjAddr: 0xED64, symBinAddr: 0x1D808, symSize: 0x2C }
  - { offset: 0xA0A86, size: 0x8, addend: 0x0, symName: '__ZN4pyo38instance14Bound$LT$T$GT$6as_ptr17hc2f8bda96ee55e90E', symObjAddr: 0xEE14, symBinAddr: 0x1D834, symSize: 0x2C }
  - { offset: 0xA0AB2, size: 0x8, addend: 0x0, symName: '__ZN4pyo38instance14Bound$LT$T$GT$6as_ptr17hd7ebbde0220ce312E', symObjAddr: 0xEE98, symBinAddr: 0x1D860, symSize: 0x2C }
  - { offset: 0xA0ADE, size: 0x8, addend: 0x0, symName: '__ZN4pyo38instance14Bound$LT$T$GT$6as_ptr17he8fefdf8e0fb170aE', symObjAddr: 0xEF1C, symBinAddr: 0x1D88C, symSize: 0x2C }
  - { offset: 0xA0B0A, size: 0x8, addend: 0x0, symName: '__ZN4pyo38instance14Bound$LT$T$GT$6as_ptr17hf61f3242140db492E', symObjAddr: 0xEF74, symBinAddr: 0x1D8B8, symSize: 0x2C }
  - { offset: 0xA0B36, size: 0x8, addend: 0x0, symName: '__ZN4pyo38instance14Bound$LT$T$GT$6unbind17h0409cfd3353f6766E', symObjAddr: 0xEFCC, symBinAddr: 0x1D8E4, symSize: 0x48 }
  - { offset: 0xA0B80, size: 0x8, addend: 0x0, symName: '__ZN4pyo38instance14Bound$LT$T$GT$6unbind17h2193efd394977bdfE', symObjAddr: 0xF05C, symBinAddr: 0x1D92C, symSize: 0x48 }
  - { offset: 0xA0BCA, size: 0x8, addend: 0x0, symName: '__ZN4pyo38instance14Bound$LT$T$GT$6unbind17h2cfca4aabe74a3d8E', symObjAddr: 0xF0A4, symBinAddr: 0x1D974, symSize: 0x48 }
  - { offset: 0xA0C14, size: 0x8, addend: 0x0, symName: '__ZN4pyo38instance14Bound$LT$T$GT$6unbind17h41b6a02ccfc073feE', symObjAddr: 0xF0EC, symBinAddr: 0x1D9BC, symSize: 0x48 }
  - { offset: 0xA0C5E, size: 0x8, addend: 0x0, symName: '__ZN4pyo38instance14Bound$LT$T$GT$6unbind17h4eb5e926fe164075E', symObjAddr: 0xF17C, symBinAddr: 0x1DA04, symSize: 0x48 }
  - { offset: 0xA0CA8, size: 0x8, addend: 0x0, symName: '__ZN4pyo38instance14Bound$LT$T$GT$6unbind17hb3280cf522b6dec7E', symObjAddr: 0xF29C, symBinAddr: 0x1DA4C, symSize: 0x48 }
  - { offset: 0xA0CF2, size: 0x8, addend: 0x0, symName: '__ZN4pyo38instance14Bound$LT$T$GT$8into_any17h59531821278c3848E', symObjAddr: 0xF584, symBinAddr: 0x1DA94, symSize: 0x30 }
  - { offset: 0xA0D1E, size: 0x8, addend: 0x0, symName: '__ZN4pyo38instance14Bound$LT$T$GT$8into_any17h6e8a46a062fc8b5fE', symObjAddr: 0xF5B4, symBinAddr: 0x1DAC4, symSize: 0x30 }
  - { offset: 0xA0D4A, size: 0x8, addend: 0x0, symName: '__ZN4pyo38instance14Bound$LT$T$GT$8into_any17h7cea8f3fec850b8dE', symObjAddr: 0xF5E4, symBinAddr: 0x1DAF4, symSize: 0x30 }
  - { offset: 0xA0D76, size: 0x8, addend: 0x0, symName: '__ZN4pyo38instance14Bound$LT$T$GT$8into_any17hf92465913a34a38eE', symObjAddr: 0xF704, symBinAddr: 0x1DB24, symSize: 0x30 }
  - { offset: 0xA0DA2, size: 0x8, addend: 0x0, symName: '__ZN4pyo38instance14Bound$LT$T$GT$8into_any17hfdd5040a2918a1a3E', symObjAddr: 0xF764, symBinAddr: 0x1DB54, symSize: 0x30 }
  - { offset: 0xA0DCE, size: 0x8, addend: 0x0, symName: '__ZN4pyo38instance17Borrowed$LT$T$GT$8to_owned17h01598c2baa6ec326E', symObjAddr: 0xFDCC, symBinAddr: 0x1DB84, symSize: 0x2C }
  - { offset: 0xA0DFA, size: 0x8, addend: 0x0, symName: '__ZN4pyo38instance17Borrowed$LT$T$GT$8to_owned17h691fa35801328b86E', symObjAddr: 0xFDF8, symBinAddr: 0x1DBB0, symSize: 0x2C }
  - { offset: 0xA0E26, size: 0x8, addend: 0x0, symName: '__ZN4pyo38instance17Borrowed$LT$T$GT$8to_owned17h7e56be8ee074a232E', symObjAddr: 0xFE24, symBinAddr: 0x1DBDC, symSize: 0x2C }
  - { offset: 0xA0E5F, size: 0x8, addend: 0x0, symName: '__ZN4pyo38instance36Bound$LT$pyo3..types..any..PyAny$GT$12ref_from_ptr17h53077e6639009e38E', symObjAddr: 0xFEA8, symBinAddr: 0x1DC08, symSize: 0x6C }
  - { offset: 0xA0E9A, size: 0x8, addend: 0x0, symName: '__ZN4pyo38instance36Bound$LT$pyo3..types..any..PyAny$GT$14from_owned_ptr17h9d5875f461d4a4ddE', symObjAddr: 0xFF14, symBinAddr: 0x1DC74, symSize: 0x2C }
  - { offset: 0xA0EE2, size: 0x8, addend: 0x0, symName: '__ZN4pyo38instance36Bound$LT$pyo3..types..any..PyAny$GT$21from_owned_ptr_or_err17he6dc2e0e197bcc84E', symObjAddr: 0xFFAC, symBinAddr: 0x1DCA0, symSize: 0x40 }
  - { offset: 0xA0F1D, size: 0x8, addend: 0x0, symName: '__ZN4pyo38instance36Bound$LT$pyo3..types..any..PyAny$GT$21from_owned_ptr_or_opt17h2dee6fde1a269f38E', symObjAddr: 0x10014, symBinAddr: 0x1DD08, symSize: 0x2C }
  - { offset: 0xA0F58, size: 0x8, addend: 0x0, symName: '__ZN4pyo38instance39Borrowed$LT$pyo3..types..any..PyAny$GT$18downcast_unchecked17haedad86a468720bfE', symObjAddr: 0x10158, symBinAddr: 0x1DD7C, symSize: 0x14 }
  - { offset: 0xA0F84, size: 0x8, addend: 0x0, symName: '__ZN4pyo38instance39Borrowed$LT$pyo3..types..any..PyAny$GT$18downcast_unchecked17hb4f8127ca7d82589E', symObjAddr: 0x1016C, symBinAddr: 0x1DD90, symSize: 0x14 }
  - { offset: 0xA0FB0, size: 0x8, addend: 0x0, symName: '__ZN4pyo38instance39Borrowed$LT$pyo3..types..any..PyAny$GT$18downcast_unchecked17hc432b18043dc645eE', symObjAddr: 0x10180, symBinAddr: 0x1DDA4, symSize: 0x14 }
  - { offset: 0xA0FDC, size: 0x8, addend: 0x0, symName: '__ZN4pyo38instance39Borrowed$LT$pyo3..types..any..PyAny$GT$18from_ptr_unchecked17h707b20515883be2cE', symObjAddr: 0x101BC, symBinAddr: 0x1DDB8, symSize: 0x2C }
  - { offset: 0xA101A, size: 0x8, addend: 0x0, symName: '__ZN4pyo38instance39Borrowed$LT$pyo3..types..any..PyAny$GT$8downcast17h8b746b7f693646f6E', symObjAddr: 0x10270, symBinAddr: 0x1DDE4, symSize: 0x88 }
  - { offset: 0xA1046, size: 0x8, addend: 0x0, symName: '__ZN4pyo38instance39Borrowed$LT$pyo3..types..any..PyAny$GT$8from_ptr17hfc94226f199661e6E', symObjAddr: 0x10380, symBinAddr: 0x1DE6C, symSize: 0x34 }
  - { offset: 0xA2568, size: 0x8, addend: 0x0, symName: '__ZN79_$LT$pyo3..exceptions..PyTypeError$u20$as$u20$pyo3..type_object..PyTypeInfo$GT$15type_object_raw17h36e999ac660aebf9E', symObjAddr: 0x13E80, symBinAddr: 0x1F620, symSize: 0x24 }
  - { offset: 0xA25A4, size: 0x8, addend: 0x0, symName: '__ZN79_$LT$pyo3..exceptions..PyTypeError$u20$as$u20$pyo3..type_object..PyTypeInfo$GT$15type_object_raw28_$u7b$$u7b$closure$u7d$$u7d$17h4a8d108635c1e484E', symObjAddr: 0x13EA4, symBinAddr: 0x1F644, symSize: 0x4C }
  - { offset: 0xA25F7, size: 0x8, addend: 0x0, symName: '__ZN80_$LT$pyo3..exceptions..PyValueError$u20$as$u20$pyo3..type_object..PyTypeInfo$GT$15type_object_raw17h63d3c48bb1a744fdE', symObjAddr: 0x14278, symBinAddr: 0x1F690, symSize: 0x24 }
  - { offset: 0xA2633, size: 0x8, addend: 0x0, symName: '__ZN80_$LT$pyo3..exceptions..PyValueError$u20$as$u20$pyo3..type_object..PyTypeInfo$GT$15type_object_raw28_$u7b$$u7b$closure$u7d$$u7d$17hf8c1a763b404f4a6E', symObjAddr: 0x1429C, symBinAddr: 0x1F6B4, symSize: 0x4C }
  - { offset: 0xA2686, size: 0x8, addend: 0x0, symName: '__ZN81_$LT$pyo3..exceptions..PyImportError$u20$as$u20$pyo3..type_object..PyTypeInfo$GT$15type_object_raw17h0c143972f7b80c5bE', symObjAddr: 0x149D0, symBinAddr: 0x1F700, symSize: 0x24 }
  - { offset: 0xA26C2, size: 0x8, addend: 0x0, symName: '__ZN81_$LT$pyo3..exceptions..PyImportError$u20$as$u20$pyo3..type_object..PyTypeInfo$GT$15type_object_raw28_$u7b$$u7b$closure$u7d$$u7d$17hf7aac798ecda1d72E', symObjAddr: 0x149F4, symBinAddr: 0x1F724, symSize: 0x4C }
  - { offset: 0xA2715, size: 0x8, addend: 0x0, symName: '__ZN82_$LT$pyo3..exceptions..PyRuntimeError$u20$as$u20$pyo3..type_object..PyTypeInfo$GT$15type_object_raw17h77342088567d56ccE', symObjAddr: 0x14BF0, symBinAddr: 0x1F770, symSize: 0x24 }
  - { offset: 0xA2751, size: 0x8, addend: 0x0, symName: '__ZN82_$LT$pyo3..exceptions..PyRuntimeError$u20$as$u20$pyo3..type_object..PyTypeInfo$GT$15type_object_raw28_$u7b$$u7b$closure$u7d$$u7d$17h6ad58a84209bcf34E', symObjAddr: 0x14C14, symBinAddr: 0x1F794, symSize: 0x4C }
  - { offset: 0xA27A4, size: 0x8, addend: 0x0, symName: '__ZN83_$LT$pyo3..exceptions..PyBaseException$u20$as$u20$pyo3..type_object..PyTypeInfo$GT$15type_object_raw17hee30bece00855dcfE', symObjAddr: 0x14D0C, symBinAddr: 0x1F7E0, symSize: 0x24 }
  - { offset: 0xA27E0, size: 0x8, addend: 0x0, symName: '__ZN83_$LT$pyo3..exceptions..PyBaseException$u20$as$u20$pyo3..type_object..PyTypeInfo$GT$15type_object_raw28_$u7b$$u7b$closure$u7d$$u7d$17h1d127273c6757567E', symObjAddr: 0x14D30, symBinAddr: 0x1F804, symSize: 0x4C }
  - { offset: 0xA282D, size: 0x8, addend: 0x0, symName: '__ZN83_$LT$pyo3..exceptions..PyBaseException$u20$as$u20$pyo3..type_object..PyTypeInfo$GT$16is_type_of_bound17h90d7196d66560b41E', symObjAddr: 0x14D7C, symBinAddr: 0x1F850, symSize: 0x30 }
  - { offset: 0xA285F, size: 0x8, addend: 0x0, symName: '__ZN84_$LT$pyo3..exceptions..PyAttributeError$u20$as$u20$pyo3..type_object..PyTypeInfo$GT$15type_object_raw17h5452ff48337b0cc6E', symObjAddr: 0x14E44, symBinAddr: 0x1F880, symSize: 0x24 }
  - { offset: 0xA289B, size: 0x8, addend: 0x0, symName: '__ZN84_$LT$pyo3..exceptions..PyAttributeError$u20$as$u20$pyo3..type_object..PyTypeInfo$GT$15type_object_raw28_$u7b$$u7b$closure$u7d$$u7d$17h2b9dc59da8e4f8d7E', symObjAddr: 0x14E68, symBinAddr: 0x1F8A4, symSize: 0x4C }
  - { offset: 0xA28EE, size: 0x8, addend: 0x0, symName: '__ZN88_$LT$pyo3..exceptions..PyUnicodeDecodeError$u20$as$u20$pyo3..type_object..PyTypeInfo$GT$15type_object_raw17h2434f0b8f8057595E', symObjAddr: 0x15504, symBinAddr: 0x1F8F0, symSize: 0x24 }
  - { offset: 0xA292A, size: 0x8, addend: 0x0, symName: '__ZN88_$LT$pyo3..exceptions..PyUnicodeDecodeError$u20$as$u20$pyo3..type_object..PyTypeInfo$GT$15type_object_raw28_$u7b$$u7b$closure$u7d$$u7d$17h76a45294926cb198E', symObjAddr: 0x15528, symBinAddr: 0x1F914, symSize: 0x4C }
  - { offset: 0xA2C36, size: 0x8, addend: 0x0, symName: __ZN4pyo311type_object10PyTypeInfo17type_object_bound17h0374f190198ce300E, symObjAddr: 0xA48, symBinAddr: 0x1F4AC, symSize: 0x30 }
  - { offset: 0xA2C76, size: 0x8, addend: 0x0, symName: __ZN4pyo311type_object10PyTypeInfo17type_object_bound17h10e7fdf41ff5c1edE, symObjAddr: 0xA78, symBinAddr: 0x1F4DC, symSize: 0x30 }
  - { offset: 0xA2CB6, size: 0x8, addend: 0x0, symName: __ZN4pyo311type_object10PyTypeInfo17type_object_bound17h70b8243994ada91bE, symObjAddr: 0xB68, symBinAddr: 0x1F50C, symSize: 0x30 }
  - { offset: 0xA2CF6, size: 0x8, addend: 0x0, symName: __ZN4pyo311type_object10PyTypeInfo17type_object_bound17h88f52b960e6e66faE, symObjAddr: 0xC28, symBinAddr: 0x1F53C, symSize: 0x30 }
  - { offset: 0xA2D36, size: 0x8, addend: 0x0, symName: __ZN4pyo311type_object10PyTypeInfo17type_object_bound17hc981ad9fd7957af3E, symObjAddr: 0xD18, symBinAddr: 0x1F56C, symSize: 0x30 }
  - { offset: 0xA2D76, size: 0x8, addend: 0x0, symName: __ZN4pyo311type_object10PyTypeInfo17type_object_bound17hfddf692977ae1b04E, symObjAddr: 0xD78, symBinAddr: 0x1F59C, symSize: 0x30 }
  - { offset: 0xA2DB6, size: 0x8, addend: 0x0, symName: __ZN4pyo311type_object10PyTypeInfo17type_object_bound17hff5f628f7a960f87E, symObjAddr: 0xDA8, symBinAddr: 0x1F5CC, symSize: 0x30 }
  - { offset: 0xA2DFC, size: 0x8, addend: 0x0, symName: '__ZN52_$LT$T$u20$as$u20$pyo3..type_object..PyTypeCheck$GT$10type_check17h5eb385c56fe077eeE', symObjAddr: 0x27A0, symBinAddr: 0x1F5FC, symSize: 0x24 }
  - { offset: 0xA3C74, size: 0x8, addend: 0x0, symName: __ZN4pyo310exceptions11PyTypeError7new_err17h1a692ce67ed67793E, symObjAddr: 0x12C, symBinAddr: 0x1F33C, symSize: 0x34 }
  - { offset: 0xA3CC7, size: 0x8, addend: 0x0, symName: __ZN4pyo310exceptions11PyTypeError7new_err17h7a6a417d5eccb7e4E, symObjAddr: 0x160, symBinAddr: 0x1F370, symSize: 0x34 }
  - { offset: 0xA3CF3, size: 0x8, addend: 0x0, symName: __ZN4pyo310exceptions11PyTypeError7new_err17h9c1fe33c39ffae1cE, symObjAddr: 0x194, symBinAddr: 0x1F3A4, symSize: 0x28 }
  - { offset: 0xA3D1E, size: 0x8, addend: 0x0, symName: __ZN4pyo310exceptions12PyValueError7new_err17hcbe9a9b679eb42edE, symObjAddr: 0x268, symBinAddr: 0x1F3CC, symSize: 0x34 }
  - { offset: 0xA3D4A, size: 0x8, addend: 0x0, symName: __ZN4pyo310exceptions12PyValueError7new_err17hda13b1584bb25ecfE, symObjAddr: 0x29C, symBinAddr: 0x1F400, symSize: 0x28 }
  - { offset: 0xA3D75, size: 0x8, addend: 0x0, symName: __ZN4pyo310exceptions13PyImportError7new_err17h4e85773df7b462bdE, symObjAddr: 0x300, symBinAddr: 0x1F428, symSize: 0x28 }
  - { offset: 0xA3DA0, size: 0x8, addend: 0x0, symName: __ZN4pyo310exceptions14PyRuntimeError7new_err17he5a3801fdfabd055E, symObjAddr: 0x328, symBinAddr: 0x1F450, symSize: 0x34 }
  - { offset: 0xA3E7B, size: 0x8, addend: 0x0, symName: __ZN4pyo310exceptions20PyUnicodeDecodeError7new_err17hfcae0063dbe37d15E, symObjAddr: 0x7DC, symBinAddr: 0x1F484, symSize: 0x28 }
  - { offset: 0xA3F90, size: 0x8, addend: 0x0, symName: '__ZN45_$LT$T$u20$as$u20$alloc..string..ToString$GT$9to_string17h26759fc636d975b5E', symObjAddr: 0x468, symBinAddr: 0x1F9C0, symSize: 0x24 }
  - { offset: 0xA3FCD, size: 0x8, addend: 0x0, symName: '__ZN49_$LT$T$u20$as$u20$alloc..string..SpecToString$GT$14spec_to_string17h8b68f08485617df3E', symObjAddr: 0x5C8, symBinAddr: 0x1F9E4, symSize: 0xF4 }
  - { offset: 0xA43AA, size: 0x8, addend: 0x0, symName: '__ZN71_$LT$alloc..sync..Arc$LT$T$C$A$GT$$u20$as$u20$core..ops..drop..Drop$GT$4drop17h613a22ccd12942bfE', symObjAddr: 0x5528, symBinAddr: 0x2020C, symSize: 0x7C }
  - { offset: 0xA4504, size: 0x8, addend: 0x0, symName: __ZN5alloc3fmt6format17h33b1b7281b4864cfE, symObjAddr: 0x3C70, symBinAddr: 0x200C8, symSize: 0xD8 }
  - { offset: 0xA45C8, size: 0x8, addend: 0x0, symName: '__ZN5alloc3fmt6format28_$u7b$$u7b$closure$u7d$$u7d$17hb0c481a0c167edb9E', symObjAddr: 0x3D48, symBinAddr: 0x201A0, symSize: 0x30 }
  - { offset: 0xA4DB8, size: 0x8, addend: 0x0, symName: __ZN4core5alloc6layout6Layout25from_size_align_unchecked18precondition_check17hae8c84a1b56db1f9E, symObjAddr: 0xF84, symBinAddr: 0x2000C, symSize: 0xBC }
  - { offset: 0xA4FDA, size: 0x8, addend: 0x0, symName: '__ZN104_$LT$core..ops..index_range..IndexRange$u20$as$u20$core..slice..index..SliceIndex$LT$$u5b$T$u5d$$GT$$GT$17get_unchecked_mut18precondition_check17h15e83e70fc81ddf9E', symObjAddr: 0x54, symBinAddr: 0x1F960, symSize: 0x60 }
  - { offset: 0xA5039, size: 0x8, addend: 0x0, symName: '__ZN75_$LT$usize$u20$as$u20$core..slice..index..SliceIndex$LT$$u5b$T$u5d$$GT$$GT$13get_unchecked18precondition_check17h61227d9257fc88e1E', symObjAddr: 0x5AE8, symBinAddr: 0x20288, symSize: 0x60 }
  - { offset: 0xA5092, size: 0x8, addend: 0x0, symName: '__ZN75_$LT$usize$u20$as$u20$core..slice..index..SliceIndex$LT$$u5b$T$u5d$$GT$$GT$17get_unchecked_mut18precondition_check17hf77d682351963db3E', symObjAddr: 0x5B48, symBinAddr: 0x202E8, symSize: 0x60 }
  - { offset: 0xA6247, size: 0x8, addend: 0x0, symName: __ZN4core4char7methods15encode_utf8_raw8do_panic7runtime17hde3e2828347190f7E, symObjAddr: 0xA9C, symBinAddr: 0x1FCE0, symSize: 0xC4 }
  - { offset: 0xA6344, size: 0x8, addend: 0x0, symName: __ZN4core4char7methods15encode_utf8_raw17ha86034d040c9eeb7E, symObjAddr: 0x99C, symBinAddr: 0x1FBE0, symSize: 0x100 }
  - { offset: 0xA647E, size: 0x8, addend: 0x0, symName: __ZN4core4char7methods25encode_utf8_raw_unchecked17h10120dd99c07739eE, symObjAddr: 0xD1C, symBinAddr: 0x1FDA4, symSize: 0x188 }
  - { offset: 0xA6F87, size: 0x8, addend: 0x0, symName: '__ZN69_$LT$pyo3..pycell..PyBorrowMutError$u20$as$u20$core..fmt..Display$GT$3fmt17hdfe7d9221b255291E', symObjAddr: 0x4E58, symBinAddr: 0x201D0, symSize: 0x3C }
  - { offset: 0xA77AD, size: 0x8, addend: 0x0, symName: __ZN4core3fmt2rt8Argument11new_display17h0ce8f429d0774ae0E, symObjAddr: 0x7B0, symBinAddr: 0x1FAD8, symSize: 0x2C }
  - { offset: 0xA77E5, size: 0x8, addend: 0x0, symName: __ZN4core3fmt2rt8Argument11new_display17h116a1fa72cb40a3fE, symObjAddr: 0x7DC, symBinAddr: 0x1FB04, symSize: 0x2C }
  - { offset: 0xA782A, size: 0x8, addend: 0x0, symName: __ZN4core3fmt2rt8Argument11new_display17h2b2826984e23b525E, symObjAddr: 0x808, symBinAddr: 0x1FB30, symSize: 0x2C }
  - { offset: 0xA786F, size: 0x8, addend: 0x0, symName: __ZN4core3fmt2rt8Argument11new_display17h4e4315ff59822c73E, symObjAddr: 0x860, symBinAddr: 0x1FB5C, symSize: 0x2C }
  - { offset: 0xA7923, size: 0x8, addend: 0x0, symName: __ZN4core3fmt2rt8Argument11new_display17hbc95635d59da4a35E, symObjAddr: 0x910, symBinAddr: 0x1FB88, symSize: 0x2C }
  - { offset: 0xA794E, size: 0x8, addend: 0x0, symName: __ZN4core3fmt2rt8Argument11new_display17hdb87aee6efa79156E, symObjAddr: 0x93C, symBinAddr: 0x1FBB4, symSize: 0x2C }
  - { offset: 0xA7A60, size: 0x8, addend: 0x0, symName: '__ZN4core4iter8adapters7step_by15StepBy$LT$I$GT$3new17hd52a32f8f1c6ffcdE', symObjAddr: 0xEA4, symBinAddr: 0x1FF2C, symSize: 0xE0 }
  - { offset: 0xA86B0, size: 0x8, addend: 0x0, symName: '__ZN70_$LT$core..num..error..TryFromIntError$u20$as$u20$core..fmt..Debug$GT$3fmt17h80cedd0b2a9485d9E', symObjAddr: 0x6AF4, symBinAddr: 0x23330, symSize: 0x54 }
  - { offset: 0xAB040, size: 0x8, addend: 0x0, symName: '__ZN4core7convert3num67_$LT$impl$u20$core..convert..TryFrom$LT$u64$GT$$u20$for$u20$u32$GT$8try_from17he0ddf143036bffebE', symObjAddr: 0x300C, symBinAddr: 0x2125C, symSize: 0x5C }
  - { offset: 0xAB074, size: 0x8, addend: 0x0, symName: '__ZN4core7convert3num71_$LT$impl$u20$core..convert..TryFrom$LT$usize$GT$$u20$for$u20$isize$GT$8try_from17h6279ae8608b1a217E', symObjAddr: 0x3068, symBinAddr: 0x212B8, symSize: 0x5C }
  - { offset: 0xAB0A9, size: 0x8, addend: 0x0, symName: '__ZN50_$LT$T$u20$as$u20$core..convert..Into$LT$U$GT$$GT$4into17h409a54f70b7d74b4E', symObjAddr: 0x5554, symBinAddr: 0x22890, symSize: 0x28 }
  - { offset: 0xAB0EF, size: 0x8, addend: 0x0, symName: '__ZN53_$LT$T$u20$as$u20$core..convert..TryInto$LT$U$GT$$GT$8try_into17h584cb16c8b05166cE', symObjAddr: 0x55FC, symBinAddr: 0x228DC, symSize: 0x20 }
  - { offset: 0xAB12F, size: 0x8, addend: 0x0, symName: '__ZN53_$LT$T$u20$as$u20$core..convert..TryInto$LT$U$GT$$GT$8try_into17h68490fb8ea7eb4f6E', symObjAddr: 0x561C, symBinAddr: 0x228FC, symSize: 0x20 }
  - { offset: 0xAB23C, size: 0x8, addend: 0x0, symName: __ZN4core4hash3sip9u8to64_le17h65f504d4acdf4b9aE, symObjAddr: 0x281C, symBinAddr: 0x20FD8, symSize: 0x240 }
  - { offset: 0xAB3F9, size: 0x8, addend: 0x0, symName: '__ZN69_$LT$core..hash..sip..Sip13Rounds$u20$as$u20$core..hash..sip..Sip$GT$8c_rounds17h70e4c59866e5267bE', symObjAddr: 0x64D4, symBinAddr: 0x22D24, symSize: 0x1A0 }
  - { offset: 0xAB56E, size: 0x8, addend: 0x0, symName: '__ZN69_$LT$core..hash..sip..Sip13Rounds$u20$as$u20$core..hash..sip..Sip$GT$8d_rounds17h3b8811d1e0e99e50E', symObjAddr: 0x6674, symBinAddr: 0x22EC4, symSize: 0x46C }
  - { offset: 0xAB9AB, size: 0x8, addend: 0x0, symName: '__ZN71_$LT$core..hash..sip..Hasher$LT$S$GT$$u20$as$u20$core..hash..Hasher$GT$5write17ha80f9df59b9dd73bE', symObjAddr: 0x6B48, symBinAddr: 0x23384, symSize: 0x230 }
  - { offset: 0xABB24, size: 0x8, addend: 0x0, symName: '__ZN71_$LT$core..hash..sip..Hasher$LT$S$GT$$u20$as$u20$core..hash..Hasher$GT$6finish17hc2df5739c5afc5fbE', symObjAddr: 0x6D78, symBinAddr: 0x235B4, symSize: 0xA0 }
  - { offset: 0xABB97, size: 0x8, addend: 0x0, symName: '__ZN71_$LT$core..hash..sip..Hasher$LT$S$GT$$u20$as$u20$core..hash..Hasher$GT$9write_str17hf34b31605014176dE', symObjAddr: 0x6E18, symBinAddr: 0x23654, symSize: 0x5C }
  - { offset: 0xABC9D, size: 0x8, addend: 0x0, symName: '__ZN4core5slice29_$LT$impl$u20$$u5b$T$u5d$$GT$4iter17h783e85c3f858b8f3E', symObjAddr: 0x2B68, symBinAddr: 0x21218, symSize: 0x28 }
  - { offset: 0xABCD4, size: 0x8, addend: 0x0, symName: '__ZN4core5slice29_$LT$impl$u20$$u5b$T$u5d$$GT$8is_empty17hbc41960024af3d79E', symObjAddr: 0x2BB8, symBinAddr: 0x21240, symSize: 0x1C }
  - { offset: 0xABDBE, size: 0x8, addend: 0x0, symName: '__ZN63_$LT$I$u20$as$u20$core..iter..traits..collect..IntoIterator$GT$9into_iter17h6ea1a1ffbab00716E', symObjAddr: 0x60E0, symBinAddr: 0x22D0C, symSize: 0x18 }
  - { offset: 0xAC04C, size: 0x8, addend: 0x0, symName: '__ZN107_$LT$pyo3..instance..Bound$LT$pyo3..types..list..PyList$GT$$u20$as$u20$pyo3..types..list..PyListMethods$GT$6append5inner17h748d74df5b84320dE', symObjAddr: 0x380, symBinAddr: 0x20348, symSize: 0x9C }
  - { offset: 0xAC217, size: 0x8, addend: 0x0, symName: '__ZN75_$LT$pyo3..types..list..PyList$u20$as$u20$pyo3..type_object..PyTypeInfo$GT$16is_type_of_bound17h0535f335d67e0c4aE', symObjAddr: 0x6E74, symBinAddr: 0x236B0, symSize: 0x30 }
  - { offset: 0xAC2B8, size: 0x8, addend: 0x0, symName: '__ZN4pyo33gil13OWNED_OBJECTS29_$u7b$$u7b$constant$u7d$$u7d$28_$u7b$$u7b$closure$u7d$$u7d$23__RUST_STD_INTERNAL_VAL17h3aa713c1e82b013aE', symObjAddr: 0x8868, symBinAddr: 0xE0F70, symSize: 0x0 }
  - { offset: 0xAC2C7, size: 0x8, addend: 0x0, symName: '__ZN4pyo33gil13OWNED_OBJECTS29_$u7b$$u7b$constant$u7d$$u7d$28_$u7b$$u7b$closure$u7d$$u7d$17hebb05543ab19f1c8E', symObjAddr: 0x32B8, symBinAddr: 0x21388, symSize: 0x34 }
  - { offset: 0xAC310, size: 0x8, addend: 0x0, symName: __ZN4pyo33gil4POOL17h77d49738db20e4b9E, symObjAddr: 0x88C8, symBinAddr: 0xE0558, symSize: 0x0 }
  - { offset: 0xAC384, size: 0x8, addend: 0x0, symName: __ZN4pyo33gil5START17h1da82356e226b1f8E, symObjAddr: 0x3F8CF, symBinAddr: 0xE1260, symSize: 0x0 }
  - { offset: 0xAC3AD, size: 0x8, addend: 0x0, symName: '__ZN4pyo33gil9GIL_COUNT29_$u7b$$u7b$constant$u7d$$u7d$28_$u7b$$u7b$closure$u7d$$u7d$23__RUST_STD_INTERNAL_VAL17h5c15614c9aaacba6E', symObjAddr: 0x88B0, symBinAddr: 0xE0F88, symSize: 0x0 }
  - { offset: 0xAC3BC, size: 0x8, addend: 0x0, symName: '__ZN4pyo33gil9GIL_COUNT29_$u7b$$u7b$constant$u7d$$u7d$28_$u7b$$u7b$closure$u7d$$u7d$17h5276c54bde42255bE', symObjAddr: 0x4288, symBinAddr: 0x22178, symSize: 0x30 }
  - { offset: 0xAC414, size: 0x8, addend: 0x0, symName: '__ZN60_$LT$pyo3..gil..GILPool$u20$as$u20$core..ops..drop..Drop$GT$4drop28_$u7b$$u7b$closure$u7d$$u7d$17hd9a3d7adc0c56f31E', symObjAddr: 0x5A80, symBinAddr: 0x22BD8, symSize: 0x100 }
  - { offset: 0xAC46A, size: 0x8, addend: 0x0, symName: '__ZN60_$LT$pyo3..gil..GILPool$u20$as$u20$core..ops..drop..Drop$GT$4drop17h2d1eccbfc7b67346E', symObjAddr: 0x57C4, symBinAddr: 0x2291C, symSize: 0x2BC }
  - { offset: 0xAC5F5, size: 0x8, addend: 0x0, symName: '__ZN4pyo33gil15gil_is_acquired28_$u7b$$u7b$closure$u7d$$u7d$17had581b5de7aeb20aE', symObjAddr: 0x3A90, symBinAddr: 0x21A5C, symSize: 0x2C }
  - { offset: 0xAC638, size: 0x8, addend: 0x0, symName: '__ZN4pyo33gil19decrement_gil_count28_$u7b$$u7b$closure$u7d$$u7d$17hec63df556b94b4ebE', symObjAddr: 0x3DC4, symBinAddr: 0x21D90, symSize: 0x8C }
  - { offset: 0xAC690, size: 0x8, addend: 0x0, symName: '__ZN4pyo33gil19increment_gil_count28_$u7b$$u7b$closure$u7d$$u7d$17h1110820deb3bcd84E', symObjAddr: 0x3E50, symBinAddr: 0x21E1C, symSize: 0x74 }
  - { offset: 0xAC6ED, size: 0x8, addend: 0x0, symName: '__ZN4pyo33gil7GILPool3new28_$u7b$$u7b$closure$u7d$$u7d$17hc455ea44af23ecb4E', symObjAddr: 0x3F54, symBinAddr: 0x21F20, symSize: 0x94 }
  - { offset: 0xAC7BA, size: 0x8, addend: 0x0, symName: __ZN4pyo33gil15register_decref17hc3f29b14288083b7E, symObjAddr: 0x3ABC, symBinAddr: 0x21A88, symSize: 0x1DC }
  - { offset: 0xAC835, size: 0x8, addend: 0x0, symName: __ZN4pyo33gil15register_incref17haba322995f13eb8aE, symObjAddr: 0x3C98, symBinAddr: 0x21C64, symSize: 0x12C }
  - { offset: 0xAC8DC, size: 0x8, addend: 0x0, symName: __ZN4pyo33gil27prepare_freethreaded_python17hd44b05d35892a862E, symObjAddr: 0x3EC4, symBinAddr: 0x21E90, symSize: 0x1C }
  - { offset: 0xAC8FA, size: 0x8, addend: 0x0, symName: '__ZN4pyo33gil27prepare_freethreaded_python28_$u7b$$u7b$closure$u7d$$u7d$17hd563bf3a7ead2817E', symObjAddr: 0x3EE0, symBinAddr: 0x21EAC, symSize: 0x38 }
  - { offset: 0xAC994, size: 0x8, addend: 0x0, symName: '__ZN4pyo33gil8GILGuard7acquire28_$u7b$$u7b$closure$u7d$$u7d$17h9738f879b7f01151E', symObjAddr: 0x41F8, symBinAddr: 0x220E8, symSize: 0x90 }
  - { offset: 0xACA1E, size: 0x8, addend: 0x0, symName: '__ZN61_$LT$pyo3..gil..GILGuard$u20$as$u20$core..ops..drop..Drop$GT$4drop17hb579a41ffd8f563bE', symObjAddr: 0x5CE4, symBinAddr: 0x22CD8, symSize: 0x34 }
  - { offset: 0xACA57, size: 0x8, addend: 0x0, symName: '__ZN152_$LT$core..result..Result$LT$pyo3..instance..Bound$LT$pyo3..types..any..PyAny$GT$$C$pyo3..err..PyErr$GT$$u20$as$u20$pyo3..py_result_ext..PyResultExt$GT$23downcast_into_unchecked28_$u7b$$u7b$closure$u7d$$u7d$17h5aec8452cb09fd8eE', symObjAddr: 0x9AC, symBinAddr: 0x203E4, symSize: 0x24 }
  - { offset: 0xACBCF, size: 0x8, addend: 0x0, symName: __ZN4pyo35impl_7pyclass17build_pyclass_doc17h21430642495dab01E, symObjAddr: 0x45A0, symBinAddr: 0x221D0, symSize: 0x1D8 }
  - { offset: 0xACCC9, size: 0x8, addend: 0x0, symName: '__ZN4pyo35impl_7pyclass17build_pyclass_doc28_$u7b$$u7b$closure$u7d$$u7d$17h57a83a48c7fee0d8E', symObjAddr: 0x4778, symBinAddr: 0x223A8, symSize: 0x64 }
  - { offset: 0xACD04, size: 0x8, addend: 0x0, symName: __ZN4pyo35impl_7pyclass30get_sequence_item_from_mapping17hcc36cb66e3d84c66E, symObjAddr: 0x47DC, symBinAddr: 0x2240C, symSize: 0x210 }
  - { offset: 0xACDBE, size: 0x8, addend: 0x0, symName: __ZN4pyo35impl_7pyclass33assign_sequence_item_from_mapping17h4174a59cf06eccbdE, symObjAddr: 0x49EC, symBinAddr: 0x2261C, symSize: 0x24C }
  - { offset: 0xACE7F, size: 0x8, addend: 0x0, symName: '__ZN97_$LT$pyo3..impl_..pyclass..PyClassItemsIter$u20$as$u20$core..iter..traits..iterator..Iterator$GT$4next17h6502c50b81b01bc3E', symObjAddr: 0x7104, symBinAddr: 0x236F0, symSize: 0xD0 }
  - { offset: 0xAD25B, size: 0x8, addend: 0x0, symName: __ZN4pyo311type_object12get_tp_alloc17h7e5bfaa1673db61dE, symObjAddr: 0x3174, symBinAddr: 0x21314, symSize: 0x74 }
  - { offset: 0xAD28C, size: 0x8, addend: 0x0, symName: '__ZN52_$LT$T$u20$as$u20$pyo3..type_object..PyTypeCheck$GT$10type_check17h04180aaec66538d6E', symObjAddr: 0x5590, symBinAddr: 0x228B8, symSize: 0x24 }
  - { offset: 0xAE14A, size: 0x8, addend: 0x0, symName: '__ZN78_$LT$$u21$$u20$as$u20$std..sys..thread_local..native..lazy..DestroyedState$GT$13register_dtor17h245b06be2fb5916eE', symObjAddr: 0x6EA4, symBinAddr: 0x236E0, symSize: 0x10 }
  - { offset: 0xAE17A, size: 0x8, addend: 0x0, symName: __ZN3std3sys12thread_local20abort_on_dtor_unwind17hf2cd161a79e4a3f3E, symObjAddr: 0x11B8, symBinAddr: 0x20408, symSize: 0x50 }
  - { offset: 0xAE753, size: 0x8, addend: 0x0, symName: __ZN3std9panicking12catch_unwind7do_call17h1f22bb1fb7e74d49E, symObjAddr: 0x1FBC, symBinAddr: 0x20AC0, symSize: 0x64 }
  - { offset: 0xAE81B, size: 0x8, addend: 0x0, symName: __ZN3std9panicking12catch_unwind7do_call17h38a68479aa26b7e8E, symObjAddr: 0x2020, symBinAddr: 0x20B24, symSize: 0x80 }
  - { offset: 0xAE916, size: 0x8, addend: 0x0, symName: __ZN3std9panicking12catch_unwind7do_call17h63d962912bd9d558E, symObjAddr: 0x20A0, symBinAddr: 0x20BA4, symSize: 0x7C }
  - { offset: 0xAEA10, size: 0x8, addend: 0x0, symName: __ZN3std9panicking12catch_unwind7do_call17h684cfba224216591E, symObjAddr: 0x211C, symBinAddr: 0x20C20, symSize: 0x7C }
  - { offset: 0xAEB0A, size: 0x8, addend: 0x0, symName: __ZN3std9panicking12catch_unwind7do_call17he11a4249af9d1957E, symObjAddr: 0x2198, symBinAddr: 0x20C9C, symSize: 0x80 }
  - { offset: 0xAEC05, size: 0x8, addend: 0x0, symName: __ZN3std9panicking12catch_unwind8do_catch17h586b54b651b050e6E, symObjAddr: 0x2218, symBinAddr: 0x20D1C, symSize: 0x70 }
  - { offset: 0xAEC9A, size: 0x8, addend: 0x0, symName: __ZN3std9panicking12catch_unwind8do_catch17h7a322c4ab226ed80E, symObjAddr: 0x2288, symBinAddr: 0x20D8C, symSize: 0x70 }
  - { offset: 0xAED2F, size: 0x8, addend: 0x0, symName: __ZN3std9panicking12catch_unwind8do_catch17h93757b26fbb5ebd3E, symObjAddr: 0x22F8, symBinAddr: 0x20DFC, symSize: 0x70 }
  - { offset: 0xAEDC4, size: 0x8, addend: 0x0, symName: __ZN3std9panicking12catch_unwind8do_catch17hb595b58c2cc84156E, symObjAddr: 0x2368, symBinAddr: 0x20E6C, symSize: 0x70 }
  - { offset: 0xAEE59, size: 0x8, addend: 0x0, symName: __ZN3std9panicking12catch_unwind8do_catch17hf5a803e680b223c8E, symObjAddr: 0x23D8, symBinAddr: 0x20EDC, symSize: 0x70 }
  - { offset: 0xAF2E6, size: 0x8, addend: 0x0, symName: '__ZN3std3sys12thread_local6native4lazy20Storage$LT$T$C$D$GT$11get_or_init17h419e141872d4fcc4E', symObjAddr: 0x1208, symBinAddr: 0x20458, symSize: 0x94 }
  - { offset: 0xAF4E7, size: 0x8, addend: 0x0, symName: '__ZN3std3sys12thread_local6native4lazy20Storage$LT$T$C$D$GT$16get_or_init_slow17he954107556844987E', symObjAddr: 0x129C, symBinAddr: 0x88918, symSize: 0x1D8 }
  - { offset: 0xAF7F9, size: 0x8, addend: 0x0, symName: '__ZN3std6thread5local17LocalKey$LT$T$GT$4with17h461d4e1c6bdb17bdE', symObjAddr: 0x1474, symBinAddr: 0x204EC, symSize: 0x70 }
  - { offset: 0xAF8D5, size: 0x8, addend: 0x0, symName: '__ZN3std6thread5local17LocalKey$LT$T$GT$4with17hab646e5ed8f7413dE', symObjAddr: 0x1584, symBinAddr: 0x2055C, symSize: 0x50 }
  - { offset: 0xAF99B, size: 0x8, addend: 0x0, symName: '__ZN3std6thread5local17LocalKey$LT$T$GT$8try_with17h13502f9dce5dca6eE', symObjAddr: 0x1748, symBinAddr: 0x205AC, symSize: 0xE8 }
  - { offset: 0xAFB3E, size: 0x8, addend: 0x0, symName: '__ZN3std6thread5local17LocalKey$LT$T$GT$8try_with17h5b1ca70b39d18a57E', symObjAddr: 0x1908, symBinAddr: 0x20694, symSize: 0xD0 }
  - { offset: 0xAFCC0, size: 0x8, addend: 0x0, symName: '__ZN3std6thread5local17LocalKey$LT$T$GT$8try_with17h64d5c4d28e90c40dE', symObjAddr: 0x19D8, symBinAddr: 0x20764, symSize: 0xEC }
  - { offset: 0xAFE42, size: 0x8, addend: 0x0, symName: '__ZN3std6thread5local17LocalKey$LT$T$GT$8try_with17h99dde5b124f98a79E', symObjAddr: 0x1C74, symBinAddr: 0x20850, symSize: 0xCC }
  - { offset: 0xAFFC3, size: 0x8, addend: 0x0, symName: '__ZN3std6thread5local17LocalKey$LT$T$GT$8try_with17hc4a02275485de28cE', symObjAddr: 0x1E18, symBinAddr: 0x2091C, symSize: 0xCC }
  - { offset: 0xB0144, size: 0x8, addend: 0x0, symName: '__ZN3std6thread5local17LocalKey$LT$T$GT$8try_with17hcf929d1bf2a8a252E', symObjAddr: 0x1EE4, symBinAddr: 0x209E8, symSize: 0xD8 }
  - { offset: 0xB04B4, size: 0x8, addend: 0x0, symName: '__ZN4core4hash3sip15Hasher$LT$S$GT$5reset17h0239dce3e25608a4E', symObjAddr: 0x2790, symBinAddr: 0x20F4C, symSize: 0x8C }
  - { offset: 0xB0533, size: 0x8, addend: 0x0, symName: __ZN4pyo33gil13ReferencePool13update_counts17h601805e9ba35ff33E, symObjAddr: 0x32EC, symBinAddr: 0x213BC, symSize: 0x584 }
  - { offset: 0xB06F0, size: 0x8, addend: 0x0, symName: __ZN4pyo33gil13ReferencePool15register_decref17ha3874a06b6572a76E, symObjAddr: 0x3870, symBinAddr: 0x21940, symSize: 0x90 }
  - { offset: 0xB0722, size: 0x8, addend: 0x0, symName: __ZN4pyo33gil13ReferencePool15register_incref17h21bed1de7caa9446E, symObjAddr: 0x3900, symBinAddr: 0x219D0, symSize: 0x8C }
  - { offset: 0xB0754, size: 0x8, addend: 0x0, symName: __ZN4pyo33gil7GILPool3new17ha5c9effe69a29175E, symObjAddr: 0x3F18, symBinAddr: 0x21EE4, symSize: 0x3C }
  - { offset: 0xB078A, size: 0x8, addend: 0x0, symName: __ZN4pyo33gil7GILPool6python17hb0b128864ffb402bE, symObjAddr: 0x3FE8, symBinAddr: 0x21FB4, symSize: 0x20 }
  - { offset: 0xB07AD, size: 0x8, addend: 0x0, symName: __ZN4pyo33gil7LockGIL4bail17hd7374b5747e2d35eE, symObjAddr: 0x4088, symBinAddr: 0x88AF0, symSize: 0x5C }
  - { offset: 0xB07D0, size: 0x8, addend: 0x0, symName: __ZN4pyo33gil8GILGuard17acquire_unchecked17h27f34dc5980ac259E, symObjAddr: 0x40E4, symBinAddr: 0x21FD4, symSize: 0x94 }
  - { offset: 0xB0832, size: 0x8, addend: 0x0, symName: __ZN4pyo33gil8GILGuard7acquire17h3c4f37d9726012ddE, symObjAddr: 0x4178, symBinAddr: 0x22068, symSize: 0x80 }
  - { offset: 0xB08CD, size: 0x8, addend: 0x0, symName: __ZN4pyo35impl_7pyclass16PyClassItemsIter3new17h38565be9b5be9070E, symObjAddr: 0x42B8, symBinAddr: 0x221A8, symSize: 0x28 }
  - { offset: 0xB0924, size: 0x8, addend: 0x0, symName: __ZN4pyo35types4list6PyList11empty_bound17hfe20d03591c04eccE, symObjAddr: 0x51EC, symBinAddr: 0x22868, symSize: 0x28 }
  - { offset: 0xB0BBD, size: 0x8, addend: 0x0, symName: '__ZN106_$LT$core..slice..iter..Iter$LT$T$GT$$u20$as$u20$core..iter..traits..double_ended..DoubleEndedIterator$GT$9next_back17h9b32a3450e67d1c3E', symObjAddr: 0x0, symBinAddr: 0x237C0, symSize: 0xE8 }
  - { offset: 0xB0CCE, size: 0x8, addend: 0x0, symName: '__ZN72_$LT$pyo3..pycell..impl_..BorrowFlag$u20$as$u20$core..cmp..PartialEq$GT$2eq17h39d2004eb227a2afE', symObjAddr: 0x315C, symBinAddr: 0x24A68, symSize: 0x2C }
  - { offset: 0xB0D0E, size: 0x8, addend: 0x0, symName: '__ZN96_$LT$pyo3..pycell..impl_..BorrowChecker$u20$as$u20$pyo3..pycell..impl_..PyClassBorrowChecker$GT$14try_borrow_mut17h6e7246484f69b346E', symObjAddr: 0x4AD8, symBinAddr: 0x252F0, symSize: 0x70 }
  - { offset: 0xB0D57, size: 0x8, addend: 0x0, symName: '__ZN96_$LT$pyo3..pycell..impl_..BorrowChecker$u20$as$u20$pyo3..pycell..impl_..PyClassBorrowChecker$GT$18release_borrow_mut17h581bf9e3cf7e28d1E', symObjAddr: 0x4B48, symBinAddr: 0x25360, symSize: 0x28 }
  - { offset: 0xB1646, size: 0x8, addend: 0x0, symName: '__ZN74_$LT$core..cell..RefMut$LT$T$GT$$u20$as$u20$core..ops..deref..DerefMut$GT$9deref_mut17ha22da749be534a55E', symObjAddr: 0x3284, symBinAddr: 0x24A94, symSize: 0x18 }
  - { offset: 0xB1692, size: 0x8, addend: 0x0, symName: '__ZN74_$LT$core..cell..RefMut$LT$T$GT$$u20$as$u20$core..ops..deref..DerefMut$GT$9deref_mut17hb4aed58c8f40eee3E', symObjAddr: 0x329C, symBinAddr: 0x24AAC, symSize: 0x18 }
  - { offset: 0xB173E, size: 0x8, addend: 0x0, symName: '__ZN63_$LT$core..cell..BorrowRef$u20$as$u20$core..ops..drop..Drop$GT$4drop17h09e972dd39d9589dE', symObjAddr: 0x2CB4, symBinAddr: 0x249D0, symSize: 0x28 }
  - { offset: 0xB17AE, size: 0x8, addend: 0x0, symName: '__ZN66_$LT$core..cell..BorrowRefMut$u20$as$u20$core..ops..drop..Drop$GT$4drop17h4463cef39656ad56E', symObjAddr: 0x2DD8, symBinAddr: 0x249F8, symSize: 0x28 }
  - { offset: 0xB181E, size: 0x8, addend: 0x0, symName: '__ZN68_$LT$core..cell..Ref$LT$T$GT$$u20$as$u20$core..ops..deref..Deref$GT$5deref17h5dc09f8edcc5fc73E', symObjAddr: 0x30CC, symBinAddr: 0x24A20, symSize: 0x18 }
  - { offset: 0xB1870, size: 0x8, addend: 0x0, symName: '__ZN71_$LT$core..cell..RefMut$LT$T$GT$$u20$as$u20$core..ops..deref..Deref$GT$5deref17h460afc9d030aaf43E', symObjAddr: 0x30E4, symBinAddr: 0x24A38, symSize: 0x18 }
  - { offset: 0xB18BC, size: 0x8, addend: 0x0, symName: '__ZN71_$LT$core..cell..RefMut$LT$T$GT$$u20$as$u20$core..ops..deref..Deref$GT$5deref17h8d44649631f0ef1aE', symObjAddr: 0x30FC, symBinAddr: 0x24A50, symSize: 0x18 }
  - { offset: 0xB34A1, size: 0x8, addend: 0x0, symName: '__ZN4core3num23_$LT$impl$u20$isize$GT$13unchecked_neg18precondition_check17hde24e4b9728313ccE', symObjAddr: 0x7E8, symBinAddr: 0x238A8, symSize: 0x6C }
  - { offset: 0xB3583, size: 0x8, addend: 0x0, symName: '__ZN4core3num23_$LT$impl$u20$usize$GT$13unchecked_add18precondition_check17h49528e6f8fab495cE', symObjAddr: 0x8D0, symBinAddr: 0x23914, symSize: 0x64 }
  - { offset: 0xB3735, size: 0x8, addend: 0x0, symName: __ZN4core4sync6atomic23atomic_compare_exchange17h1c4c576bd38a8b7eE, symObjAddr: 0x1D30, symBinAddr: 0x24114, symSize: 0x4B4 }
  - { offset: 0xB37D0, size: 0x8, addend: 0x0, symName: __ZN4core4sync6atomic5fence17h4aae09795365b2a0E, symObjAddr: 0x21E4, symBinAddr: 0x245C8, symSize: 0xB0 }
  - { offset: 0xB38F8, size: 0x8, addend: 0x0, symName: __ZN4core9panicking13assert_failed17h83f9ab97c6c2df81E, symObjAddr: 0x25DC, symBinAddr: 0x88B4C, symSize: 0x54 }
  - { offset: 0xB3961, size: 0x8, addend: 0x0, symName: __ZN4core9panicking13panic_display17h2ef8dd2a6cfea493E, symObjAddr: 0x2630, symBinAddr: 0x24860, symSize: 0x5C }
  - { offset: 0xB3AB2, size: 0x8, addend: 0x0, symName: '__ZN106_$LT$core..slice..iter..Iter$LT$T$GT$$u20$as$u20$core..iter..traits..double_ended..DoubleEndedIterator$GT$9next_back17h9b32a3450e67d1c3E', symObjAddr: 0x0, symBinAddr: 0x237C0, symSize: 0xE8 }
  - { offset: 0xB3D2B, size: 0x8, addend: 0x0, symName: '__ZN91_$LT$core..slice..iter..Iter$LT$T$GT$$u20$as$u20$core..iter..traits..iterator..Iterator$GT$24__iterator_get_unchecked17hb7740c416e8df721E', symObjAddr: 0x3EF4, symBinAddr: 0x24D14, symSize: 0x28 }
  - { offset: 0xB3D86, size: 0x8, addend: 0x0, symName: '__ZN91_$LT$core..slice..iter..Iter$LT$T$GT$$u20$as$u20$core..iter..traits..iterator..Iterator$GT$24__iterator_get_unchecked17hd498a96da3c4a0a9E', symObjAddr: 0x3F1C, symBinAddr: 0x24D3C, symSize: 0x20 }
  - { offset: 0xB3E30, size: 0x8, addend: 0x0, symName: '__ZN91_$LT$core..slice..iter..Iter$LT$T$GT$$u20$as$u20$core..iter..traits..iterator..Iterator$GT$3any17h02617352f6a0d08cE', symObjAddr: 0x3F3C, symBinAddr: 0x24D5C, symSize: 0xE4 }
  - { offset: 0xB3F0B, size: 0x8, addend: 0x0, symName: '__ZN91_$LT$core..slice..iter..Iter$LT$T$GT$$u20$as$u20$core..iter..traits..iterator..Iterator$GT$4next17h5c10d6b29c14e1d6E', symObjAddr: 0x4244, symBinAddr: 0x24E40, symSize: 0x84 }
  - { offset: 0xB3FC1, size: 0x8, addend: 0x0, symName: '__ZN91_$LT$core..slice..iter..Iter$LT$T$GT$$u20$as$u20$core..iter..traits..iterator..Iterator$GT$4next17h93b7033a6defe3afE', symObjAddr: 0x42C8, symBinAddr: 0x24EC4, symSize: 0x84 }
  - { offset: 0xB4077, size: 0x8, addend: 0x0, symName: '__ZN91_$LT$core..slice..iter..Iter$LT$T$GT$$u20$as$u20$core..iter..traits..iterator..Iterator$GT$4next17hd29fad1c4a3ec083E', symObjAddr: 0x43D0, symBinAddr: 0x24F48, symSize: 0x84 }
  - { offset: 0xB412D, size: 0x8, addend: 0x0, symName: '__ZN91_$LT$core..slice..iter..Iter$LT$T$GT$$u20$as$u20$core..iter..traits..iterator..Iterator$GT$4next17heddab5132e15cbd9E', symObjAddr: 0x4454, symBinAddr: 0x24FCC, symSize: 0x84 }
  - { offset: 0xB41E3, size: 0x8, addend: 0x0, symName: '__ZN91_$LT$core..slice..iter..Iter$LT$T$GT$$u20$as$u20$core..iter..traits..iterator..Iterator$GT$9size_hint17h1256528c9c9c7deeE', symObjAddr: 0x44D8, symBinAddr: 0x25050, symSize: 0xB4 }
  - { offset: 0xB4310, size: 0x8, addend: 0x0, symName: '__ZN91_$LT$core..slice..iter..Iter$LT$T$GT$$u20$as$u20$core..iter..traits..iterator..Iterator$GT$9size_hint17h37847e3b0c86c9c1E', symObjAddr: 0x4640, symBinAddr: 0x25104, symSize: 0xB4 }
  - { offset: 0xB443D, size: 0x8, addend: 0x0, symName: '__ZN91_$LT$core..slice..iter..Iter$LT$T$GT$$u20$as$u20$core..iter..traits..iterator..Iterator$GT$9size_hint17h9cbddb4a45d8c3a7E', symObjAddr: 0x47A8, symBinAddr: 0x251B8, symSize: 0xB4 }
  - { offset: 0xB45A6, size: 0x8, addend: 0x0, symName: '__ZN94_$LT$core..slice..iter..IterMut$LT$T$GT$$u20$as$u20$core..iter..traits..iterator..Iterator$GT$4next17h791ff3b88d5a7741E', symObjAddr: 0x4910, symBinAddr: 0x2526C, symSize: 0x84 }
  - { offset: 0xB4E9B, size: 0x8, addend: 0x0, symName: '__ZN4core3str21_$LT$impl$u20$str$GT$16trim_end_matches17h025a53487dbb4c69E', symObjAddr: 0xAC8, symBinAddr: 0x23978, symSize: 0xE0 }
  - { offset: 0xB501E, size: 0x8, addend: 0x0, symName: '__ZN4core3str21_$LT$impl$u20$str$GT$3len17he0b8c2f98d5dba7fE', symObjAddr: 0xC8C, symBinAddr: 0x23A58, symSize: 0x1C }
  - { offset: 0xB5244, size: 0x8, addend: 0x0, symName: __ZN4core3str7pattern15ReverseSearcher16next_reject_back17h922c5926a866ae6bE, symObjAddr: 0x1164, symBinAddr: 0x23A74, symSize: 0x90 }
  - { offset: 0xB52AF, size: 0x8, addend: 0x0, symName: '__ZN52_$LT$char$u20$as$u20$core..str..pattern..Pattern$GT$13into_searcher17hb08687087e9c098fE', symObjAddr: 0x2A1C, symBinAddr: 0x248BC, symSize: 0x114 }
  - { offset: 0xB53CD, size: 0x8, addend: 0x0, symName: '__ZN88_$LT$core..str..pattern..CharSearcher$u20$as$u20$core..str..pattern..ReverseSearcher$GT$9next_back17h70b85f38b6546a07E', symObjAddr: 0x3BD4, symBinAddr: 0x24AC4, symSize: 0x250 }
  - { offset: 0xB5C21, size: 0x8, addend: 0x0, symName: '__ZN4core4iter6traits8iterator8Iterator12try_for_each4call28_$u7b$$u7b$closure$u7d$$u7d$17h31855e81da77d6aaE', symObjAddr: 0x1604, symBinAddr: 0x23E60, symSize: 0x48 }
  - { offset: 0xB5C89, size: 0x8, addend: 0x0, symName: __ZN4core4iter6traits8iterator8Iterator3zip17he2d3022f88c0575dE, symObjAddr: 0x174C, symBinAddr: 0x23EA8, symSize: 0xC8 }
  - { offset: 0xB5CFF, size: 0x8, addend: 0x0, symName: __ZN4core4iter6traits8iterator8Iterator4take17h395b9124dcbdb33bE, symObjAddr: 0x1814, symBinAddr: 0x23F70, symSize: 0x2C }
  - { offset: 0xB5D64, size: 0x8, addend: 0x0, symName: '__ZN4core4iter6traits8iterator8Iterator8find_map5check28_$u7b$$u7b$closure$u7d$$u7d$17h4bdac97cb2d081b4E', symObjAddr: 0x1840, symBinAddr: 0x23F9C, symSize: 0x7C }
  - { offset: 0xB5DE7, size: 0x8, addend: 0x0, symName: '__ZN4core4iter6traits8iterator8Iterator8find_map5check28_$u7b$$u7b$closure$u7d$$u7d$17h8ba9a659bd9f0bcfE', symObjAddr: 0x18BC, symBinAddr: 0x24018, symSize: 0x7C }
  - { offset: 0xB5E6C, size: 0x8, addend: 0x0, symName: __ZN4core4iter6traits8iterator8Iterator9enumerate17h185962a71c74a60aE, symObjAddr: 0x1C58, symBinAddr: 0x24094, symSize: 0x28 }
  - { offset: 0xB5F41, size: 0x8, addend: 0x0, symName: __ZN4core4iter8adapters3zip27TrustedRandomAccessNoCoerce4size17h7f8678ae5401d423E, symObjAddr: 0x1CD8, symBinAddr: 0x240BC, symSize: 0x2C }
  - { offset: 0xB5F78, size: 0x8, addend: 0x0, symName: __ZN4core4iter8adapters3zip27TrustedRandomAccessNoCoerce4size17hfb4c83e0841c2d0cE, symObjAddr: 0x1D04, symBinAddr: 0x240E8, symSize: 0x2C }
  - { offset: 0xB6068, size: 0x8, addend: 0x0, symName: __ZN4core9core_arch10arm_shared4neon9generated13vget_lane_u6417h934200ba31a96fc9E, symObjAddr: 0x24B0, symBinAddr: 0x247DC, symSize: 0x18 }
  - { offset: 0xB6097, size: 0x8, addend: 0x0, symName: __ZN4core9core_arch10arm_shared4neon9generated18vreinterpret_s8_u817hb2bfa2fbcf2cfde3E, symObjAddr: 0x24C8, symBinAddr: 0x247F4, symSize: 0xC }
  - { offset: 0xB60C5, size: 0x8, addend: 0x0, symName: __ZN4core9core_arch10arm_shared4neon9generated19vreinterpret_u64_u817h7bf09b3ed0890da7E, symObjAddr: 0x24D4, symBinAddr: 0x24800, symSize: 0xC }
  - { offset: 0xB60F3, size: 0x8, addend: 0x0, symName: __ZN4core9core_arch10arm_shared4neon9generated7vceq_u817h2cf24b8ba955cd19E, symObjAddr: 0x24E0, symBinAddr: 0x2480C, symSize: 0x14 }
  - { offset: 0xB6130, size: 0x8, addend: 0x0, symName: __ZN4core9core_arch10arm_shared4neon9generated7vorr_u817h8454af892e71a62dE, symObjAddr: 0x24F4, symBinAddr: 0x24820, symSize: 0x14 }
  - { offset: 0xB616D, size: 0x8, addend: 0x0, symName: __ZN4core9core_arch10arm_shared4neon9generated9vdup_n_u817hb1cdabfdf1950154E, symObjAddr: 0x2508, symBinAddr: 0x24834, symSize: 0x2C }
  - { offset: 0xB7339, size: 0x8, addend: 0x0, symName: '__ZN4core4cell13Cell$LT$T$GT$3get17hbf6d6dd226bc54c9E', symObjAddr: 0x1284, symBinAddr: 0x23B04, symSize: 0x18 }
  - { offset: 0xB7372, size: 0x8, addend: 0x0, symName: '__ZN4core4cell13Cell$LT$T$GT$3get17hd0f17dc83eb59158E', symObjAddr: 0x129C, symBinAddr: 0x23B1C, symSize: 0x18 }
  - { offset: 0xB73C6, size: 0x8, addend: 0x0, symName: '__ZN4core4cell13Cell$LT$T$GT$3set17h1fd3220ca4325718E', symObjAddr: 0x12B4, symBinAddr: 0x23B34, symSize: 0x1C }
  - { offset: 0xB7464, size: 0x8, addend: 0x0, symName: '__ZN4core4cell13Cell$LT$T$GT$3set17hc1b333e8a356d82fE', symObjAddr: 0x12D0, symBinAddr: 0x23B50, symSize: 0x1C }
  - { offset: 0xB75F1, size: 0x8, addend: 0x0, symName: '__ZN4core4cell16RefCell$LT$T$GT$10borrow_mut17h4b070e328341865fE', symObjAddr: 0x1310, symBinAddr: 0x23B6C, symSize: 0xAC }
  - { offset: 0xB7827, size: 0x8, addend: 0x0, symName: '__ZN4core4cell16RefCell$LT$T$GT$10borrow_mut17hca072a7f8d626c3fE', symObjAddr: 0x13BC, symBinAddr: 0x23C18, symSize: 0xAC }
  - { offset: 0xB7A2A, size: 0x8, addend: 0x0, symName: '__ZN4core4cell16RefCell$LT$T$GT$6borrow17hab7172ca5aa7e828E', symObjAddr: 0x1468, symBinAddr: 0x23CC4, symSize: 0xC0 }
  - { offset: 0xB7BDA, size: 0x8, addend: 0x0, symName: '__ZN4core4cell16RefCell$LT$T$GT$7replace17h89d55eb1371d7eb5E', symObjAddr: 0x1528, symBinAddr: 0x23D84, symSize: 0xDC }
  - { offset: 0xB7D73, size: 0x8, addend: 0x0, symName: __ZN4core4sync6atomic8AtomicU816compare_exchange17ha59b329f8fb0dbd1E, symObjAddr: 0x2294, symBinAddr: 0x24678, symSize: 0x34 }
  - { offset: 0xB7DD2, size: 0x8, addend: 0x0, symName: __ZN4core4sync6atomic8AtomicU821compare_exchange_weak17h33192ae1406a62bbE, symObjAddr: 0x22C8, symBinAddr: 0x246AC, symSize: 0x34 }
  - { offset: 0xB7E31, size: 0x8, addend: 0x0, symName: __ZN4core4sync6atomic8AtomicU84load17h60e3fde57f5a9047E, symObjAddr: 0x22FC, symBinAddr: 0x246E0, symSize: 0x24 }
  - { offset: 0xB7E77, size: 0x8, addend: 0x0, symName: __ZN4core4sync6atomic9AtomicI6416compare_exchange17hb7b3e0151a6c7cc1E, symObjAddr: 0x2320, symBinAddr: 0x24704, symSize: 0x30 }
  - { offset: 0xB7F85, size: 0x8, addend: 0x0, symName: '__ZN4core5slice4iter13Iter$LT$T$GT$3new17h3ee8738519653b75E', symObjAddr: 0x2368, symBinAddr: 0x24734, symSize: 0x58 }
  - { offset: 0xB8135, size: 0x8, addend: 0x0, symName: '__ZN4core5slice4iter13Iter$LT$T$GT$3new17h6e39c776efbbd3c7E', symObjAddr: 0x2410, symBinAddr: 0x2478C, symSize: 0x50 }
  - { offset: 0xB89DE, size: 0x8, addend: 0x0, symName: '__ZN100_$LT$core..iter..adapters..take..Take$LT$I$GT$$u20$as$u20$core..iter..traits..iterator..Iterator$GT$4next17h7c0b07d43e59c93bE', symObjAddr: 0x0, symBinAddr: 0x25388, symSize: 0x58 }
  - { offset: 0xBAD3C, size: 0x8, addend: 0x0, symName: __ZN4core3cmp3Ord3max17h983340abb5a919bbE, symObjAddr: 0x8E8, symBinAddr: 0x255F0, symSize: 0x74 }
  - { offset: 0xBADAA, size: 0x8, addend: 0x0, symName: __ZN4core3cmp3Ord3min17hea48c4f08c041198E, symObjAddr: 0x9D0, symBinAddr: 0x25664, symSize: 0x74 }
  - { offset: 0xBAE52, size: 0x8, addend: 0x0, symName: '__ZN100_$LT$core..iter..adapters..take..Take$LT$I$GT$$u20$as$u20$core..iter..traits..iterator..Iterator$GT$4next17h7c0b07d43e59c93bE', symObjAddr: 0x0, symBinAddr: 0x25388, symSize: 0x58 }
  - { offset: 0xBAE87, size: 0x8, addend: 0x0, symName: '__ZN100_$LT$core..iter..adapters..take..Take$LT$I$GT$$u20$as$u20$core..iter..traits..iterator..Iterator$GT$9size_hint17hdaaa59ff58594e2eE', symObjAddr: 0xB0, symBinAddr: 0x253E0, symSize: 0x100 }
  - { offset: 0xBAF6D, size: 0x8, addend: 0x0, symName: '__ZN146_$LT$core..ops..range..Range$LT$usize$GT$$u20$as$u20$core..iter..adapters..step_by..SpecRangeSetup$LT$core..ops..range..Range$LT$usize$GT$$GT$$GT$5setup17hcf6b8436aff5e486E', symObjAddr: 0x324, symBinAddr: 0x254E0, symSize: 0x110 }
  - { offset: 0xBB152, size: 0x8, addend: 0x0, symName: __ZN4core4iter6traits8iterator8Iterator3zip17h4706d533d552c686E, symObjAddr: 0xEDC, symBinAddr: 0x25AF8, symSize: 0xB0 }
  - { offset: 0xBB963, size: 0x8, addend: 0x0, symName: '__ZN4core3fmt8builders11DebugStruct10field_with28_$u7b$$u7b$closure$u7d$$u7d$17h195933277c6f808dE', symObjAddr: 0xB20, symBinAddr: 0x25784, symSize: 0x354 }
  - { offset: 0xBD07B, size: 0x8, addend: 0x0, symName: '__ZN4core5slice4iter87_$LT$impl$u20$core..iter..traits..collect..IntoIterator$u20$for$u20$$RF$$u5b$T$u5d$$GT$9into_iter17h14549d0b4a7a2aa2E', symObjAddr: 0x10E8, symBinAddr: 0x25BA8, symSize: 0x50 }
  - { offset: 0xBD46E, size: 0x8, addend: 0x0, symName: '__ZN4pyo33err9err_state10PyErrState4lazy28_$u7b$$u7b$closure$u7d$$u7d$17h65665af9592dee10E', symObjAddr: 0x24C0, symBinAddr: 0x25CD0, symSize: 0x70 }
  - { offset: 0xBD4D0, size: 0x8, addend: 0x0, symName: __ZN4pyo33err9err_state10raise_lazy17hed6f5ed116b3ca1dE, symObjAddr: 0x2640, symBinAddr: 0x25E50, symSize: 0x140 }
  - { offset: 0xBD598, size: 0x8, addend: 0x0, symName: '__ZN4pyo33err9err_state20PyErrStateNormalized10ptraceback28_$u7b$$u7b$closure$u7d$$u7d$17hc75adf1d561eca93E', symObjAddr: 0x27B0, symBinAddr: 0x25FC0, symSize: 0x24 }
  - { offset: 0xBD5DB, size: 0x8, addend: 0x0, symName: '__ZN4pyo33err9err_state20PyErrStateNormalized4take28_$u7b$$u7b$closure$u7d$$u7d$17hac75280e4188490aE', symObjAddr: 0x27F8, symBinAddr: 0x26008, symSize: 0x14 }
  - { offset: 0xBD61F, size: 0x8, addend: 0x0, symName: '__ZN58_$LT$T$u20$as$u20$pyo3..err..err_state..PyErrArguments$GT$9arguments17had1c0bd3f730fc50E', symObjAddr: 0x85E8, symBinAddr: 0x292FC, symSize: 0x28 }
  - { offset: 0xBD66D, size: 0x8, addend: 0x0, symName: '__ZN58_$LT$T$u20$as$u20$pyo3..err..err_state..PyErrArguments$GT$9arguments17hbf93d1e89a75e5b5E', symObjAddr: 0x8610, symBinAddr: 0x29324, symSize: 0x28 }
  - { offset: 0xBD6C1, size: 0x8, addend: 0x0, symName: '__ZN81_$LT$pyo3..err..err_state..PyErrStateNormalized$u20$as$u20$core..clone..Clone$GT$5clone17h15885d01b68a498aE', symObjAddr: 0x96CC, symBinAddr: 0x2937C, symSize: 0x24 }
  - { offset: 0xBDD11, size: 0x8, addend: 0x0, symName: '__ZN79_$LT$pyo3..types..string..PyString$u20$as$u20$pyo3..type_object..PyTypeInfo$GT$16is_type_of_bound17hc0443a16d8417922E', symObjAddr: 0x9628, symBinAddr: 0x2934C, symSize: 0x30 }
  - { offset: 0xBEB34, size: 0x8, addend: 0x0, symName: __ZN4pyo35impl_9pymethods7get_doc17hd30238dcd3d9b5dcE, symObjAddr: 0x3244, symBinAddr: 0x26710, symSize: 0x38 }
  - { offset: 0xBEB62, size: 0x8, addend: 0x0, symName: __ZN4pyo35impl_9pymethods8get_name17h9161258e7b9709dbE, symObjAddr: 0x3290, symBinAddr: 0x26748, symSize: 0x38 }
  - { offset: 0xBEC27, size: 0x8, addend: 0x0, symName: '__ZN4pyo35impl_8pymodule9ModuleDef11make_module28_$u7b$$u7b$closure$u7d$$u7d$17h0bccfa4a55bb5f45E', symObjAddr: 0x29AC, symBinAddr: 0x261BC, symSize: 0x190 }
  - { offset: 0xBECD7, size: 0x8, addend: 0x0, symName: '__ZN4pyo35impl_8pymodule9ModuleDef11make_module28_$u7b$$u7b$closure$u7d$$u7d$17h17c9dbff4adec48aE', symObjAddr: 0x2B3C, symBinAddr: 0x2634C, symSize: 0x30 }
  - { offset: 0xBEDD9, size: 0x8, addend: 0x0, symName: '__ZN52_$LT$T$u20$as$u20$pyo3..type_object..PyTypeCheck$GT$10type_check17hd6e8f859c592e482E', symObjAddr: 0x8374, symBinAddr: 0x292D8, symSize: 0x24 }
  - { offset: 0xBEE63, size: 0x8, addend: 0x0, symName: __ZN4pyo37pyclass18create_type_object13GetSetDefType21create_py_get_set_def13getset_getter17h124cae145cd93621E, symObjAddr: 0x5898, symBinAddr: 0x2698C, symSize: 0x88 }
  - { offset: 0xBEEC3, size: 0x8, addend: 0x0, symName: '__ZN4pyo37pyclass18create_type_object13GetSetDefType21create_py_get_set_def13getset_getter28_$u7b$$u7b$closure$u7d$$u7d$17h1ebb09d85ec84508E', symObjAddr: 0x5920, symBinAddr: 0x26A14, symSize: 0x34 }
  - { offset: 0xBEF22, size: 0x8, addend: 0x0, symName: __ZN4pyo37pyclass18create_type_object13GetSetDefType21create_py_get_set_def13getset_setter17hd4b514004765892fE, symObjAddr: 0x5954, symBinAddr: 0x26A48, symSize: 0xA0 }
  - { offset: 0xBEF91, size: 0x8, addend: 0x0, symName: '__ZN4pyo37pyclass18create_type_object13GetSetDefType21create_py_get_set_def13getset_setter28_$u7b$$u7b$closure$u7d$$u7d$17h27ceebd912ca0df9E', symObjAddr: 0x59F4, symBinAddr: 0x26AE8, symSize: 0x38 }
  - { offset: 0xBEFFF, size: 0x8, addend: 0x0, symName: __ZN4pyo37pyclass18create_type_object13GetSetDefType21create_py_get_set_def6getter17h22e837fc95dd9a2bE, symObjAddr: 0x5B84, symBinAddr: 0x26C78, symSize: 0x48 }
  - { offset: 0xBF05F, size: 0x8, addend: 0x0, symName: '__ZN4pyo37pyclass18create_type_object13GetSetDefType21create_py_get_set_def6getter28_$u7b$$u7b$closure$u7d$$u7d$17hdecdcf5de7739135E', symObjAddr: 0x5BCC, symBinAddr: 0x26CC0, symSize: 0x34 }
  - { offset: 0xBF0BE, size: 0x8, addend: 0x0, symName: __ZN4pyo37pyclass18create_type_object13GetSetDefType21create_py_get_set_def6setter17hbef726e90181bc1aE, symObjAddr: 0x5C00, symBinAddr: 0x26CF4, symSize: 0x5C }
  - { offset: 0xBF12D, size: 0x8, addend: 0x0, symName: '__ZN4pyo37pyclass18create_type_object13GetSetDefType21create_py_get_set_def6setter28_$u7b$$u7b$closure$u7d$$u7d$17h260da61eb36a4e8dE', symObjAddr: 0x5C5C, symBinAddr: 0x26D50, symSize: 0x38 }
  - { offset: 0xBF57D, size: 0x8, addend: 0x0, symName: '__ZN4pyo37pyclass18create_type_object13PyTypeBuilder31finalize_methods_and_properties28_$u7b$$u7b$closure$u7d$$u7d$17h7cd40b6e5eab9577E', symObjAddr: 0x69A4, symBinAddr: 0x27A98, symSize: 0x1BC }
  - { offset: 0xBF67A, size: 0x8, addend: 0x0, symName: __ZN4pyo37pyclass18create_type_object18create_type_object5inner17hf87de6d5de0b89cdE, symObjAddr: 0x7D6C, symBinAddr: 0x28E60, symSize: 0x2A0 }
  - { offset: 0xBF777, size: 0x8, addend: 0x0, symName: __ZN4pyo37pyclass18create_type_object22no_constructor_defined17hba044cec4ba770c6E, symObjAddr: 0x800C, symBinAddr: 0x29100, symSize: 0x38 }
  - { offset: 0xBF7C8, size: 0x8, addend: 0x0, symName: '__ZN4pyo37pyclass18create_type_object22no_constructor_defined28_$u7b$$u7b$closure$u7d$$u7d$17hd3e6590e0544a3e6E', symObjAddr: 0x8044, symBinAddr: 0x29138, symSize: 0x50 }
  - { offset: 0xBF805, size: 0x8, addend: 0x0, symName: __ZN4pyo37pyclass18create_type_object23py_class_qualified_name17hd29687c3269182bfE, symObjAddr: 0x8094, symBinAddr: 0x29188, symSize: 0x150 }
  - { offset: 0xBF8C5, size: 0x8, addend: 0x0, symName: '__ZN94_$LT$pyo3..pyclass..create_type_object..GetSetDefBuilder$u20$as$u20$core..default..Default$GT$7default17h6edf71eb414de3b5E', symObjAddr: 0x9B64, symBinAddr: 0x294A4, symSize: 0x54 }
  - { offset: 0xBFF78, size: 0x8, addend: 0x0, symName: __ZN8pyo3_ffi7cpython11floatobject13_PyFloat_CAST17h3e0dd318c5da9417E, symObjAddr: 0x9800, symBinAddr: 0x293A0, symSize: 0x8C }
  - { offset: 0xBFFED, size: 0x8, addend: 0x0, symName: __ZN8pyo3_ffi7cpython11floatobject17PyFloat_AS_DOUBLE17h97f740fe2272e28bE, symObjAddr: 0x988C, symBinAddr: 0x2942C, symSize: 0x78 }
  - { offset: 0xC0AA3, size: 0x8, addend: 0x0, symName: __ZN4core3fmt8builders11DebugStruct10field_with17hdcf59d3639f54b93E, symObjAddr: 0xA74, symBinAddr: 0x256D8, symSize: 0xAC }
  - { offset: 0xC0BBA, size: 0x8, addend: 0x0, symName: '__ZN4core3mem13manually_drop21ManuallyDrop$LT$T$GT$4drop17ha6e4a1f5c0c7d0edE', symObjAddr: 0xE74, symBinAddr: 0x25AD8, symSize: 0x20 }
  - { offset: 0xC0E2A, size: 0x8, addend: 0x0, symName: __ZN4pyo33err9err_state10PyErrState10normalized17h28c570b4b767ed31E, symObjAddr: 0x23E8, symBinAddr: 0x25BF8, symSize: 0x3C }
  - { offset: 0xC0E59, size: 0x8, addend: 0x0, symName: __ZN4pyo33err9err_state10PyErrState4lazy17ha760e68f738e72c3E, symObjAddr: 0x2424, symBinAddr: 0x25C34, symSize: 0x9C }
  - { offset: 0xC0EAF, size: 0x8, addend: 0x0, symName: __ZN4pyo33err9err_state10PyErrState7restore17hf1a27492d508d9daE, symObjAddr: 0x2530, symBinAddr: 0x25D40, symSize: 0x84 }
  - { offset: 0xC0F25, size: 0x8, addend: 0x0, symName: __ZN4pyo33err9err_state10PyErrState9normalize17h815c9ed24924c4b8E, symObjAddr: 0x25B4, symBinAddr: 0x25DC4, symSize: 0x8C }
  - { offset: 0xC0FA8, size: 0x8, addend: 0x0, symName: __ZN4pyo33err9err_state20PyErrStateNormalized10ptraceback17h394d49b6b010d599E, symObjAddr: 0x2780, symBinAddr: 0x25F90, symSize: 0x30 }
  - { offset: 0xC0FE3, size: 0x8, addend: 0x0, symName: __ZN4pyo33err9err_state20PyErrStateNormalized4take17h31b49b2aefd86555E, symObjAddr: 0x27D4, symBinAddr: 0x25FE4, symSize: 0x24 }
  - { offset: 0xC1010, size: 0x8, addend: 0x0, symName: __ZN4pyo33err9err_state20PyErrStateNormalized5ptype17hd8ddfa8498ed3db4E, symObjAddr: 0x280C, symBinAddr: 0x2601C, symSize: 0x2C }
  - { offset: 0xC1100, size: 0x8, addend: 0x0, symName: __ZN4pyo35impl_8pymodule9ModuleDef11make_module17h346ffbfd1d46e19aE, symObjAddr: 0x2838, symBinAddr: 0x26048, symSize: 0x174 }
  - { offset: 0xC11F5, size: 0x8, addend: 0x0, symName: __ZN4pyo35impl_9pymethods11PyMethodDef13as_method_def17h52e62543314cdf40E, symObjAddr: 0x2CE0, symBinAddr: 0x2637C, symSize: 0x330 }
  - { offset: 0xC1375, size: 0x8, addend: 0x0, symName: __ZN4pyo35impl_9pymethods19PyClassAttributeDef18attribute_c_string17h3c2329d6e7f2aa71E, symObjAddr: 0x3188, symBinAddr: 0x266AC, symSize: 0x40 }
  - { offset: 0xC13B1, size: 0x8, addend: 0x0, symName: '__ZN4pyo35impl_9pymethods39BoundRef$LT$pyo3..types..any..PyAny$GT$12ref_from_ptr17h3318e0e443832e6bE', symObjAddr: 0x31F4, symBinAddr: 0x266EC, symSize: 0x24 }
  - { offset: 0xC1482, size: 0x8, addend: 0x0, symName: __ZN4pyo35types6string8PyString12intern_bound17hc1a17d661f80c9b4E, symObjAddr: 0x3DD8, symBinAddr: 0x26780, symSize: 0x7C }
  - { offset: 0xC1514, size: 0x8, addend: 0x0, symName: __ZN4pyo35types6string8PyString9new_bound17h8f9777a46fb45ebcE, symObjAddr: 0x4010, symBinAddr: 0x267FC, symSize: 0x58 }
  - { offset: 0xC16CE, size: 0x8, addend: 0x0, symName: __ZN4pyo36marker6Python14get_type_bound17h05c91f141b7180f7E, symObjAddr: 0x4D04, symBinAddr: 0x26854, symSize: 0x1C }
  - { offset: 0xC1706, size: 0x8, addend: 0x0, symName: __ZN4pyo36marker6Python14get_type_bound17heb4253db74c4e532E, symObjAddr: 0x4D20, symBinAddr: 0x26870, symSize: 0x1C }
  - { offset: 0xC174B, size: 0x8, addend: 0x0, symName: __ZN4pyo36marker6Python19assume_gil_acquired17h6735261834a81e80E, symObjAddr: 0x4D84, symBinAddr: 0x2688C, symSize: 0x4 }
  - { offset: 0xC175E, size: 0x8, addend: 0x0, symName: __ZN4pyo36marker6Python4None17h9e889ccac8fd72aeE, symObjAddr: 0x4E3C, symBinAddr: 0x26890, symSize: 0x20 }
  - { offset: 0xC179A, size: 0x8, addend: 0x0, symName: __ZN4pyo36marker6Python8with_gil17h11d18db88b1fc3cfE, symObjAddr: 0x5514, symBinAddr: 0x268B0, symSize: 0xDC }
  - { offset: 0xC17FF, size: 0x8, addend: 0x0, symName: __ZN4pyo37pyclass18create_type_object13GetSetDefType21create_py_get_set_def17h01e5deb3a8021c8fE, symObjAddr: 0x5A2C, symBinAddr: 0x26B20, symSize: 0x158 }
  - { offset: 0xC1A29, size: 0x8, addend: 0x0, symName: __ZN4pyo37pyclass18create_type_object13PyTypeBuilder11class_items17hd0e17595946993f1E, symObjAddr: 0x5C94, symBinAddr: 0x26D88, symSize: 0x234 }
  - { offset: 0xC1B44, size: 0x8, addend: 0x0, symName: __ZN4pyo37pyclass18create_type_object13PyTypeBuilder12pymethod_def17h58d7af2de3ce2ec3E, symObjAddr: 0x5EC8, symBinAddr: 0x26FBC, symSize: 0x2C4 }
  - { offset: 0xC1C26, size: 0x8, addend: 0x0, symName: __ZN4pyo37pyclass18create_type_object13PyTypeBuilder15set_is_basetype17hf323d496ee6e60cfE, symObjAddr: 0x618C, symBinAddr: 0x27280, symSize: 0x54 }
  - { offset: 0xC1CD7, size: 0x8, addend: 0x0, symName: __ZN4pyo37pyclass18create_type_object13PyTypeBuilder17push_raw_vec_slot17h272df7d9f7b89eefE, symObjAddr: 0x61E0, symBinAddr: 0x272D4, symSize: 0x1A8 }
  - { offset: 0xC1EC9, size: 0x8, addend: 0x0, symName: __ZN4pyo37pyclass18create_type_object13PyTypeBuilder17push_raw_vec_slot17h2cc0100261f95de2E, symObjAddr: 0x6388, symBinAddr: 0x2747C, symSize: 0x194 }
  - { offset: 0xC20B2, size: 0x8, addend: 0x0, symName: __ZN4pyo37pyclass18create_type_object13PyTypeBuilder17push_raw_vec_slot17hc152b203b9b45d1cE, symObjAddr: 0x651C, symBinAddr: 0x27610, symSize: 0x1A8 }
  - { offset: 0xC2226, size: 0x8, addend: 0x0, symName: __ZN4pyo37pyclass18create_type_object13PyTypeBuilder31finalize_methods_and_properties17h6a62e75cfe54c63fE, symObjAddr: 0x66C4, symBinAddr: 0x277B8, symSize: 0x2E0 }
  - { offset: 0xC2327, size: 0x8, addend: 0x0, symName: __ZN4pyo37pyclass18create_type_object13PyTypeBuilder5build17h2fc56e23081f069aE, symObjAddr: 0x6B60, symBinAddr: 0x27C54, symSize: 0x75C }
  - { offset: 0xC25BB, size: 0x8, addend: 0x0, symName: __ZN4pyo37pyclass18create_type_object13PyTypeBuilder7offsets17he1c6b2d5dab56de4E, symObjAddr: 0x72BC, symBinAddr: 0x283B0, symSize: 0x1DC }
  - { offset: 0xC268F, size: 0x8, addend: 0x0, symName: __ZN4pyo37pyclass18create_type_object13PyTypeBuilder8type_doc17h997a8cd00672419fE, symObjAddr: 0x7498, symBinAddr: 0x2858C, symSize: 0xE0 }
  - { offset: 0xC26D8, size: 0x8, addend: 0x0, symName: __ZN4pyo37pyclass18create_type_object13PyTypeBuilder9push_slot17h39574c9475ba3479E, symObjAddr: 0x7578, symBinAddr: 0x2866C, symSize: 0x108 }
  - { offset: 0xC271F, size: 0x8, addend: 0x0, symName: __ZN4pyo37pyclass18create_type_object13PyTypeBuilder9push_slot17hc13a6f57f6e96fa0E, symObjAddr: 0x7680, symBinAddr: 0x28774, symSize: 0x108 }
  - { offset: 0xC2766, size: 0x8, addend: 0x0, symName: __ZN4pyo37pyclass18create_type_object13PyTypeBuilder9push_slot17hcaf999517cc11776E, symObjAddr: 0x7788, symBinAddr: 0x2887C, symSize: 0x108 }
  - { offset: 0xC27C7, size: 0x8, addend: 0x0, symName: __ZN4pyo37pyclass18create_type_object16GetSetDefBuilder10add_getter17h796333d0e03ea608E, symObjAddr: 0x7890, symBinAddr: 0x28984, symSize: 0x64 }
  - { offset: 0xC2806, size: 0x8, addend: 0x0, symName: __ZN4pyo37pyclass18create_type_object16GetSetDefBuilder10add_setter17h30cec16c2d9295dbE, symObjAddr: 0x78F4, symBinAddr: 0x289E8, symSize: 0x64 }
  - { offset: 0xC2863, size: 0x8, addend: 0x0, symName: __ZN4pyo37pyclass18create_type_object16GetSetDefBuilder14as_get_set_def17hb28991cb096ca6eeE, symObjAddr: 0x7958, symBinAddr: 0x28A4C, symSize: 0x414 }
  - { offset: 0xC2C05, size: 0x8, addend: 0x0, symName: '__ZN9hashbrown3raw21RawTable$LT$T$C$A$GT$14reserve_rehash28_$u7b$$u7b$closure$u7d$$u7d$17h339308b454bfa3eaE', symObjAddr: 0x3E24, symBinAddr: 0x2B484, symSize: 0xC0 }
  - { offset: 0xC2DE9, size: 0x8, addend: 0x0, symName: '__ZN9hashbrown3raw21RawTable$LT$T$C$A$GT$4find28_$u7b$$u7b$closure$u7d$$u7d$17h8f6b59d6948d1e23E', symObjAddr: 0x41F8, symBinAddr: 0x2B858, symSize: 0xC4 }
  - { offset: 0xC35CB, size: 0x8, addend: 0x0, symName: '__ZN79_$LT$hashbrown..raw..RawTable$LT$T$C$A$GT$$u20$as$u20$core..ops..drop..Drop$GT$4drop17h872898b162290e31E', symObjAddr: 0x1990, symBinAddr: 0x29914, symSize: 0x3C }
  - { offset: 0xC37E0, size: 0x8, addend: 0x0, symName: '__ZN9hashbrown3raw13RawTableInner14prepare_resize28_$u7b$$u7b$closure$u7d$$u7d$17h36e1c48329fafcd6E', symObjAddr: 0x1E90, symBinAddr: 0x29C8C, symSize: 0xB0 }
  - { offset: 0xC39B2, size: 0x8, addend: 0x0, symName: '__ZN9hashbrown3raw13RawTableInner15rehash_in_place28_$u7b$$u7b$closure$u7d$$u7d$17hc0c32406150b45a1E', symObjAddr: 0x235C, symBinAddr: 0x2A158, symSize: 0x1F8 }
  - { offset: 0xC3E53, size: 0x8, addend: 0x0, symName: __ZN9hashbrown3raw19capacity_to_buckets17hcdb89cb942d64a91E, symObjAddr: 0x2FF0, symBinAddr: 0x2ADEC, symSize: 0x2C8 }
  - { offset: 0xC4B45, size: 0x8, addend: 0x0, symName: '__ZN4pyo311conversions3std6string119_$LT$impl$u20$pyo3..conversion..IntoPy$LT$pyo3..instance..Py$LT$pyo3..types..any..PyAny$GT$$GT$$u20$for$u20$$RF$str$GT$7into_py17h50e507c1b788e04aE', symObjAddr: 0x5F0, symBinAddr: 0x295F4, symSize: 0x34 }
  - { offset: 0xC4B90, size: 0x8, addend: 0x0, symName: '__ZN4pyo311conversions3std6string73_$LT$impl$u20$pyo3..conversion..FromPyObjectBound$u20$for$u20$$RF$str$GT$20from_py_object_bound17h9b09c82137cc6911E', symObjAddr: 0x8F0, symBinAddr: 0x29628, symSize: 0xA0 }
  - { offset: 0xC765B, size: 0x8, addend: 0x0, symName: '__ZN82_$LT$core..array..iter..IntoIter$LT$T$C$_$GT$$u20$as$u20$core..ops..drop..Drop$GT$4drop17h90f296039a4b980eE', symObjAddr: 0x1A10, symBinAddr: 0x29950, symSize: 0x30 }
  - { offset: 0xC76B2, size: 0x8, addend: 0x0, symName: '__ZN99_$LT$core..array..iter..IntoIter$LT$T$C$_$GT$$u20$as$u20$core..iter..traits..iterator..Iterator$GT$4next17haabacf79180907bcE', symObjAddr: 0x1B28, symBinAddr: 0x29A10, symSize: 0x2C }
  - { offset: 0xC7789, size: 0x8, addend: 0x0, symName: '__ZN47_$LT$$LP$$RP$$u20$as$u20$core..unit..IsUnit$GT$7is_unit17hf86f89c65c84f842E', symObjAddr: 0x78, symBinAddr: 0x294F8, symSize: 0xC }
  - { offset: 0xC78E6, size: 0x8, addend: 0x0, symName: __ZN4core4iter6traits8iterator8Iterator9enumerate17hca0eeed470d434a9E, symObjAddr: 0xC4, symBinAddr: 0x29504, symSize: 0x18 }
  - { offset: 0xC7917, size: 0x8, addend: 0x0, symName: __ZN4core4iter6traits8iterator8Iterator9enumerate17hca0eeed470d434a9E, symObjAddr: 0xC4, symBinAddr: 0x29504, symSize: 0x18 }
  - { offset: 0xC8094, size: 0x8, addend: 0x0, symName: __ZN4core9ub_checks23maybe_is_nonoverlapping7runtime17h5dcb5d4e44a92befE, symObjAddr: 0x268, symBinAddr: 0x2951C, symSize: 0xD8 }
  - { offset: 0xC824B, size: 0x8, addend: 0x0, symName: '__ZN50_$LT$T$u20$as$u20$core..convert..Into$LT$U$GT$$GT$4into17h3cbfc884fa6b04dcE', symObjAddr: 0xDBC, symBinAddr: 0x296C8, symSize: 0x14 }
  - { offset: 0xC8BA3, size: 0x8, addend: 0x0, symName: __ZN8pyo3_ffi8pyerrors22PyExceptionClass_Check17h9382e175a1ccf932E, symObjAddr: 0x1A98, symBinAddr: 0x29980, symSize: 0x60 }
  - { offset: 0xC8BCF, size: 0x8, addend: 0x0, symName: __ZN8pyo3_ffi8pyerrors25PyExceptionInstance_Check17h360581cbabdb381eE, symObjAddr: 0x1AF8, symBinAddr: 0x299E0, symSize: 0x30 }
  - { offset: 0xC91A5, size: 0x8, addend: 0x0, symName: __ZN5alloc6borrow3Cow8Borrowed17h612385d8ab1e7c9dE, symObjAddr: 0xEF8, symBinAddr: 0x29750, symSize: 0x2C }
  - { offset: 0xC91DD, size: 0x8, addend: 0x0, symName: '__ZN71_$LT$alloc..borrow..Cow$LT$B$GT$$u20$as$u20$core..ops..deref..Deref$GT$5deref17h6241fbc208fcdc76E', symObjAddr: 0x153C, symBinAddr: 0x2982C, symSize: 0x78 }
  - { offset: 0xC9232, size: 0x8, addend: 0x0, symName: '__ZN71_$LT$alloc..borrow..Cow$LT$B$GT$$u20$as$u20$core..ops..deref..Deref$GT$5deref17hb7116eba103bdc92E', symObjAddr: 0x15B4, symBinAddr: 0x298A4, symSize: 0x70 }
  - { offset: 0xC928D, size: 0x8, addend: 0x0, symName: '__ZN66_$LT$alloc..borrow..Cow$LT$B$GT$$u20$as$u20$core..fmt..Display$GT$3fmt17hbcbe061029c1d29eE', symObjAddr: 0xFF4, symBinAddr: 0x297A8, symSize: 0x84 }
  - { offset: 0xC93E4, size: 0x8, addend: 0x0, symName: '__ZN5alloc6string94_$LT$impl$u20$core..convert..From$LT$$RF$str$GT$$u20$for$u20$alloc..borrow..Cow$LT$str$GT$$GT$4from17h8220407793ee86e3E', symObjAddr: 0xF24, symBinAddr: 0x2977C, symSize: 0x2C }
  - { offset: 0xC9610, size: 0x8, addend: 0x0, symName: '__ZN5alloc6borrow12Cow$LT$B$GT$10into_owned17h02354e8633929d3fE', symObjAddr: 0xE84, symBinAddr: 0x296DC, symSize: 0x74 }
  - { offset: 0xC976A, size: 0x8, addend: 0x0, symName: __ZN9hashbrown3raw11TableLayout20calculate_layout_for17h5aaca80d6b292f97E, symObjAddr: 0x1C40, symBinAddr: 0x29A3C, symSize: 0x220 }
  - { offset: 0xC9B0F, size: 0x8, addend: 0x0, symName: __ZN9hashbrown3raw13RawTableInner13drop_elements17hd249a5f28b0e615cE, symObjAddr: 0x1E60, symBinAddr: 0x29C5C, symSize: 0x30 }
  - { offset: 0xC9FB7, size: 0x8, addend: 0x0, symName: __ZN9hashbrown3raw13RawTableInner15rehash_in_place17hb074280643cdffb3E, symObjAddr: 0x1F40, symBinAddr: 0x29D3C, symSize: 0x41C }
  - { offset: 0xCA931, size: 0x8, addend: 0x0, symName: __ZN9hashbrown3raw13RawTableInner16drop_inner_table17he8987bee0b5b77a8E, symObjAddr: 0x2554, symBinAddr: 0x2A350, symSize: 0xB0 }
  - { offset: 0xCABF2, size: 0x8, addend: 0x0, symName: __ZN9hashbrown3raw13RawTableInner16fix_insert_index17h5fd8a014156cd3d2E, symObjAddr: 0x2604, symBinAddr: 0x2A400, symSize: 0x100 }
  - { offset: 0xCAE64, size: 0x8, addend: 0x0, symName: __ZN9hashbrown3raw13RawTableInner17find_insert_index17h41cf8df02eb2fb3aE, symObjAddr: 0x2704, symBinAddr: 0x2A500, symSize: 0xFC }
  - { offset: 0xCB041, size: 0x8, addend: 0x0, symName: __ZN9hashbrown3raw13RawTableInner17new_uninitialized17h4e30ee71e91b58bfE, symObjAddr: 0x2800, symBinAddr: 0x2A5FC, symSize: 0x2AC }
  - { offset: 0xCB36E, size: 0x8, addend: 0x0, symName: __ZN9hashbrown3raw13RawTableInner22fallible_with_capacity17h56c2459421b1023aE, symObjAddr: 0x2AAC, symBinAddr: 0x2A8A8, symSize: 0x220 }
  - { offset: 0xCB807, size: 0x8, addend: 0x0, symName: __ZN9hashbrown3raw13RawTableInner23prepare_rehash_in_place17he99567b8c6b6e6ffE, symObjAddr: 0x2CCC, symBinAddr: 0x2AAC8, symSize: 0x204 }
  - { offset: 0xCBDFD, size: 0x8, addend: 0x0, symName: __ZN9hashbrown3raw13RawTableInner26find_insert_index_in_group17ha3773ca74f11fee0E, symObjAddr: 0x2ED0, symBinAddr: 0x2ACCC, symSize: 0x120 }
  - { offset: 0xCBF42, size: 0x8, addend: 0x0, symName: '__ZN9hashbrown3raw21RawIterRange$LT$T$GT$3new17hce3447eaade24843E', symObjAddr: 0x32B8, symBinAddr: 0x2B0B4, symSize: 0x98 }
  - { offset: 0xCC1D6, size: 0x8, addend: 0x0, symName: '__ZN9hashbrown3raw21RawIterRange$LT$T$GT$9next_impl17hebc61bf578c6ebfaE', symObjAddr: 0x3350, symBinAddr: 0x2B14C, symSize: 0x1B4 }
  - { offset: 0xCC6F3, size: 0x8, addend: 0x0, symName: '__ZN9hashbrown3raw21RawTable$LT$T$C$A$GT$14insert_no_grow17h6a22a3c159b98e15E', symObjAddr: 0x3504, symBinAddr: 0x2B300, symSize: 0x184 }
  - { offset: 0xCCF02, size: 0x8, addend: 0x0, symName: '__ZN9hashbrown3raw21RawTable$LT$T$C$A$GT$14reserve_rehash17hd6e2010a7261c564E', symObjAddr: 0x3688, symBinAddr: 0x88BA0, symSize: 0x79C }
  - { offset: 0xCDBFF, size: 0x8, addend: 0x0, symName: '__ZN9hashbrown3raw21RawTable$LT$T$C$A$GT$4find17h707b82f69a80f31dE', symObjAddr: 0x3EE4, symBinAddr: 0x2B544, symSize: 0x314 }
  - { offset: 0xCE222, size: 0x8, addend: 0x0, symName: '__ZN9hashbrown3raw21RawTable$LT$T$C$A$GT$7reserve17h3575ef3ee8ea448eE', symObjAddr: 0x42BC, symBinAddr: 0x2B91C, symSize: 0xB0 }
  - { offset: 0xCE3E3, size: 0x8, addend: 0x0, symName: '__ZN45_$LT$T$u20$as$u20$alloc..string..ToString$GT$9to_string17hfb553c09c30c94b2E', symObjAddr: 0x2E4, symBinAddr: 0x2BA20, symSize: 0x24 }
  - { offset: 0xCE420, size: 0x8, addend: 0x0, symName: '__ZN49_$LT$T$u20$as$u20$alloc..string..SpecToString$GT$14spec_to_string17ha516a1e0a83e2b74E', symObjAddr: 0xC04, symBinAddr: 0x2BA44, symSize: 0xF4 }
  - { offset: 0xCE6F0, size: 0x8, addend: 0x0, symName: '__ZN59_$LT$alloc..alloc..Global$u20$as$u20$core..clone..Clone$GT$5clone17hc2d99282aeeee282E', symObjAddr: 0x5400, symBinAddr: 0x2D354, symSize: 0x10 }
  - { offset: 0xCE749, size: 0x8, addend: 0x0, symName: '__ZN63_$LT$alloc..alloc..Global$u20$as$u20$core..alloc..Allocator$GT$10deallocate17hbc8a0bb3e126f185E', symObjAddr: 0x576C, symBinAddr: 0x2D62C, symSize: 0x58 }
  - { offset: 0xCE817, size: 0x8, addend: 0x0, symName: '__ZN63_$LT$alloc..alloc..Global$u20$as$u20$core..alloc..Allocator$GT$8allocate17hda806f451ad4d125E', symObjAddr: 0x57C4, symBinAddr: 0x2D684, symSize: 0x40 }
  - { offset: 0xCE883, size: 0x8, addend: 0x0, symName: __ZN5alloc5alloc15exchange_malloc17hfce37c5dd2aa666fE, symObjAddr: 0x544C, symBinAddr: 0x2D3A0, symSize: 0xB0 }
  - { offset: 0xCEC60, size: 0x8, addend: 0x0, symName: '__ZN64_$LT$alloc..ffi..c_str..NulError$u20$as$u20$core..fmt..Debug$GT$3fmt17hf30c8595f1d753dfE', symObjAddr: 0x5804, symBinAddr: 0x2D6C4, symSize: 0x5C }
  - { offset: 0xCECA0, size: 0x8, addend: 0x0, symName: '__ZN70_$LT$alloc..ffi..c_str..CString$u20$as$u20$core..ops..deref..Deref$GT$5deref17hc6dc727a36d0f5b3E', symObjAddr: 0x59F4, symBinAddr: 0x2D720, symSize: 0x20 }
  - { offset: 0xCED2E, size: 0x8, addend: 0x0, symName: '__ZN97_$LT$alloc..ffi..c_str..CString$u20$as$u20$core..borrow..Borrow$LT$core..ffi..c_str..CStr$GT$$GT$6borrow17h2270a56383f11c83E', symObjAddr: 0x68D4, symBinAddr: 0x2DBD0, symSize: 0x20 }
  - { offset: 0xCEDC3, size: 0x8, addend: 0x0, symName: '__ZN5alloc5boxed12Box$LT$T$GT$8into_raw17h3b31361f55c1ebbfE', symObjAddr: 0x5690, symBinAddr: 0x2D5E4, symSize: 0x18 }
  - { offset: 0xCEDFA, size: 0x8, addend: 0x0, symName: '__ZN5alloc5boxed12Box$LT$T$GT$8into_raw17h60475c6a354fc721E', symObjAddr: 0x56A8, symBinAddr: 0x2D5FC, symSize: 0x18 }
  - { offset: 0xCEE31, size: 0x8, addend: 0x0, symName: '__ZN5alloc5boxed12Box$LT$T$GT$8into_raw17hcb937bed88347812E', symObjAddr: 0x56C0, symBinAddr: 0x2D614, symSize: 0x18 }
  - { offset: 0xCEE6E, size: 0x8, addend: 0x0, symName: '__ZN72_$LT$alloc..boxed..Box$LT$T$C$A$GT$$u20$as$u20$core..ops..drop..Drop$GT$4drop17h0edeead5ee45e18cE', symObjAddr: 0x5A14, symBinAddr: 0x2D740, symSize: 0xC4 }
  - { offset: 0xCEFA7, size: 0x8, addend: 0x0, symName: '__ZN72_$LT$alloc..boxed..Box$LT$T$C$A$GT$$u20$as$u20$core..ops..drop..Drop$GT$4drop17h582b96b6f0a0f086E', symObjAddr: 0x5AD8, symBinAddr: 0x2D804, symSize: 0xB0 }
  - { offset: 0xCF0E0, size: 0x8, addend: 0x0, symName: '__ZN72_$LT$alloc..boxed..Box$LT$T$C$A$GT$$u20$as$u20$core..ops..drop..Drop$GT$4drop17h6f61c645bf3fb60fE', symObjAddr: 0x5B88, symBinAddr: 0x2D8B4, symSize: 0xC4 }
  - { offset: 0xCF219, size: 0x8, addend: 0x0, symName: '__ZN72_$LT$alloc..boxed..Box$LT$T$C$A$GT$$u20$as$u20$core..ops..drop..Drop$GT$4drop17hb6cfcddf2f889f85E', symObjAddr: 0x5D10, symBinAddr: 0x2D978, symSize: 0xC4 }
  - { offset: 0xCF3A2, size: 0x8, addend: 0x0, symName: '__ZN80_$LT$alloc..boxed..Box$LT$T$C$A$GT$$u20$as$u20$core..convert..AsRef$LT$T$GT$$GT$6as_ref17h3c08f05a06c7c864E', symObjAddr: 0x6330, symBinAddr: 0x2DA3C, symSize: 0x18 }
  - { offset: 0xCF3E8, size: 0x8, addend: 0x0, symName: '__ZN86_$LT$alloc..boxed..Box$LT$F$C$A$GT$$u20$as$u20$core..ops..function..Fn$LT$Args$GT$$GT$4call17h6f5d067f635c6577E', symObjAddr: 0x6724, symBinAddr: 0x2DA54, symSize: 0x44 }
  - { offset: 0xCF442, size: 0x8, addend: 0x0, symName: '__ZN90_$LT$alloc..boxed..Box$LT$F$C$A$GT$$u20$as$u20$core..ops..function..FnOnce$LT$Args$GT$$GT$9call_once17hc943bdf0f7e8aa67E', symObjAddr: 0x677C, symBinAddr: 0x2DA98, symSize: 0x138 }
  - { offset: 0xCFC27, size: 0x8, addend: 0x0, symName: __ZN4core3ptr9alignment9Alignment13new_unchecked18precondition_check17h9c6f22289814ea2cE, symObjAddr: 0x1AC4, symBinAddr: 0x2C4E0, symSize: 0x70 }
  - { offset: 0xCFE23, size: 0x8, addend: 0x0, symName: __ZN4core3ptr10swap_chunk17h454562c5f441219eE, symObjAddr: 0xFDC, symBinAddr: 0x2BC58, symSize: 0x3C }
  - { offset: 0xCFE5C, size: 0x8, addend: 0x0, symName: __ZN4core3ptr10swap_chunk17h4cf145645a48bf78E, symObjAddr: 0x1018, symBinAddr: 0x2BC94, symSize: 0x3C }
  - { offset: 0xCFE95, size: 0x8, addend: 0x0, symName: __ZN4core3ptr10swap_chunk17h6471071a0d2058daE, symObjAddr: 0x1054, symBinAddr: 0x2BCD0, symSize: 0x3C }
  - { offset: 0xCFECE, size: 0x8, addend: 0x0, symName: __ZN4core3ptr10swap_chunk17hdbe12c875d2af370E, symObjAddr: 0x1090, symBinAddr: 0x2BD0C, symSize: 0x3C }
  - { offset: 0xCFF0C, size: 0x8, addend: 0x0, symName: __ZN4core3ptr11write_bytes18precondition_check17h09db72cbcd404538E, symObjAddr: 0x10CC, symBinAddr: 0x2BD48, symSize: 0x9C }
  - { offset: 0xD0041, size: 0x8, addend: 0x0, symName: __ZN4core3ptr14read_unaligned17he2e9150c166df9bfE, symObjAddr: 0x1168, symBinAddr: 0x2BDE4, symSize: 0x9C }
  - { offset: 0xD018C, size: 0x8, addend: 0x0, symName: __ZN4core3ptr15write_unaligned17h2ab6b9c5ab70f489E, symObjAddr: 0x1204, symBinAddr: 0x2BE80, symSize: 0x78 }
  - { offset: 0xD0217, size: 0x8, addend: 0x0, symName: __ZN4core3ptr19copy_nonoverlapping18precondition_check17h415457463b335847E, symObjAddr: 0x127C, symBinAddr: 0x2BEF8, symSize: 0x168 }
  - { offset: 0xD0496, size: 0x8, addend: 0x0, symName: __ZN4core3ptr25swap_nonoverlapping_bytes17hec4fb925dfcb7f62E, symObjAddr: 0x1628, symBinAddr: 0x2C060, symSize: 0xD8 }
  - { offset: 0xD063F, size: 0x8, addend: 0x0, symName: __ZN4core3ptr25swap_nonoverlapping_bytes25swap_nonoverlapping_short17h100073c3e12b2d8eE, symObjAddr: 0x1700, symBinAddr: 0x2C138, symSize: 0x11C }
  - { offset: 0xD07CB, size: 0x8, addend: 0x0, symName: __ZN4core3ptr25swap_nonoverlapping_bytes26swap_nonoverlapping_chunks17h1d2a5dbd9ae40292E, symObjAddr: 0x181C, symBinAddr: 0x2C254, symSize: 0xC0 }
  - { offset: 0xD094E, size: 0x8, addend: 0x0, symName: __ZN4core3ptr4copy18precondition_check17h8cf76ccd31141d60E, symObjAddr: 0x18DC, symBinAddr: 0x2C314, symSize: 0x130 }
  - { offset: 0xD0A9A, size: 0x8, addend: 0x0, symName: __ZN4core3ptr7replace18precondition_check17h110181929a632303E, symObjAddr: 0x1A28, symBinAddr: 0x2C444, symSize: 0x9C }
  - { offset: 0xD3E9B, size: 0x8, addend: 0x0, symName: '__ZN4pyo33err5impls94_$LT$impl$u20$pyo3..err..err_state..PyErrArguments$u20$for$u20$alloc..ffi..c_str..NulError$GT$9arguments17heec41b4cfd3e60faE', symObjAddr: 0x2DAC, symBinAddr: 0x2C550, symSize: 0x6C }
  - { offset: 0xD4366, size: 0x8, addend: 0x0, symName: '__ZN4pyo34sync8Interned3get28_$u7b$$u7b$closure$u7d$$u7d$17h1cf6122641712eefE', symObjAddr: 0x4D50, symBinAddr: 0x2D320, symSize: 0x34 }
  - { offset: 0xD43B2, size: 0x8, addend: 0x0, symName: '__ZN4pyo34sync20GILOnceCell$LT$T$GT$11get_or_init28_$u7b$$u7b$closure$u7d$$u7d$17h3a5e7d50c4171e15E', symObjAddr: 0x3128, symBinAddr: 0x2C75C, symSize: 0x34 }
  - { offset: 0xD43F2, size: 0x8, addend: 0x0, symName: '__ZN4pyo34sync20GILOnceCell$LT$T$GT$11get_or_init28_$u7b$$u7b$closure$u7d$$u7d$17hf8774234f2cd6f5dE', symObjAddr: 0x315C, symBinAddr: 0x2C790, symSize: 0x24 }
  - { offset: 0xD5AC4, size: 0x8, addend: 0x0, symName: __ZN15portable_atomic9AtomicI6416compare_exchange17h7aa2fa6c6a7c6f39E, symObjAddr: 0x50, symBinAddr: 0x2B9CC, symSize: 0x34 }
  - { offset: 0xD5B32, size: 0x8, addend: 0x0, symName: __ZN16parking_lot_core11parking_lot8deadlock16acquire_resource17h5c5dc376af2931fdE, symObjAddr: 0xBC, symBinAddr: 0x2BA00, symSize: 0x10 }
  - { offset: 0xD5B5C, size: 0x8, addend: 0x0, symName: __ZN16parking_lot_core11parking_lot8deadlock16release_resource17hf3972b72be8a6a78E, symObjAddr: 0xCC, symBinAddr: 0x2BA10, symSize: 0x10 }
  - { offset: 0xD5C58, size: 0x8, addend: 0x0, symName: __ZN4core3ffi5c_str4CStr29from_bytes_with_nul_unchecked17hcda5cd1d61c40942E, symObjAddr: 0xDEC, symBinAddr: 0x2BB38, symSize: 0x18 }
  - { offset: 0xD5C7B, size: 0x8, addend: 0x0, symName: __ZN4core3ffi5c_str4CStr6as_ptr17h50d68b9314e40c4aE, symObjAddr: 0xE04, symBinAddr: 0x2BB50, symSize: 0x18 }
  - { offset: 0xD5CBC, size: 0x8, addend: 0x0, symName: __ZN4core3ffi5c_str4CStr8from_ptr17h3457830c171c7f05E, symObjAddr: 0xE1C, symBinAddr: 0x2BB68, symSize: 0x7C }
  - { offset: 0xD5DD2, size: 0x8, addend: 0x0, symName: __ZN4core3ffi5c_str4CStr8to_bytes17h0b8ed3dd0ecaceedE, symObjAddr: 0xE98, symBinAddr: 0x2BBE4, symSize: 0x74 }
  - { offset: 0xD6099, size: 0x8, addend: 0x0, symName: '__ZN4pyo34sync20GILOnceCell$LT$T$GT$11get_or_init17h32dd1a7e93d9e0d5E', symObjAddr: 0x2F88, symBinAddr: 0x2C5BC, symSize: 0xC8 }
  - { offset: 0xD6141, size: 0x8, addend: 0x0, symName: '__ZN4pyo34sync20GILOnceCell$LT$T$GT$11get_or_init17ha746b5f4ebaf7cbeE', symObjAddr: 0x3050, symBinAddr: 0x2C684, symSize: 0xD8 }
  - { offset: 0xD623A, size: 0x8, addend: 0x0, symName: '__ZN4pyo34sync20GILOnceCell$LT$T$GT$15get_or_try_init17h2bf98c94b614e9a4E', symObjAddr: 0x3240, symBinAddr: 0x2C7B4, symSize: 0xCC }
  - { offset: 0xD636A, size: 0x8, addend: 0x0, symName: '__ZN4pyo34sync20GILOnceCell$LT$T$GT$15get_or_try_init17h8aca4f202dbbb239E', symObjAddr: 0x33DC, symBinAddr: 0x2C880, symSize: 0xCC }
  - { offset: 0xD6443, size: 0x8, addend: 0x0, symName: '__ZN4pyo34sync20GILOnceCell$LT$T$GT$15get_or_try_init17hbcf9eabed7e43a48E', symObjAddr: 0x34A8, symBinAddr: 0x2C94C, symSize: 0xE8 }
  - { offset: 0xD64BD, size: 0x8, addend: 0x0, symName: '__ZN4pyo34sync20GILOnceCell$LT$T$GT$3get17h1c3718bedaca4626E', symObjAddr: 0x3590, symBinAddr: 0x2CA34, symSize: 0x70 }
  - { offset: 0xD6501, size: 0x8, addend: 0x0, symName: '__ZN4pyo34sync20GILOnceCell$LT$T$GT$3get17h59d867e9d0d33bb4E', symObjAddr: 0x3670, symBinAddr: 0x2CAA4, symSize: 0x74 }
  - { offset: 0xD6545, size: 0x8, addend: 0x0, symName: '__ZN4pyo34sync20GILOnceCell$LT$T$GT$3get17haed2fd9ed2467cd0E', symObjAddr: 0x36E4, symBinAddr: 0x2CB18, symSize: 0x70 }
  - { offset: 0xD6589, size: 0x8, addend: 0x0, symName: '__ZN4pyo34sync20GILOnceCell$LT$T$GT$3get17hb563830e9a092b3fE', symObjAddr: 0x3754, symBinAddr: 0x2CB88, symSize: 0x70 }
  - { offset: 0xD65CD, size: 0x8, addend: 0x0, symName: '__ZN4pyo34sync20GILOnceCell$LT$T$GT$3get17hc6076f5745ede8d1E', symObjAddr: 0x37C4, symBinAddr: 0x2CBF8, symSize: 0x70 }
  - { offset: 0xD6647, size: 0x8, addend: 0x0, symName: '__ZN4pyo34sync20GILOnceCell$LT$T$GT$3set17h5544ea70d38b98b9E', symObjAddr: 0x39B0, symBinAddr: 0x2CC68, symSize: 0x140 }
  - { offset: 0xD6701, size: 0x8, addend: 0x0, symName: '__ZN4pyo34sync20GILOnceCell$LT$T$GT$3set17h5576ad774473155cE', symObjAddr: 0x3AF0, symBinAddr: 0x2CDA8, symSize: 0x140 }
  - { offset: 0xD67BB, size: 0x8, addend: 0x0, symName: '__ZN4pyo34sync20GILOnceCell$LT$T$GT$3set17h5c60ebd1a7d504e6E', symObjAddr: 0x3C30, symBinAddr: 0x2CEE8, symSize: 0x108 }
  - { offset: 0xD6875, size: 0x8, addend: 0x0, symName: '__ZN4pyo34sync20GILOnceCell$LT$T$GT$3set17hbaa9511719a4ebbaE', symObjAddr: 0x3D38, symBinAddr: 0x2CFF0, symSize: 0x140 }
  - { offset: 0xD692F, size: 0x8, addend: 0x0, symName: '__ZN4pyo34sync20GILOnceCell$LT$T$GT$3set17hec1e399fb268430eE', symObjAddr: 0x3E78, symBinAddr: 0x2D130, symSize: 0x194 }
  - { offset: 0xD69DF, size: 0x8, addend: 0x0, symName: '__ZN4pyo34sync20GILOnceCell$LT$T$GT$4init17h334042e2cc46d8b2E', symObjAddr: 0x400C, symBinAddr: 0x8933C, symSize: 0x18C }
  - { offset: 0xD6AE0, size: 0x8, addend: 0x0, symName: '__ZN4pyo34sync20GILOnceCell$LT$T$GT$4init17h4e5bf10e97eea56cE', symObjAddr: 0x4198, symBinAddr: 0x894C8, symSize: 0x120 }
  - { offset: 0xD6BC2, size: 0x8, addend: 0x0, symName: '__ZN4pyo34sync20GILOnceCell$LT$T$GT$4init17h6fbff9748889c55cE', symObjAddr: 0x42B8, symBinAddr: 0x895E8, symSize: 0x11C }
  - { offset: 0xD6CA1, size: 0x8, addend: 0x0, symName: '__ZN4pyo34sync20GILOnceCell$LT$T$GT$4init17ha27f7367961b5525E', symObjAddr: 0x456C, symBinAddr: 0x89704, symSize: 0x158 }
  - { offset: 0xD6DA3, size: 0x8, addend: 0x0, symName: '__ZN4pyo34sync20GILOnceCell$LT$T$GT$4init17hcae1ba65b1eb5bfeE', symObjAddr: 0x46C4, symBinAddr: 0x8985C, symSize: 0x1B8 }
  - { offset: 0xD6E86, size: 0x8, addend: 0x0, symName: '__ZN4pyo34sync21GILProtected$LT$T$GT$3get17h6963a368fd97aeb2E', symObjAddr: 0x49FC, symBinAddr: 0x2D2C4, symSize: 0x14 }
  - { offset: 0xD6EE4, size: 0x8, addend: 0x0, symName: __ZN4pyo34sync8Interned3get17h9905282cc369b203E, symObjAddr: 0x4D08, symBinAddr: 0x2D2D8, symSize: 0x48 }
  - { offset: 0xD6F22, size: 0x8, addend: 0x0, symName: __ZN5alloc3ffi5c_str7CString3new17hea577179153042b5E, symObjAddr: 0x5410, symBinAddr: 0x2D364, symSize: 0x14 }
  - { offset: 0xD6F4F, size: 0x8, addend: 0x0, symName: __ZN5alloc3ffi5c_str7CString3new17hf90d5715caaca294E, symObjAddr: 0x5424, symBinAddr: 0x2D378, symSize: 0x28 }
  - { offset: 0xD7115, size: 0x8, addend: 0x0, symName: __ZN5alloc5alloc6Global18alloc_impl_runtime17h31cb1eed01dec587E, symObjAddr: 0x54FC, symBinAddr: 0x2D450, symSize: 0x194 }
  - { offset: 0xD86DC, size: 0x8, addend: 0x0, symName: __ZN4pyo315internal_tricks16extract_c_string17h367febb0410d13ddE, symObjAddr: 0x4530, symBinAddr: 0x2F3E8, symSize: 0x20C }
  - { offset: 0xD87C9, size: 0x8, addend: 0x0, symName: '__ZN4pyo315internal_tricks16extract_c_string28_$u7b$$u7b$closure$u7d$$u7d$17h9412a369b43cb644E', symObjAddr: 0x473C, symBinAddr: 0x2F5F4, symSize: 0x68 }
  - { offset: 0xD8802, size: 0x8, addend: 0x0, symName: '__ZN4pyo315internal_tricks16extract_c_string28_$u7b$$u7b$closure$u7d$$u7d$17hda2dadbc8e218cfbE', symObjAddr: 0x47A4, symBinAddr: 0x2F65C, symSize: 0x38 }
  - { offset: 0xD978D, size: 0x8, addend: 0x0, symName: '__ZN145_$LT$core..option..Option$LT$T$GT$$u20$as$u20$core..ops..try_trait..FromResidual$LT$core..option..Option$LT$core..convert..Infallible$GT$$GT$$GT$13from_residual17h9c3cb03887458cb6E', symObjAddr: 0x7B8, symBinAddr: 0x2DC68, symSize: 0x10 }
  - { offset: 0xDB3D0, size: 0x8, addend: 0x0, symName: '__ZN66_$LT$core..option..Option$LT$T$GT$$u20$as$u20$core..fmt..Debug$GT$3fmt17h1f3758f11d152d31E', symObjAddr: 0x54F4, symBinAddr: 0x2F780, symSize: 0x9C }
  - { offset: 0xDB43A, size: 0x8, addend: 0x0, symName: '__ZN72_$LT$core..option..Option$LT$T$GT$$u20$as$u20$core..default..Default$GT$7default17h1de6e3ec72212a0bE', symObjAddr: 0x5C04, symBinAddr: 0x2F81C, symSize: 0x8 }
  - { offset: 0xDB462, size: 0x8, addend: 0x0, symName: '__ZN72_$LT$core..option..Option$LT$T$GT$$u20$as$u20$core..default..Default$GT$7default17h2bd3ff2dc18d114fE', symObjAddr: 0x5C0C, symBinAddr: 0x2F824, symSize: 0x8 }
  - { offset: 0xDB48A, size: 0x8, addend: 0x0, symName: '__ZN72_$LT$core..option..Option$LT$T$GT$$u20$as$u20$core..default..Default$GT$7default17h6ebe1a75d51e811aE', symObjAddr: 0x5C14, symBinAddr: 0x2F82C, symSize: 0x8 }
  - { offset: 0xDB4B8, size: 0x8, addend: 0x0, symName: '__ZN75_$LT$core..option..Option$LT$T$GT$$u20$as$u20$core..ops..try_trait..Try$GT$6branch17h0b4838afc8557758E', symObjAddr: 0x5F44, symBinAddr: 0x2F834, symSize: 0x40 }
  - { offset: 0xDBC3C, size: 0x8, addend: 0x0, symName: '__ZN102_$LT$core..iter..adapters..map..Map$LT$I$C$F$GT$$u20$as$u20$core..iter..traits..iterator..Iterator$GT$8try_fold17h8ee305ae6fe754e8E', symObjAddr: 0x114, symBinAddr: 0x2DBF0, symSize: 0x54 }
  - { offset: 0xDBCDF, size: 0x8, addend: 0x0, symName: '__ZN102_$LT$core..iter..adapters..map..Map$LT$I$C$F$GT$$u20$as$u20$core..iter..traits..iterator..Iterator$GT$9size_hint17h3019bd1a101e537eE', symObjAddr: 0x204, symBinAddr: 0x2DC44, symSize: 0x24 }
  - { offset: 0xDBDA7, size: 0x8, addend: 0x0, symName: '__ZN4core4iter8adapters3map12map_try_fold28_$u7b$$u7b$closure$u7d$$u7d$17hfc7b5e85a3b4e202E', symObjAddr: 0x14E0, symBinAddr: 0x2E2D4, symSize: 0xA8 }
  - { offset: 0xDBEC7, size: 0x8, addend: 0x0, symName: __ZN4core4iter6traits8iterator8Iterator7collect17h750d556bbe4f1c34E, symObjAddr: 0x127C, symBinAddr: 0x2E2C0, symSize: 0x14 }
  - { offset: 0xDBF14, size: 0x8, addend: 0x0, symName: '__ZN63_$LT$I$u20$as$u20$core..iter..traits..collect..IntoIterator$GT$9into_iter17h92592b75eba3e55aE', symObjAddr: 0x53A0, symBinAddr: 0x2F750, symSize: 0x30 }
  - { offset: 0xDC0B0, size: 0x8, addend: 0x0, symName: '__ZN185_$LT$core..ops..control_flow..ControlFlow$LT$B$C$C$GT$$u20$as$u20$core..ops..try_trait..FromResidual$LT$core..ops..control_flow..ControlFlow$LT$B$C$core..convert..Infallible$GT$$GT$$GT$13from_residual17h50b279037b21b415E', symObjAddr: 0x8FC, symBinAddr: 0x2DD1C, symSize: 0x18 }
  - { offset: 0xDC0EE, size: 0x8, addend: 0x0, symName: '__ZN185_$LT$core..ops..control_flow..ControlFlow$LT$B$C$C$GT$$u20$as$u20$core..ops..try_trait..FromResidual$LT$core..ops..control_flow..ControlFlow$LT$B$C$core..convert..Infallible$GT$$GT$$GT$13from_residual17h7e26abcaef193575E', symObjAddr: 0x914, symBinAddr: 0x2DD34, symSize: 0x48 }
  - { offset: 0xDC12D, size: 0x8, addend: 0x0, symName: '__ZN185_$LT$core..ops..control_flow..ControlFlow$LT$B$C$C$GT$$u20$as$u20$core..ops..try_trait..FromResidual$LT$core..ops..control_flow..ControlFlow$LT$B$C$core..convert..Infallible$GT$$GT$$GT$13from_residual17hfb8bd879a906f098E', symObjAddr: 0x970, symBinAddr: 0x2DD7C, symSize: 0x58 }
  - { offset: 0xDC177, size: 0x8, addend: 0x0, symName: __ZN4core3ops12control_flow11ControlFlow5Break17hf90d9932991118dcE, symObjAddr: 0x1164, symBinAddr: 0x2E284, symSize: 0x3C }
  - { offset: 0xDC1B9, size: 0x8, addend: 0x0, symName: '__ZN95_$LT$core..ops..control_flow..ControlFlow$LT$B$C$C$GT$$u20$as$u20$core..ops..try_trait..Try$GT$11from_output17h7855606f0a1f3cd6E', symObjAddr: 0x67CC, symBinAddr: 0x2F968, symSize: 0x18 }
  - { offset: 0xDC1F7, size: 0x8, addend: 0x0, symName: '__ZN95_$LT$core..ops..control_flow..ControlFlow$LT$B$C$C$GT$$u20$as$u20$core..ops..try_trait..Try$GT$11from_output17h97f7e5ae309a61c8E', symObjAddr: 0x67F8, symBinAddr: 0x2F980, symSize: 0x10 }
  - { offset: 0xDC235, size: 0x8, addend: 0x0, symName: '__ZN95_$LT$core..ops..control_flow..ControlFlow$LT$B$C$C$GT$$u20$as$u20$core..ops..try_trait..Try$GT$11from_output17hb093617d1ddf2919E', symObjAddr: 0x6808, symBinAddr: 0x2F990, symSize: 0x10 }
  - { offset: 0xDC273, size: 0x8, addend: 0x0, symName: '__ZN95_$LT$core..ops..control_flow..ControlFlow$LT$B$C$C$GT$$u20$as$u20$core..ops..try_trait..Try$GT$6branch17h645525c1e11c0538E', symObjAddr: 0x6850, symBinAddr: 0x2F9A0, symSize: 0x90 }
  - { offset: 0xDC2EC, size: 0x8, addend: 0x0, symName: '__ZN95_$LT$core..ops..control_flow..ControlFlow$LT$B$C$C$GT$$u20$as$u20$core..ops..try_trait..Try$GT$6branch17h917c8a98dbdd161eE', symObjAddr: 0x68E0, symBinAddr: 0x2FA30, symSize: 0x54 }
  - { offset: 0xDC364, size: 0x8, addend: 0x0, symName: '__ZN95_$LT$core..ops..control_flow..ControlFlow$LT$B$C$C$GT$$u20$as$u20$core..ops..try_trait..Try$GT$6branch17hb0c294578c0f9d9eE', symObjAddr: 0x6934, symBinAddr: 0x2FA84, symSize: 0x88 }
  - { offset: 0xDD0E3, size: 0x8, addend: 0x0, symName: '__ZN4core5slice4iter87_$LT$impl$u20$core..iter..traits..collect..IntoIterator$u20$for$u20$$RF$$u5b$T$u5d$$GT$9into_iter17hd90bcaf6ca02d0f4E', symObjAddr: 0x1698, symBinAddr: 0x2E37C, symSize: 0x50 }
  - { offset: 0xDD3E2, size: 0x8, addend: 0x0, symName: '__ZN44_$LT$$RF$T$u20$as$u20$core..fmt..Display$GT$3fmt17h4177dc8ca41ef566E', symObjAddr: 0xA28, symBinAddr: 0x2DDD4, symSize: 0x30 }
  - { offset: 0xDD42E, size: 0x8, addend: 0x0, symName: '__ZN45_$LT$$LP$$RP$$u20$as$u20$core..fmt..Debug$GT$3fmt17h9072a9197aff1d08E', symObjAddr: 0xA58, symBinAddr: 0x2DE04, symSize: 0x40 }
  - { offset: 0xDD476, size: 0x8, addend: 0x0, symName: '__ZN4core3fmt3num52_$LT$impl$u20$core..fmt..Debug$u20$for$u20$usize$GT$3fmt17hec9174a77f446364E', symObjAddr: 0xBB8, symBinAddr: 0x2DE44, symSize: 0x90 }
  - { offset: 0xDD879, size: 0x8, addend: 0x0, symName: '__ZN53_$LT$core..fmt..Error$u20$as$u20$core..fmt..Debug$GT$3fmt17habdd7497ef953c89E', symObjAddr: 0x5090, symBinAddr: 0x2F6DC, symSize: 0x40 }
  - { offset: 0xDD8BE, size: 0x8, addend: 0x0, symName: '__ZN54_$LT$$BP$const$u20$T$u20$as$u20$core..fmt..Pointer$GT$3fmt28_$u7b$$u7b$closure$u7d$$u7d$17h64d552ab8e456f1dE', symObjAddr: 0x50D0, symBinAddr: 0x2F71C, symSize: 0x34 }
  - { offset: 0xDEAB7, size: 0x8, addend: 0x0, symName: '__ZN87_$LT$T$u20$as$u20$alloc..slice..$LT$impl$u20$$u5b$T$u5d$$GT$..to_vec_in..ConvertVec$GT$6to_vec17h5be3bd1e56a7a3efE', symObjAddr: 0x65AC, symBinAddr: 0x2F874, symSize: 0xF4 }
  - { offset: 0xDEE35, size: 0x8, addend: 0x0, symName: __ZN15portable_atomic5utils32assert_compare_exchange_ordering17hf954bd3ba0866725E, symObjAddr: 0x858, symBinAddr: 0x2DC78, symSize: 0xA4 }
  - { offset: 0xDEEB7, size: 0x8, addend: 0x0, symName: __ZN4core3fmt9Arguments17from_str_nonconst17h7464114eeedeea88E, symObjAddr: 0xC48, symBinAddr: 0x2DED4, symSize: 0x28 }
  - { offset: 0xDEF45, size: 0x8, addend: 0x0, symName: __ZN4core3fmt9Arguments23as_statically_known_str17h379f591f998436d2E, symObjAddr: 0xC70, symBinAddr: 0x2DEFC, symSize: 0x104 }
  - { offset: 0xDF046, size: 0x8, addend: 0x0, symName: __ZN4core3fmt9Arguments3new17h1e4f3cbf574d6bbaE, symObjAddr: 0xD74, symBinAddr: 0x2E000, symSize: 0x1C }
  - { offset: 0xDF148, size: 0x8, addend: 0x0, symName: __ZN4core3fmt9Arguments3new17h3fc1579b711536ceE, symObjAddr: 0xE1C, symBinAddr: 0x2E01C, symSize: 0x1C }
  - { offset: 0xDF194, size: 0x8, addend: 0x0, symName: __ZN4core3fmt9Arguments3new17h44616fb1479fb610E, symObjAddr: 0xE38, symBinAddr: 0x2E038, symSize: 0x1C }
  - { offset: 0xDF1E0, size: 0x8, addend: 0x0, symName: __ZN4core3fmt9Arguments3new17h4b6f479e5bb07d97E, symObjAddr: 0xE54, symBinAddr: 0x2E054, symSize: 0x1C }
  - { offset: 0xDF212, size: 0x8, addend: 0x0, symName: __ZN4core3fmt9Arguments3new17h57b43afa4961ddf7E, symObjAddr: 0xE70, symBinAddr: 0x2E070, symSize: 0x1C }
  - { offset: 0xDF25E, size: 0x8, addend: 0x0, symName: __ZN4core3fmt9Arguments3new17h5d62d6a9a0d35cb7E, symObjAddr: 0xE8C, symBinAddr: 0x2E08C, symSize: 0x1C }
  - { offset: 0xDF2AA, size: 0x8, addend: 0x0, symName: __ZN4core3fmt9Arguments3new17h5f227806e02303b0E, symObjAddr: 0xEA8, symBinAddr: 0x2E0A8, symSize: 0x1C }
  - { offset: 0xDF310, size: 0x8, addend: 0x0, symName: __ZN4core3fmt9Arguments3new17h709e68030ebd821fE, symObjAddr: 0xEE0, symBinAddr: 0x2E0C4, symSize: 0x1C }
  - { offset: 0xDF35C, size: 0x8, addend: 0x0, symName: __ZN4core3fmt9Arguments3new17h730c72996e3045a4E, symObjAddr: 0xEFC, symBinAddr: 0x2E0E0, symSize: 0x1C }
  - { offset: 0xDF3C2, size: 0x8, addend: 0x0, symName: __ZN4core3fmt9Arguments3new17h76bf7e4970de9b7fE, symObjAddr: 0xF18, symBinAddr: 0x2E0FC, symSize: 0x1C }
  - { offset: 0xDF490, size: 0x8, addend: 0x0, symName: __ZN4core3fmt9Arguments3new17hcead08fc4c750adaE, symObjAddr: 0xFA4, symBinAddr: 0x2E118, symSize: 0x1C }
  - { offset: 0xDF4DC, size: 0x8, addend: 0x0, symName: __ZN4core3fmt9Arguments3new17hcf71579689e38f2dE, symObjAddr: 0xFC0, symBinAddr: 0x2E134, symSize: 0x1C }
  - { offset: 0xDF542, size: 0x8, addend: 0x0, symName: __ZN4core3fmt9Arguments3new17hd69bed78ec908eeaE, symObjAddr: 0x1014, symBinAddr: 0x2E150, symSize: 0x1C }
  - { offset: 0xDF58E, size: 0x8, addend: 0x0, symName: __ZN4core3fmt9Arguments3new17hd86dca87a5b1445eE, symObjAddr: 0x1030, symBinAddr: 0x2E16C, symSize: 0x1C }
  - { offset: 0xDF5C0, size: 0x8, addend: 0x0, symName: __ZN4core3fmt9Arguments3new17hdf85461e465aede6E, symObjAddr: 0x104C, symBinAddr: 0x2E188, symSize: 0x1C }
  - { offset: 0xDF60C, size: 0x8, addend: 0x0, symName: __ZN4core3fmt9Arguments3new17he7590988f422e6efE, symObjAddr: 0x1068, symBinAddr: 0x2E1A4, symSize: 0x1C }
  - { offset: 0xDF658, size: 0x8, addend: 0x0, symName: __ZN4core3fmt9Arguments8from_str17ha7be72593495385dE, symObjAddr: 0x10A0, symBinAddr: 0x2E1C0, symSize: 0x20 }
  - { offset: 0xDF67B, size: 0x8, addend: 0x0, symName: __ZN4core3fmt9Formatter9write_fmt17h29da5039b6d0d687E, symObjAddr: 0x10C0, symBinAddr: 0x2E1E0, symSize: 0xA4 }
  - { offset: 0xDF83E, size: 0x8, addend: 0x0, symName: '__ZN4core6option15Option$LT$T$GT$11map_or_else17hfa6a0f414ff9ed5aE', symObjAddr: 0x19F0, symBinAddr: 0x2E3CC, symSize: 0xC0 }
  - { offset: 0xDF913, size: 0x8, addend: 0x0, symName: '__ZN4core6option15Option$LT$T$GT$14unwrap_or_else17h8ecc3ad385aabc87E', symObjAddr: 0x1ECC, symBinAddr: 0x2E48C, symSize: 0x58 }
  - { offset: 0xDF98F, size: 0x8, addend: 0x0, symName: '__ZN4core6option15Option$LT$T$GT$3map17h1d97db5944f9099cE', symObjAddr: 0x25A8, symBinAddr: 0x2E4E4, symSize: 0x50 }
  - { offset: 0xDFA37, size: 0x8, addend: 0x0, symName: '__ZN4core6option15Option$LT$T$GT$3map17h2d7b49a90edfe093E', symObjAddr: 0x26CC, symBinAddr: 0x2E534, symSize: 0x70 }
  - { offset: 0xDFAA2, size: 0x8, addend: 0x0, symName: '__ZN4core6option15Option$LT$T$GT$3map17h369403548683033aE', symObjAddr: 0x273C, symBinAddr: 0x2E5A4, symSize: 0x5C }
  - { offset: 0xDFB0D, size: 0x8, addend: 0x0, symName: '__ZN4core6option15Option$LT$T$GT$3map17h3dcbef5ea3038262E', symObjAddr: 0x2824, symBinAddr: 0x2E600, symSize: 0x5C }
  - { offset: 0xDFB78, size: 0x8, addend: 0x0, symName: '__ZN4core6option15Option$LT$T$GT$3map17h4b5a415ed48bc95aE', symObjAddr: 0x292C, symBinAddr: 0x2E65C, symSize: 0x5C }
  - { offset: 0xDFC13, size: 0x8, addend: 0x0, symName: '__ZN4core6option15Option$LT$T$GT$3map17h6934e3e39f853186E', symObjAddr: 0x2AB0, symBinAddr: 0x2E6B8, symSize: 0x50 }
  - { offset: 0xDFC7E, size: 0x8, addend: 0x0, symName: '__ZN4core6option15Option$LT$T$GT$3map17h73c69817e18bed5bE', symObjAddr: 0x2B00, symBinAddr: 0x2E708, symSize: 0x50 }
  - { offset: 0xDFD01, size: 0x8, addend: 0x0, symName: '__ZN4core6option15Option$LT$T$GT$3map17h7a76e0d1834c4fdcE', symObjAddr: 0x2B50, symBinAddr: 0x2E758, symSize: 0x78 }
  - { offset: 0xDFD79, size: 0x8, addend: 0x0, symName: '__ZN4core6option15Option$LT$T$GT$3map17h8941f5c044346e95E', symObjAddr: 0x2C74, symBinAddr: 0x2E7D0, symSize: 0x50 }
  - { offset: 0xDFE21, size: 0x8, addend: 0x0, symName: '__ZN4core6option15Option$LT$T$GT$3map17ha161432f0245409aE', symObjAddr: 0x2E10, symBinAddr: 0x2E820, symSize: 0x5C }
  - { offset: 0xDFE8C, size: 0x8, addend: 0x0, symName: '__ZN4core6option15Option$LT$T$GT$3map17hbaf479fc61e52830E', symObjAddr: 0x2F74, symBinAddr: 0x2E87C, symSize: 0x5C }
  - { offset: 0xDFEF7, size: 0x8, addend: 0x0, symName: '__ZN4core6option15Option$LT$T$GT$3map17hc3af7b8c66000a6aE', symObjAddr: 0x3020, symBinAddr: 0x2E8D8, symSize: 0x5C }
  - { offset: 0xDFF92, size: 0x8, addend: 0x0, symName: '__ZN4core6option15Option$LT$T$GT$3map17he009a8c8d6842027E', symObjAddr: 0x31C0, symBinAddr: 0x2E934, symSize: 0x5C }
  - { offset: 0xDFFFD, size: 0x8, addend: 0x0, symName: '__ZN4core6option15Option$LT$T$GT$3map17he722c2a4b7cf0900E', symObjAddr: 0x321C, symBinAddr: 0x2E990, symSize: 0x5C }
  - { offset: 0xE0068, size: 0x8, addend: 0x0, symName: '__ZN4core6option15Option$LT$T$GT$3map17he9a8a5c619947f7eE', symObjAddr: 0x3278, symBinAddr: 0x2E9EC, symSize: 0x74 }
  - { offset: 0xE00D4, size: 0x8, addend: 0x0, symName: '__ZN4core6option15Option$LT$T$GT$3map17hf1adb55ffb5fb524E', symObjAddr: 0x3348, symBinAddr: 0x2EA60, symSize: 0x64 }
  - { offset: 0xE013F, size: 0x8, addend: 0x0, symName: '__ZN4core6option15Option$LT$T$GT$3map17hf992131864e050a8E', symObjAddr: 0x33FC, symBinAddr: 0x2EAC4, symSize: 0x5C }
  - { offset: 0xE01B7, size: 0x8, addend: 0x0, symName: '__ZN4core6option15Option$LT$T$GT$4take17h5e1829d04ec01d47E', symObjAddr: 0x3458, symBinAddr: 0x2EB20, symSize: 0x20 }
  - { offset: 0xE020E, size: 0x8, addend: 0x0, symName: '__ZN4core6option15Option$LT$T$GT$4take17heaf91c55fa8a31f9E', symObjAddr: 0x3478, symBinAddr: 0x2EB40, symSize: 0x20 }
  - { offset: 0xE0265, size: 0x8, addend: 0x0, symName: '__ZN4core6option15Option$LT$T$GT$4take17hee65761940df6a13E', symObjAddr: 0x3498, symBinAddr: 0x2EB60, symSize: 0x3C }
  - { offset: 0xE02BC, size: 0x8, addend: 0x0, symName: '__ZN4core6option15Option$LT$T$GT$6as_ref17h024c86dc1bffda06E', symObjAddr: 0x3554, symBinAddr: 0x2EB9C, symSize: 0x48 }
  - { offset: 0xE0313, size: 0x8, addend: 0x0, symName: '__ZN4core6option15Option$LT$T$GT$6as_ref17h168ce9480f653e02E', symObjAddr: 0x359C, symBinAddr: 0x2EBE4, symSize: 0x4C }
  - { offset: 0xE036A, size: 0x8, addend: 0x0, symName: '__ZN4core6option15Option$LT$T$GT$6as_ref17h1c80f410d95face9E', symObjAddr: 0x35E8, symBinAddr: 0x2EC30, symSize: 0x4C }
  - { offset: 0xE03CE, size: 0x8, addend: 0x0, symName: '__ZN4core6option15Option$LT$T$GT$6as_ref17h67e7b3f6d9454fdbE', symObjAddr: 0x3634, symBinAddr: 0x2EC7C, symSize: 0x4C }
  - { offset: 0xE043F, size: 0x8, addend: 0x0, symName: '__ZN4core6option15Option$LT$T$GT$6as_ref17ha2759352f550b3b6E', symObjAddr: 0x36CC, symBinAddr: 0x2ECC8, symSize: 0x50 }
  - { offset: 0xE04B0, size: 0x8, addend: 0x0, symName: '__ZN4core6option15Option$LT$T$GT$6as_ref17hefbf8a38438776e7E', symObjAddr: 0x3768, symBinAddr: 0x2ED18, symSize: 0x4C }
  - { offset: 0xE04FA, size: 0x8, addend: 0x0, symName: '__ZN4core6option15Option$LT$T$GT$6expect17h50101206701ffaadE', symObjAddr: 0x37B4, symBinAddr: 0x2ED64, symSize: 0x5C }
  - { offset: 0xE0535, size: 0x8, addend: 0x0, symName: '__ZN4core6option15Option$LT$T$GT$6expect17h73def2ee6f217d19E', symObjAddr: 0x3810, symBinAddr: 0x2EDC0, symSize: 0x60 }
  - { offset: 0xE0589, size: 0x8, addend: 0x0, symName: '__ZN4core6option15Option$LT$T$GT$6map_or17h016d4105fe01b1c7E', symObjAddr: 0x3870, symBinAddr: 0x2EE20, symSize: 0x9C }
  - { offset: 0xE062B, size: 0x8, addend: 0x0, symName: '__ZN4core6option15Option$LT$T$GT$6map_or17h3221e43094385166E', symObjAddr: 0x39A8, symBinAddr: 0x2EEBC, symSize: 0xA8 }
  - { offset: 0xE06B5, size: 0x8, addend: 0x0, symName: '__ZN4core6option15Option$LT$T$GT$6map_or17h8186e656fe843a80E', symObjAddr: 0x3A50, symBinAddr: 0x2EF64, symSize: 0x9C }
  - { offset: 0xE0750, size: 0x8, addend: 0x0, symName: '__ZN4core6option15Option$LT$T$GT$7is_none17h511cc8c6003006d4E', symObjAddr: 0x3C34, symBinAddr: 0x2F000, symSize: 0x28 }
  - { offset: 0xE07B6, size: 0x8, addend: 0x0, symName: '__ZN4core6option15Option$LT$T$GT$7is_none17ha1a1c410fa05a199E', symObjAddr: 0x3C5C, symBinAddr: 0x2F028, symSize: 0x28 }
  - { offset: 0xE0800, size: 0x8, addend: 0x0, symName: '__ZN4core6option15Option$LT$T$GT$7is_some17h439543b2a1bb3938E', symObjAddr: 0x3CAC, symBinAddr: 0x2F050, symSize: 0x28 }
  - { offset: 0xE082C, size: 0x8, addend: 0x0, symName: '__ZN4core6option15Option$LT$T$GT$7is_some17h50167bfaea8316bbE', symObjAddr: 0x3CD4, symBinAddr: 0x2F078, symSize: 0x28 }
  - { offset: 0xE0865, size: 0x8, addend: 0x0, symName: '__ZN4core6option15Option$LT$T$GT$7is_some17h729153007a3440d4E', symObjAddr: 0x3CFC, symBinAddr: 0x2F0A0, symSize: 0x20 }
  - { offset: 0xE089E, size: 0x8, addend: 0x0, symName: '__ZN4core6option15Option$LT$T$GT$7is_some17h931ee099078c2fd8E', symObjAddr: 0x3D1C, symBinAddr: 0x2F0C0, symSize: 0x28 }
  - { offset: 0xE08CA, size: 0x8, addend: 0x0, symName: '__ZN4core6option15Option$LT$T$GT$7is_some17ha3b28a2cef154dd3E', symObjAddr: 0x3D44, symBinAddr: 0x2F0E8, symSize: 0x24 }
  - { offset: 0xE08F6, size: 0x8, addend: 0x0, symName: '__ZN4core6option15Option$LT$T$GT$7is_some17hc2e63c82736b7274E', symObjAddr: 0x3D68, symBinAddr: 0x2F10C, symSize: 0x2C }
  - { offset: 0xE0922, size: 0x8, addend: 0x0, symName: '__ZN4core6option15Option$LT$T$GT$7is_some17hcdf28ab397b9f3e6E', symObjAddr: 0x3D94, symBinAddr: 0x2F138, symSize: 0x28 }
  - { offset: 0xE094E, size: 0x8, addend: 0x0, symName: '__ZN4core6option15Option$LT$T$GT$7is_some17hda73e6fd12d8b1a7E', symObjAddr: 0x3DBC, symBinAddr: 0x2F160, symSize: 0x28 }
  - { offset: 0xE0A27, size: 0x8, addend: 0x0, symName: '__ZN4core6option15Option$LT$T$GT$8as_deref17h2c5a67525a9bfaa8E', symObjAddr: 0x3EE4, symBinAddr: 0x2F188, symSize: 0x6C }
  - { offset: 0xE0B8A, size: 0x8, addend: 0x0, symName: '__ZN4core6option15Option$LT$T$GT$8as_deref17h642a5452db968b3cE', symObjAddr: 0x4028, symBinAddr: 0x2F1F4, symSize: 0x74 }
  - { offset: 0xE0C33, size: 0x8, addend: 0x0, symName: '__ZN4core6option15Option$LT$T$GT$9unwrap_or17h66ab2e31d8b4d3ebE', symObjAddr: 0x4128, symBinAddr: 0x2F268, symSize: 0x68 }
  - { offset: 0xE0C6E, size: 0x8, addend: 0x0, symName: '__ZN4core6option15Option$LT$T$GT$9unwrap_or17h711bc28a6db86c93E', symObjAddr: 0x4190, symBinAddr: 0x2F2D0, symSize: 0x48 }
  - { offset: 0xE0CA9, size: 0x8, addend: 0x0, symName: '__ZN4core6option47Option$LT$core..result..Result$LT$T$C$E$GT$$GT$9transpose17h4a44298ae0759e33E', symObjAddr: 0x4270, symBinAddr: 0x2F318, symSize: 0xD0 }
  - { offset: 0xE0D1C, size: 0x8, addend: 0x0, symName: __ZN4pyo35types4dict13borrowed_iter16BorrowedDictIter3new17hcbac323913372480E, symObjAddr: 0x4964, symBinAddr: 0x2F694, symSize: 0x48 }
  - { offset: 0xE0F50, size: 0x8, addend: 0x0, symName: '__ZN96_$LT$core..option..Option$LT$T$GT$$u20$as$u20$parking_lot..util..UncheckedOptionExt$LT$T$GT$$GT$16unchecked_unwrap17h4d518af369a8669cE', symObjAddr: 0x6A78, symBinAddr: 0x2FB0C, symSize: 0x2C }
  - { offset: 0xE0F81, size: 0x8, addend: 0x0, symName: '__ZN96_$LT$core..option..Option$LT$T$GT$$u20$as$u20$parking_lot..util..UncheckedOptionExt$LT$T$GT$$GT$16unchecked_unwrap17hfeacd7d93c137c7aE', symObjAddr: 0x6AA4, symBinAddr: 0x2FB38, symSize: 0x2C }
  - { offset: 0xE11C8, size: 0x8, addend: 0x0, symName: '__ZN4pyo35impl_16extract_argument19FunctionDescription37missing_required_positional_arguments28_$u7b$$u7b$closure$u7d$$u7d$17h2c5212a15a034b67E', symObjAddr: 0x2ECC, symBinAddr: 0x312D8, symSize: 0x78 }
  - { offset: 0xE1238, size: 0x8, addend: 0x0, symName: '__ZN4pyo35impl_16extract_argument19FunctionDescription34missing_required_keyword_arguments28_$u7b$$u7b$closure$u7d$$u7d$17hc3876834947c91a1E', symObjAddr: 0x2D00, symBinAddr: 0x31254, symSize: 0x84 }
  - { offset: 0xE13E6, size: 0x8, addend: 0x0, symName: __ZN4pyo35impl_16extract_argument19push_parameter_list17hbfc9f357d9964366E, symObjAddr: 0x3050, symBinAddr: 0x3145C, symSize: 0x16C }
  - { offset: 0xE1472, size: 0x8, addend: 0x0, symName: __ZN4pyo35impl_16extract_argument25argument_extraction_error17h476842ebd017f00bE, symObjAddr: 0x31BC, symBinAddr: 0x8A558, symSize: 0x264 }
  - { offset: 0xE16AA, size: 0x8, addend: 0x0, symName: '__ZN57_$LT$T$u20$as$u20$pyo3..conversion..FromPyObjectBound$GT$20from_py_object_bound17h18a43afe7bbdb955E', symObjAddr: 0x3E88, symBinAddr: 0x31678, symSize: 0x34 }
  - { offset: 0xE3991, size: 0x8, addend: 0x0, symName: __ZN4core3cmp9PartialEq2ne17habdc5dace571ecb4E, symObjAddr: 0xF94, symBinAddr: 0x305CC, symSize: 0x30 }
  - { offset: 0xE3D6D, size: 0x8, addend: 0x0, symName: '__ZN4core3ops8function5impls79_$LT$impl$u20$core..ops..function..FnMut$LT$A$GT$$u20$for$u20$$RF$mut$u20$F$GT$8call_mut17h6fd5632f54fb9bbdE', symObjAddr: 0xFC4, symBinAddr: 0x305FC, symSize: 0x38 }
  - { offset: 0xE3DBC, size: 0x8, addend: 0x0, symName: '__ZN4core3ops8function5impls79_$LT$impl$u20$core..ops..function..FnMut$LT$A$GT$$u20$for$u20$$RF$mut$u20$F$GT$8call_mut17h8cb335872c64ed01E', symObjAddr: 0xFFC, symBinAddr: 0x30634, symSize: 0x38 }
  - { offset: 0xE3E23, size: 0x8, addend: 0x0, symName: '__ZN100_$LT$core..array..iter..iter_inner..PolymorphicIter$LT$DATA$GT$$u20$as$u20$core..ops..drop..Drop$GT$4drop17ha3275e9868e65d0fE', symObjAddr: 0x30, symBinAddr: 0x2FB64, symSize: 0x30 }
  - { offset: 0xE3F5D, size: 0x8, addend: 0x0, symName: '__ZN102_$LT$core..iter..adapters..zip..Zip$LT$A$C$B$GT$$u20$as$u20$core..iter..traits..iterator..Iterator$GT$4next17h4536cb18d52878a5E', symObjAddr: 0xAC, symBinAddr: 0x2FB94, symSize: 0x24 }
  - { offset: 0xE3F9B, size: 0x8, addend: 0x0, symName: '__ZN102_$LT$core..iter..adapters..zip..Zip$LT$A$C$B$GT$$u20$as$u20$core..iter..traits..iterator..Iterator$GT$4next17h8d3428a988340f4fE', symObjAddr: 0xD0, symBinAddr: 0x2FBB8, symSize: 0x24 }
  - { offset: 0xE3FD9, size: 0x8, addend: 0x0, symName: '__ZN102_$LT$core..iter..adapters..zip..Zip$LT$A$C$B$GT$$u20$as$u20$core..iter..traits..iterator..Iterator$GT$9size_hint17hfbe717d27649f821E', symObjAddr: 0x118, symBinAddr: 0x2FBDC, symSize: 0x24 }
  - { offset: 0xE4017, size: 0x8, addend: 0x0, symName: '__ZN102_$LT$core..iter..adapters..zip..Zip$LT$A$C$B$GT$$u20$as$u20$core..iter..traits..iterator..Iterator$GT$9size_hint17hfe13666da23d23edE', symObjAddr: 0x13C, symBinAddr: 0x2FC00, symSize: 0x24 }
  - { offset: 0xE405B, size: 0x8, addend: 0x0, symName: '__ZN111_$LT$core..iter..adapters..zip..Zip$LT$A$C$B$GT$$u20$as$u20$core..iter..adapters..zip..ZipImpl$LT$A$C$B$GT$$GT$3new17h02c0c112d7736d2dE', symObjAddr: 0x5C0, symBinAddr: 0x30008, symSize: 0x3C }
  - { offset: 0xE40A7, size: 0x8, addend: 0x0, symName: '__ZN111_$LT$core..iter..adapters..zip..Zip$LT$A$C$B$GT$$u20$as$u20$core..iter..adapters..zip..ZipImpl$LT$A$C$B$GT$$GT$4next17he67a71326593679aE', symObjAddr: 0x9D8, symBinAddr: 0x301B0, symSize: 0xE0 }
  - { offset: 0xE4208, size: 0x8, addend: 0x0, symName: '__ZN111_$LT$core..iter..adapters..zip..Zip$LT$A$C$B$GT$$u20$as$u20$core..iter..adapters..zip..ZipImpl$LT$A$C$B$GT$$GT$9size_hint17h0e88b14df5932cffE', symObjAddr: 0xAB8, symBinAddr: 0x30290, symSize: 0x12C }
  - { offset: 0xE435B, size: 0x8, addend: 0x0, symName: '__ZN111_$LT$core..iter..adapters..zip..Zip$LT$A$C$B$GT$$u20$as$u20$core..iter..adapters..zip..ZipImpl$LT$A$C$B$GT$$GT$3new17hf1615f7cdbb612c0E', symObjAddr: 0x798, symBinAddr: 0x30044, symSize: 0xBC }
  - { offset: 0xE43EE, size: 0x8, addend: 0x0, symName: '__ZN111_$LT$core..iter..adapters..zip..Zip$LT$A$C$B$GT$$u20$as$u20$core..iter..adapters..zip..ZipImpl$LT$A$C$B$GT$$GT$4next17hc5b768c442636671E', symObjAddr: 0x928, symBinAddr: 0x30100, symSize: 0xB0 }
  - { offset: 0xE4444, size: 0x8, addend: 0x0, symName: '__ZN111_$LT$core..iter..adapters..zip..Zip$LT$A$C$B$GT$$u20$as$u20$core..iter..adapters..zip..ZipImpl$LT$A$C$B$GT$$GT$9size_hint17hdb2543c12ab7e4d2E', symObjAddr: 0xC18, symBinAddr: 0x303BC, symSize: 0x34 }
  - { offset: 0xE4650, size: 0x8, addend: 0x0, symName: __ZN4core4iter6traits8iterator8Iterator10filter_map17h5917a55f9c0219e4E, symObjAddr: 0x1490, symBinAddr: 0x30AC8, symSize: 0x30 }
  - { offset: 0xE46BE, size: 0x8, addend: 0x0, symName: __ZN4core4iter6traits8iterator8Iterator10filter_map17h854cd66070362a63E, symObjAddr: 0x14C0, symBinAddr: 0x30AF8, symSize: 0x30 }
  - { offset: 0xE472C, size: 0x8, addend: 0x0, symName: __ZN4core4iter6traits8iterator8Iterator8find_map17h2069b623cc08e996E, symObjAddr: 0x15AC, symBinAddr: 0x30B28, symSize: 0x8C }
  - { offset: 0xE47B4, size: 0x8, addend: 0x0, symName: __ZN4core4iter6traits8iterator8Iterator8find_map17h6e776d04322f5bf0E, symObjAddr: 0x1638, symBinAddr: 0x30BB4, symSize: 0x8C }
  - { offset: 0xE483C, size: 0x8, addend: 0x0, symName: __ZN4core4iter6traits8iterator8Iterator8try_fold17h513f8878a7687928E, symObjAddr: 0x16C4, symBinAddr: 0x30C40, symSize: 0x190 }
  - { offset: 0xE48F2, size: 0x8, addend: 0x0, symName: __ZN4core4iter6traits8iterator8Iterator8try_fold17h923506e9db124cb8E, symObjAddr: 0x1854, symBinAddr: 0x30DD0, symSize: 0x190 }
  - { offset: 0xE5254, size: 0x8, addend: 0x0, symName: '__ZN4core5slice29_$LT$impl$u20$$u5b$T$u5d$$GT$4iter17h545184d2fea44c66E', symObjAddr: 0x1D94, symBinAddr: 0x310D0, symSize: 0x28 }
  - { offset: 0xE528B, size: 0x8, addend: 0x0, symName: '__ZN4core5slice29_$LT$impl$u20$$u5b$T$u5d$$GT$8contains17hd1bbbc42dc3b9e8bE', symObjAddr: 0x1DBC, symBinAddr: 0x310F8, symSize: 0x48 }
  - { offset: 0xE5303, size: 0x8, addend: 0x0, symName: '__ZN53_$LT$T$u20$as$u20$core..slice..cmp..SliceContains$GT$14slice_contains17h55d57b70d775979eE', symObjAddr: 0x3C98, symBinAddr: 0x315C8, symSize: 0x78 }
  - { offset: 0xE5454, size: 0x8, addend: 0x0, symName: '__ZN53_$LT$T$u20$as$u20$core..slice..cmp..SliceContains$GT$14slice_contains28_$u7b$$u7b$closure$u7d$$u7d$17h5661532dc38b6d82E', symObjAddr: 0x3D10, symBinAddr: 0x31640, symSize: 0x38 }
  - { offset: 0xE54A4, size: 0x8, addend: 0x0, symName: '__ZN73_$LT$$u5b$A$u5d$$u20$as$u20$core..slice..cmp..SlicePartialEq$LT$B$GT$$GT$5equal17h5d109567968d93ceE', symObjAddr: 0x4C18, symBinAddr: 0x3193C, symSize: 0x88 }
  - { offset: 0xE56D4, size: 0x8, addend: 0x0, symName: __ZN4core5slice6memchr6memchr17h60249d3010de8c07E, symObjAddr: 0x1EA0, symBinAddr: 0x31140, symSize: 0x114 }
  - { offset: 0xE5798, size: 0x8, addend: 0x0, symName: __ZN4core3str11validations15next_code_point17hda57ba22baaa168bE, symObjAddr: 0x1034, symBinAddr: 0x3066C, symSize: 0x224 }
  - { offset: 0xE5A4E, size: 0x8, addend: 0x0, symName: __ZN4core3str11validations23next_code_point_reverse17h7489cbb85a6086ccE, symObjAddr: 0x1258, symBinAddr: 0x30890, symSize: 0x238 }
  - { offset: 0xE64F6, size: 0x8, addend: 0x0, symName: __ZN8pyo3_ffi7objimpl12PyType_IS_GC17h4ad8005c04a5c312E, symObjAddr: 0x6E20, symBinAddr: 0x31C04, symSize: 0x2C }
  - { offset: 0xE6AAE, size: 0x8, addend: 0x0, symName: '__ZN103_$LT$alloc..vec..into_iter..IntoIter$LT$T$C$A$GT$$u20$as$u20$core..iter..traits..iterator..Iterator$GT$4next17h155baf46fde885d1E', symObjAddr: 0x160, symBinAddr: 0x2FC24, symSize: 0x94 }
  - { offset: 0xE6C08, size: 0x8, addend: 0x0, symName: '__ZN103_$LT$alloc..vec..into_iter..IntoIter$LT$T$C$A$GT$$u20$as$u20$core..iter..traits..iterator..Iterator$GT$4next17ha1911bb5cda7be2cE', symObjAddr: 0x1F4, symBinAddr: 0x2FCB8, symSize: 0xAC }
  - { offset: 0xE6D66, size: 0x8, addend: 0x0, symName: '__ZN103_$LT$alloc..vec..into_iter..IntoIter$LT$T$C$A$GT$$u20$as$u20$core..iter..traits..iterator..Iterator$GT$4next17hfe922dc5c727a74dE', symObjAddr: 0x2A0, symBinAddr: 0x2FD64, symSize: 0x88 }
  - { offset: 0xE6EC0, size: 0x8, addend: 0x0, symName: '__ZN103_$LT$alloc..vec..into_iter..IntoIter$LT$T$C$A$GT$$u20$as$u20$core..iter..traits..iterator..Iterator$GT$9size_hint17h76e6317d2ee5c7c6E', symObjAddr: 0x328, symBinAddr: 0x2FDEC, symSize: 0xB4 }
  - { offset: 0xE6FD9, size: 0x8, addend: 0x0, symName: '__ZN103_$LT$alloc..vec..into_iter..IntoIter$LT$T$C$A$GT$$u20$as$u20$core..iter..traits..iterator..Iterator$GT$9size_hint17h98b2527367da91d3E', symObjAddr: 0x3DC, symBinAddr: 0x2FEA0, symSize: 0xB4 }
  - { offset: 0xE70F2, size: 0x8, addend: 0x0, symName: '__ZN103_$LT$alloc..vec..into_iter..IntoIter$LT$T$C$A$GT$$u20$as$u20$core..iter..traits..iterator..Iterator$GT$9size_hint17he4dcdc5e788c694bE', symObjAddr: 0x490, symBinAddr: 0x2FF54, symSize: 0xB4 }
  - { offset: 0xE721B, size: 0x8, addend: 0x0, symName: '__ZN157_$LT$$LT$alloc..vec..into_iter..IntoIter$LT$T$C$A$GT$$u20$as$u20$core..ops..drop..Drop$GT$..drop..DropGuard$LT$T$C$A$GT$$u20$as$u20$core..ops..drop..Drop$GT$4drop17h634dfe0960a63beaE', symObjAddr: 0xC90, symBinAddr: 0x30414, symSize: 0x6C }
  - { offset: 0xE735E, size: 0x8, addend: 0x0, symName: '__ZN157_$LT$$LT$alloc..vec..into_iter..IntoIter$LT$T$C$A$GT$$u20$as$u20$core..ops..drop..Drop$GT$..drop..DropGuard$LT$T$C$A$GT$$u20$as$u20$core..ops..drop..Drop$GT$4drop17hab12fad4a1186b3fE', symObjAddr: 0xCFC, symBinAddr: 0x30480, symSize: 0x6C }
  - { offset: 0xE74A1, size: 0x8, addend: 0x0, symName: '__ZN157_$LT$$LT$alloc..vec..into_iter..IntoIter$LT$T$C$A$GT$$u20$as$u20$core..ops..drop..Drop$GT$..drop..DropGuard$LT$T$C$A$GT$$u20$as$u20$core..ops..drop..Drop$GT$4drop17hdd5fbba5771a48f7E', symObjAddr: 0xD68, symBinAddr: 0x304EC, symSize: 0x6C }
  - { offset: 0xE765B, size: 0x8, addend: 0x0, symName: '__ZN86_$LT$alloc..vec..into_iter..IntoIter$LT$T$C$A$GT$$u20$as$u20$core..ops..drop..Drop$GT$4drop17h104d92fdcd9385deE', symObjAddr: 0x6CA4, symBinAddr: 0x31AB0, symSize: 0x78 }
  - { offset: 0xE76AD, size: 0x8, addend: 0x0, symName: '__ZN86_$LT$alloc..vec..into_iter..IntoIter$LT$T$C$A$GT$$u20$as$u20$core..ops..drop..Drop$GT$4drop17h4b26f3e985f2321dE', symObjAddr: 0x6D1C, symBinAddr: 0x31B28, symSize: 0x78 }
  - { offset: 0xE76FF, size: 0x8, addend: 0x0, symName: '__ZN86_$LT$alloc..vec..into_iter..IntoIter$LT$T$C$A$GT$$u20$as$u20$core..ops..drop..Drop$GT$4drop17he83f97a1ed8177b3E', symObjAddr: 0x6D94, symBinAddr: 0x31BA0, symSize: 0x64 }
  - { offset: 0xE7F1B, size: 0x8, addend: 0x0, symName: __ZN11parking_lot4util11unreachable17hc7ef9c3f19347634E, symObjAddr: 0xC6C, symBinAddr: 0x303F0, symSize: 0x24 }
  - { offset: 0xE7F3F, size: 0x8, addend: 0x0, symName: '__ZN78_$LT$parking_lot..raw_mutex..RawMutex$u20$as$u20$lock_api..mutex..RawMutex$GT$4lock17h4a26f8454050dc60E', symObjAddr: 0x5668, symBinAddr: 0x319C4, symSize: 0x78 }
  - { offset: 0xE7F67, size: 0x8, addend: 0x0, symName: '__ZN78_$LT$parking_lot..raw_mutex..RawMutex$u20$as$u20$lock_api..mutex..RawMutex$GT$6unlock17h8ea624b23b7b43f8E', symObjAddr: 0x56E0, symBinAddr: 0x31A3C, symSize: 0x74 }
  - { offset: 0xE82C4, size: 0x8, addend: 0x0, symName: __ZN15portable_atomic3imp11core_atomic9AtomicI6416compare_exchange17h111433652a61014cE, symObjAddr: 0xDD4, symBinAddr: 0x30558, symSize: 0x74 }
  - { offset: 0xE8635, size: 0x8, addend: 0x0, symName: '__ZN4core5array4iter10iter_inner78PolymorphicIter$LT$$u5b$core..mem..maybe_uninit..MaybeUninit$LT$T$GT$$u5d$$GT$4next17h6bad3c5402f2a5f9E', symObjAddr: 0x1A10, symBinAddr: 0x30F60, symSize: 0x170 }
  - { offset: 0xE8906, size: 0x8, addend: 0x0, symName: __ZN4pyo35impl_16extract_argument19FunctionDescription26missing_required_arguments17hbb0e082c44dd910cE, symObjAddr: 0x2304, symBinAddr: 0x89A14, symSize: 0x1F8 }
  - { offset: 0xE89CB, size: 0x8, addend: 0x0, symName: __ZN4pyo35impl_16extract_argument19FunctionDescription27unexpected_keyword_argument17h5404718b3cd35451E, symObjAddr: 0x24FC, symBinAddr: 0x89C0C, symSize: 0x124 }
  - { offset: 0xE8A59, size: 0x8, addend: 0x0, symName: __ZN4pyo35impl_16extract_argument19FunctionDescription28multiple_values_for_argument17ha8e8425e85b725e3E, symObjAddr: 0x2620, symBinAddr: 0x89D30, symSize: 0x110 }
  - { offset: 0xE8ADF, size: 0x8, addend: 0x0, symName: __ZN4pyo35impl_16extract_argument19FunctionDescription29too_many_positional_arguments17h2f3ee7d523eeadcfE, symObjAddr: 0x2730, symBinAddr: 0x89E40, symSize: 0x304 }
  - { offset: 0xE8BF2, size: 0x8, addend: 0x0, symName: __ZN4pyo35impl_16extract_argument19FunctionDescription33positional_only_keyword_arguments17h47665cdd9d91bc7cE, symObjAddr: 0x2A34, symBinAddr: 0x8A144, symSize: 0x148 }
  - { offset: 0xE8CB5, size: 0x8, addend: 0x0, symName: __ZN4pyo35impl_16extract_argument19FunctionDescription34missing_required_keyword_arguments17hf0b202ab432dcfc0E, symObjAddr: 0x2B7C, symBinAddr: 0x8A28C, symSize: 0x184 }
  - { offset: 0xE8D4C, size: 0x8, addend: 0x0, symName: __ZN4pyo35impl_16extract_argument19FunctionDescription37missing_required_positional_arguments17h7432b15812ed264eE, symObjAddr: 0x2D84, symBinAddr: 0x8A410, symSize: 0x148 }
  - { offset: 0xE8D95, size: 0x8, addend: 0x0, symName: __ZN4pyo35impl_16extract_argument19FunctionDescription9full_name17h4541025be6069c65E, symObjAddr: 0x2F44, symBinAddr: 0x31350, symSize: 0x10C }
  - { offset: 0xE8EB3, size: 0x8, addend: 0x0, symName: '__ZN66_$LT$std..thread..id..ThreadId$u20$as$u20$core..cmp..PartialEq$GT$2eq17h1c2919ea1ec9218bE', symObjAddr: 0x4810, symBinAddr: 0x31910, symSize: 0x2C }
  - { offset: 0xE90CD, size: 0x8, addend: 0x0, symName: '__ZN5alloc3vec9into_iter21IntoIter$LT$T$C$A$GT$16as_raw_mut_slice17h11a5151f6592647eE', symObjAddr: 0x4160, symBinAddr: 0x316AC, symSize: 0xCC }
  - { offset: 0xE921D, size: 0x8, addend: 0x0, symName: '__ZN5alloc3vec9into_iter21IntoIter$LT$T$C$A$GT$16as_raw_mut_slice17h9b121378644039a9E', symObjAddr: 0x422C, symBinAddr: 0x31778, symSize: 0xCC }
  - { offset: 0xE936D, size: 0x8, addend: 0x0, symName: '__ZN5alloc3vec9into_iter21IntoIter$LT$T$C$A$GT$16as_raw_mut_slice17ha5c0631933add50aE', symObjAddr: 0x42F8, symBinAddr: 0x31844, symSize: 0xCC }
  - { offset: 0xE9719, size: 0x8, addend: 0x0, symName: '__ZN92_$LT$hashbrown..map..Iter$LT$K$C$V$GT$$u20$as$u20$core..iter..traits..iterator..Iterator$GT$4next17hd3ac85b3f6bc0e5dE', symObjAddr: 0x6E60, symBinAddr: 0x31C30, symSize: 0xF0 }
  - { offset: 0xE99A4, size: 0x8, addend: 0x0, symName: '__ZN9hashbrown3map11make_hasher28_$u7b$$u7b$closure$u7d$$u7d$17he782e96ffb170fa9E', symObjAddr: 0x7078, symBinAddr: 0x31E48, symSize: 0x3C }
  - { offset: 0xE9CCE, size: 0x8, addend: 0x0, symName: '__ZN9hashbrown11rustc_entry62_$LT$impl$u20$hashbrown..map..HashMap$LT$K$C$V$C$S$C$A$GT$$GT$11rustc_entry17hef5131bf34f3a610E', symObjAddr: 0x6F50, symBinAddr: 0x31D20, symSize: 0x128 }
  - { offset: 0xE9EEB, size: 0x8, addend: 0x0, symName: '__ZN9hashbrown3map28HashMap$LT$K$C$V$C$S$C$A$GT$4iter17h8efe47ff726e9450E', symObjAddr: 0x70B4, symBinAddr: 0x31E84, symSize: 0xA8 }
  - { offset: 0xEA558, size: 0x8, addend: 0x0, symName: '__ZN45_$LT$T$u20$as$u20$alloc..string..ToString$GT$9to_string17hdd6518c39bc913deE', symObjAddr: 0xF64, symBinAddr: 0x322D4, symSize: 0x24 }
  - { offset: 0xEA5B3, size: 0x8, addend: 0x0, symName: '__ZN76_$LT$alloc..string..String$u20$as$u20$core..convert..From$LT$$RF$str$GT$$GT$4from17h93fe106ac1146bb2E', symObjAddr: 0x9D70, symBinAddr: 0x36180, symSize: 0x50 }
  - { offset: 0xEA6A0, size: 0x8, addend: 0x0, symName: '__ZN55_$LT$$RF$str$u20$as$u20$alloc..string..SpecToString$GT$14spec_to_string17h1ec81c6434d93309E', symObjAddr: 0x8A00, symBinAddr: 0x35AD8, symSize: 0x5C }
  - { offset: 0xEA7C9, size: 0x8, addend: 0x0, symName: '__ZN58_$LT$alloc..string..String$u20$as$u20$core..fmt..Write$GT$10write_char17h8ed99836a77b67dbE', symObjAddr: 0x8B2C, symBinAddr: 0x35BD0, symSize: 0x30 }
  - { offset: 0xEA806, size: 0x8, addend: 0x0, symName: '__ZN58_$LT$alloc..string..String$u20$as$u20$core..fmt..Write$GT$9write_str17h0ba8a96616759c1bE', symObjAddr: 0x8B5C, symBinAddr: 0x35C00, symSize: 0x38 }
  - { offset: 0xEA894, size: 0x8, addend: 0x0, symName: '__ZN65_$LT$alloc..string..String$u20$as$u20$core..ops..deref..Deref$GT$5deref17h5834ba677bdaedeaE', symObjAddr: 0x8FD8, symBinAddr: 0x35E84, symSize: 0x20 }
  - { offset: 0xEA953, size: 0x8, addend: 0x0, symName: '__ZN60_$LT$alloc..string..String$u20$as$u20$core..fmt..Display$GT$3fmt17hfab1f340d0e52236E', symObjAddr: 0x8EA0, symBinAddr: 0x35E48, symSize: 0x3C }
  - { offset: 0xEB5AF, size: 0x8, addend: 0x0, symName: '__ZN66_$LT$T$u20$as$u20$alloc..ffi..c_str..CString..new..SpecNewImpl$GT$13spec_new_impl17ha63a07e253e35544E', symObjAddr: 0x8FF8, symBinAddr: 0x35EA4, symSize: 0x12C }
  - { offset: 0xEB70C, size: 0x8, addend: 0x0, symName: '__ZN5alloc3str83_$LT$impl$u20$core..borrow..Borrow$LT$str$GT$$u20$for$u20$alloc..string..String$GT$6borrow17hfcc8aeda447736a1E', symObjAddr: 0x8B94, symBinAddr: 0x35C38, symSize: 0x20 }
  - { offset: 0xEBA96, size: 0x8, addend: 0x0, symName: '__ZN4core3ptr101drop_in_place$LT$core..option..Option$LT$pyo3..pyclass..create_type_object..PyClassTypeObject$GT$$GT$17hb456174fa980f777E', symObjAddr: 0x2458, symBinAddr: 0x32AA8, symSize: 0x48 }
  - { offset: 0xEBAC5, size: 0x8, addend: 0x0, symName: '__ZN4core3ptr104drop_in_place$LT$core..option..Option$LT$pyo3..instance..Py$LT$pyo3..types..module..PyModule$GT$$GT$$GT$17ha5222da8e83b6646E', symObjAddr: 0x254C, symBinAddr: 0x32AF0, symSize: 0x44 }
  - { offset: 0xEBAF4, size: 0x8, addend: 0x0, symName: '__ZN4core3ptr104drop_in_place$LT$core..option..Option$LT$pyo3..instance..Py$LT$pyo3..types..string..PyString$GT$$GT$$GT$17hfb84ce23096d4bc7E', symObjAddr: 0x2590, symBinAddr: 0x32B34, symSize: 0x44 }
  - { offset: 0xEBB23, size: 0x8, addend: 0x0, symName: '__ZN4core3ptr105drop_in_place$LT$alloc..raw_vec..RawVec$LT$pyo3..pyclass..create_type_object..GetSetDefDestructor$GT$$GT$17h4b703688ce377304E', symObjAddr: 0x25D4, symBinAddr: 0x32B78, symSize: 0x24 }
  - { offset: 0xEBB52, size: 0x8, addend: 0x0, symName: '__ZN4core3ptr106drop_in_place$LT$alloc..vec..Vec$LT$core..ptr..non_null..NonNull$LT$pyo3_ffi..object..PyObject$GT$$GT$$GT$17h55fa84731392bcc0E', symObjAddr: 0x25F8, symBinAddr: 0x32B9C, symSize: 0x5C }
  - { offset: 0xEBB81, size: 0x8, addend: 0x0, symName: '__ZN4core3ptr106drop_in_place$LT$core..option..Option$LT$pyo3..instance..Py$LT$pyo3..types..typeobject..PyType$GT$$GT$$GT$17hb83bb0cea34fdbb6E', symObjAddr: 0x2654, symBinAddr: 0x32BF8, symSize: 0x44 }
  - { offset: 0xEBBB0, size: 0x8, addend: 0x0, symName: '__ZN4core3ptr108drop_in_place$LT$core..option..Option$LT$pyo3..instance..Py$LT$pyo3..exceptions..PyBaseException$GT$$GT$$GT$17hf45fb047a748d4b8E', symObjAddr: 0x26FC, symBinAddr: 0x32C3C, symSize: 0x44 }
  - { offset: 0xEBBDF, size: 0x8, addend: 0x0, symName: '__ZN4core3ptr111drop_in_place$LT$core..cell..UnsafeCell$LT$core..option..Option$LT$pyo3..err..err_state..PyErrState$GT$$GT$$GT$17hdec48352ec1d1741E', symObjAddr: 0x27A8, symBinAddr: 0x32C80, symSize: 0x24 }
  - { offset: 0xEBC0E, size: 0x8, addend: 0x0, symName: '__ZN4core3ptr112drop_in_place$LT$core..result..Result$LT$$LP$$RP$$C$pyo3..pyclass..create_type_object..PyClassTypeObject$GT$$GT$17hf4f345d50982cbe1E', symObjAddr: 0x27CC, symBinAddr: 0x32CA4, symSize: 0x48 }
  - { offset: 0xEBC3D, size: 0x8, addend: 0x0, symName: '__ZN4core3ptr113drop_in_place$LT$alloc..raw_vec..RawVec$LT$core..ptr..non_null..NonNull$LT$pyo3_ffi..object..PyObject$GT$$GT$$GT$17hcff0a74ee3d3a8efE', symObjAddr: 0x2814, symBinAddr: 0x32CEC, symSize: 0x24 }
  - { offset: 0xEBC6C, size: 0x8, addend: 0x0, symName: '__ZN4core3ptr113drop_in_place$LT$core..option..Option$LT$pyo3..instance..Bound$LT$pyo3..types..traceback..PyTraceback$GT$$GT$$GT$17h302695dfadf63c17E', symObjAddr: 0x2838, symBinAddr: 0x32D10, symSize: 0x44 }
  - { offset: 0xEBC9B, size: 0x8, addend: 0x0, symName: '__ZN4core3ptr114drop_in_place$LT$core..pin..Pin$LT$alloc..sync..Arc$LT$std..thread..thread..Inner$C$std..alloc..System$GT$$GT$$GT$17h187862887b42fd6eE', symObjAddr: 0x287C, symBinAddr: 0x32D54, symSize: 0x24 }
  - { offset: 0xEBCCA, size: 0x8, addend: 0x0, symName: '__ZN4core3ptr114drop_in_place$LT$pyo3..impl_..pyclass..lazy_type_object..LazyTypeObjectInner..ensure_init..InitializationGuard$GT$17he6c8168ff7fe0a95E', symObjAddr: 0x28A0, symBinAddr: 0x32D78, symSize: 0x24 }
  - { offset: 0xEBCF9, size: 0x8, addend: 0x0, symName: '__ZN4core3ptr115drop_in_place$LT$core..array..iter..IntoIter$LT$pyo3..instance..Py$LT$pyo3..types..any..PyAny$GT$$C$1_usize$GT$$GT$17h355658c5b43380b1E', symObjAddr: 0x28C4, symBinAddr: 0x32D9C, symSize: 0x24 }
  - { offset: 0xEBD28, size: 0x8, addend: 0x0, symName: '__ZN4core3ptr115drop_in_place$LT$core..result..Result$LT$$LP$$RP$$C$pyo3..instance..Py$LT$pyo3..types..module..PyModule$GT$$GT$$GT$17hc493eec52c6863f2E', symObjAddr: 0x290C, symBinAddr: 0x32DC0, symSize: 0x44 }
  - { offset: 0xEBD57, size: 0x8, addend: 0x0, symName: '__ZN4core3ptr115drop_in_place$LT$core..result..Result$LT$$LP$$RP$$C$pyo3..instance..Py$LT$pyo3..types..string..PyString$GT$$GT$$GT$17hd764295594b4ac87E', symObjAddr: 0x2950, symBinAddr: 0x32E04, symSize: 0x44 }
  - { offset: 0xEBD86, size: 0x8, addend: 0x0, symName: '__ZN4core3ptr117drop_in_place$LT$core..result..Result$LT$$LP$$RP$$C$pyo3..instance..Py$LT$pyo3..types..typeobject..PyType$GT$$GT$$GT$17hdbbed83a5fe7aeecE', symObjAddr: 0x2994, symBinAddr: 0x32E48, symSize: 0x44 }
  - { offset: 0xEBDB5, size: 0x8, addend: 0x0, symName: '__ZN4core3ptr121drop_in_place$LT$core..option..Option$LT$core..result..Result$LT$core..convert..Infallible$C$pyo3..err..PyErr$GT$$GT$$GT$17h0019b07e2e4a3e69E', symObjAddr: 0x2A28, symBinAddr: 0x32E8C, symSize: 0x40 }
  - { offset: 0xEBDE4, size: 0x8, addend: 0x0, symName: '__ZN4core3ptr122drop_in_place$LT$alloc..vec..into_iter..IntoIter$LT$core..ptr..non_null..NonNull$LT$pyo3_ffi..object..PyObject$GT$$GT$$GT$17h47709370fc89c983E', symObjAddr: 0x2A68, symBinAddr: 0x32ECC, symSize: 0x24 }
  - { offset: 0xEBE13, size: 0x8, addend: 0x0, symName: '__ZN4core3ptr122drop_in_place$LT$hashbrown..raw..RawTable$LT$$LP$$RF$str$C$pyo3..pyclass..create_type_object..GetSetDefBuilder$RP$$GT$$GT$17hf82db74e72efe49fE', symObjAddr: 0x2A8C, symBinAddr: 0x32EF0, symSize: 0x24 }
  - { offset: 0xEBE42, size: 0x8, addend: 0x0, symName: '__ZN4core3ptr122drop_in_place$LT$pyo3..impl_..pyclass..lazy_type_object..LazyTypeObjectInner..ensure_init..$u7b$$u7b$closure$u7d$$u7d$$GT$17hc14fbc5639f27e58E', symObjAddr: 0x2AB0, symBinAddr: 0x32F14, symSize: 0x60 }
  - { offset: 0xEBE71, size: 0x8, addend: 0x0, symName: '__ZN4core3ptr126drop_in_place$LT$std..collections..hash..map..HashMap$LT$$RF$str$C$pyo3..pyclass..create_type_object..GetSetDefBuilder$GT$$GT$17h9188de2ba62cc4dfE', symObjAddr: 0x2B60, symBinAddr: 0x32F74, symSize: 0x24 }
  - { offset: 0xEBEA0, size: 0x8, addend: 0x0, symName: '__ZN4core3ptr129drop_in_place$LT$$LP$alloc..borrow..Cow$LT$core..ffi..c_str..CStr$GT$$C$pyo3..instance..Py$LT$pyo3..types..any..PyAny$GT$$RP$$GT$17hb4998d1338133857E', symObjAddr: 0x2BA8, symBinAddr: 0x32F98, symSize: 0x60 }
  - { offset: 0xEBECF, size: 0x8, addend: 0x0, symName: '__ZN4core3ptr129drop_in_place$LT$alloc..vec..Vec$LT$T$C$A$GT$..retain_mut..PanicGuard$LT$std..thread..id..ThreadId$C$alloc..alloc..Global$GT$$GT$17hbb0702dd105b242aE', symObjAddr: 0x2C08, symBinAddr: 0x32FF8, symSize: 0x24 }
  - { offset: 0xEBEFE, size: 0x8, addend: 0x0, symName: '__ZN4core3ptr129drop_in_place$LT$core..cell..Ref$LT$alloc..vec..Vec$LT$core..ptr..non_null..NonNull$LT$pyo3_ffi..object..PyObject$GT$$GT$$GT$$GT$17h636615c09147138cE', symObjAddr: 0x2C2C, symBinAddr: 0x3301C, symSize: 0x24 }
  - { offset: 0xEBF2D, size: 0x8, addend: 0x0, symName: '__ZN4core3ptr132drop_in_place$LT$core..cell..RefMut$LT$alloc..vec..Vec$LT$core..ptr..non_null..NonNull$LT$pyo3_ffi..object..PyObject$GT$$GT$$GT$$GT$17h7985cb5a45a09d81E', symObjAddr: 0x2C74, symBinAddr: 0x33040, symSize: 0x24 }
  - { offset: 0xEBF5C, size: 0x8, addend: 0x0, symName: '__ZN4core3ptr132drop_in_place$LT$pyo3..err..PyErr..new$LT$pyo3..exceptions..PyTypeError$C$alloc..string..String$GT$..$u7b$$u7b$closure$u7d$$u7d$$GT$17h8ef4e9559476b637E', symObjAddr: 0x2C98, symBinAddr: 0x33064, symSize: 0x24 }
  - { offset: 0xEBF8B, size: 0x8, addend: 0x0, symName: '__ZN4core3ptr133drop_in_place$LT$core..cell..RefCell$LT$alloc..vec..Vec$LT$core..ptr..non_null..NonNull$LT$pyo3_ffi..object..PyObject$GT$$GT$$GT$$GT$17h567d67d9a971d8cbE', symObjAddr: 0x2CBC, symBinAddr: 0x33088, symSize: 0x24 }
  - { offset: 0xEBFBA, size: 0x8, addend: 0x0, symName: '__ZN4core3ptr135drop_in_place$LT$pyo3..err..PyErr..new$LT$pyo3..exceptions..PyRuntimeError$C$alloc..string..String$GT$..$u7b$$u7b$closure$u7d$$u7d$$GT$17h7e8506c70c034110E', symObjAddr: 0x2DB8, symBinAddr: 0x330AC, symSize: 0x24 }
  - { offset: 0xEBFE9, size: 0x8, addend: 0x0, symName: '__ZN4core3ptr136drop_in_place$LT$core..cell..UnsafeCell$LT$alloc..vec..Vec$LT$core..ptr..non_null..NonNull$LT$pyo3_ffi..object..PyObject$GT$$GT$$GT$$GT$17h0d4123cd69628e11E', symObjAddr: 0x2E00, symBinAddr: 0x330D0, symSize: 0x24 }
  - { offset: 0xEC018, size: 0x8, addend: 0x0, symName: '__ZN4core3ptr136drop_in_place$LT$core..result..Result$LT$$RF$pyo3..instance..Bound$LT$pyo3..types..float..PyFloat$GT$$C$pyo3..err..DowncastError$GT$$GT$17hee2bb28e25b111b2E', symObjAddr: 0x2E90, symBinAddr: 0x330F4, symSize: 0x48 }
  - { offset: 0xEC047, size: 0x8, addend: 0x0, symName: '__ZN4core3ptr139drop_in_place$LT$$u5b$$LP$alloc..borrow..Cow$LT$core..ffi..c_str..CStr$GT$$C$pyo3..instance..Py$LT$pyo3..types..any..PyAny$GT$$RP$$u5d$$GT$17hf7a420cf3f4f9dcbE', symObjAddr: 0x2F8C, symBinAddr: 0x3313C, symSize: 0xB4 }
  - { offset: 0xEC076, size: 0x8, addend: 0x0, symName: '__ZN4core3ptr139drop_in_place$LT$pyo3..err..PyErr..new$LT$pyo3..exceptions..PyValueError$C$alloc..ffi..c_str..NulError$GT$..$u7b$$u7b$closure$u7d$$u7d$$GT$17he6ed7c09d396bb31E', symObjAddr: 0x3064, symBinAddr: 0x331F0, symSize: 0x24 }
  - { offset: 0xEC0A5, size: 0x8, addend: 0x0, symName: '__ZN4core3ptr141drop_in_place$LT$pyo3..err..PyErr..new$LT$pyo3..panic..PanicException$C$$LP$alloc..string..String$C$$RP$$GT$..$u7b$$u7b$closure$u7d$$u7d$$GT$17hbd02e906158348e8E', symObjAddr: 0x30AC, symBinAddr: 0x33214, symSize: 0x24 }
  - { offset: 0xEC0D4, size: 0x8, addend: 0x0, symName: '__ZN4core3ptr145drop_in_place$LT$pyo3..err..err_state..PyErrState..lazy$LT$pyo3..instance..Py$LT$pyo3..types..any..PyAny$GT$$GT$..$u7b$$u7b$closure$u7d$$u7d$$GT$17hd57584303d5947a2E', symObjAddr: 0x3184, symBinAddr: 0x33238, symSize: 0x60 }
  - { offset: 0xEC103, size: 0x8, addend: 0x0, symName: '__ZN4core3ptr146drop_in_place$LT$hashbrown..map..HashMap$LT$$RF$str$C$pyo3..pyclass..create_type_object..GetSetDefBuilder$C$std..hash..random..RandomState$GT$$GT$17h868ce7c012a32519E', symObjAddr: 0x31E4, symBinAddr: 0x33298, symSize: 0x24 }
  - { offset: 0xEC132, size: 0x8, addend: 0x0, symName: '__ZN4core3ptr146drop_in_place$LT$pyo3..err..PyErr..new$LT$pyo3..exceptions..PyTypeError$C$pyo3..err..PyDowncastErrorArguments$GT$..$u7b$$u7b$closure$u7d$$u7d$$GT$17h873f5a4d781445e8E', symObjAddr: 0x3208, symBinAddr: 0x332BC, symSize: 0x24 }
  - { offset: 0xEC161, size: 0x8, addend: 0x0, symName: '__ZN4core3ptr152drop_in_place$LT$alloc..vec..Vec$LT$$LP$alloc..borrow..Cow$LT$core..ffi..c_str..CStr$GT$$C$pyo3..instance..Py$LT$pyo3..types..any..PyAny$GT$$RP$$GT$$GT$17h4af66520a15de9a0E', symObjAddr: 0x3250, symBinAddr: 0x332E0, symSize: 0x5C }
  - { offset: 0xEC190, size: 0x8, addend: 0x0, symName: '__ZN4core3ptr159drop_in_place$LT$alloc..raw_vec..RawVec$LT$$LP$alloc..borrow..Cow$LT$core..ffi..c_str..CStr$GT$$C$pyo3..instance..Py$LT$pyo3..types..any..PyAny$GT$$RP$$GT$$GT$17h16aaa21e06e5c79eE', symObjAddr: 0x32D0, symBinAddr: 0x3333C, symSize: 0x24 }
  - { offset: 0xEC1BF, size: 0x8, addend: 0x0, symName: '__ZN4core3ptr165drop_in_place$LT$core..iter..adapters..enumerate..Enumerate$LT$core..array..iter..IntoIter$LT$pyo3..instance..Py$LT$pyo3..types..any..PyAny$GT$$C$1_usize$GT$$GT$$GT$17h74b25f786e1919f8E', symObjAddr: 0x3318, symBinAddr: 0x33360, symSize: 0x24 }
  - { offset: 0xEC1EE, size: 0x8, addend: 0x0, symName: '__ZN4core3ptr168drop_in_place$LT$alloc..vec..into_iter..IntoIter$LT$$LP$alloc..borrow..Cow$LT$core..ffi..c_str..CStr$GT$$C$pyo3..instance..Py$LT$pyo3..types..any..PyAny$GT$$RP$$GT$$GT$17he6969753873d935cE', symObjAddr: 0x3360, symBinAddr: 0x33384, symSize: 0x24 }
  - { offset: 0xEC21D, size: 0x8, addend: 0x0, symName: '__ZN4core3ptr181drop_in_place$LT$hashbrown..scopeguard..ScopeGuard$LT$$RF$mut$u20$hashbrown..raw..RawTableInner$C$hashbrown..raw..RawTableInner..rehash_in_place..$u7b$$u7b$closure$u7d$$u7d$$GT$$GT$17h1718b67279713e62E', symObjAddr: 0x3384, symBinAddr: 0x333A8, symSize: 0x24 }
  - { offset: 0xEC24C, size: 0x8, addend: 0x0, symName: '__ZN4core3ptr189drop_in_place$LT$core..array..iter..iter_inner..PolymorphicIter$LT$$u5b$core..mem..maybe_uninit..MaybeUninit$LT$pyo3..instance..Py$LT$pyo3..types..any..PyAny$GT$$GT$$u3b$$u20$1$u5d$$GT$$GT$17h1edaa8bf0ea8c4d5E', symObjAddr: 0x33CC, symBinAddr: 0x333CC, symSize: 0x24 }
  - { offset: 0xEC27B, size: 0x8, addend: 0x0, symName: '__ZN4core3ptr196drop_in_place$LT$hashbrown..scopeguard..ScopeGuard$LT$hashbrown..raw..RawTableInner$C$hashbrown..raw..RawTableInner..prepare_resize$LT$alloc..alloc..Global$GT$..$u7b$$u7b$closure$u7d$$u7d$$GT$$GT$17hb20529be27fa8cb0E', symObjAddr: 0x3414, symBinAddr: 0x333F0, symSize: 0x24 }
  - { offset: 0xEC2AA, size: 0x8, addend: 0x0, symName: '__ZN4core3ptr216drop_in_place$LT$$LT$alloc..vec..into_iter..IntoIter$LT$T$C$A$GT$$u20$as$u20$core..ops..drop..Drop$GT$..drop..DropGuard$LT$core..ptr..non_null..NonNull$LT$pyo3_ffi..object..PyObject$GT$$C$alloc..alloc..Global$GT$$GT$17haeaae2796ffe231fE', symObjAddr: 0x3528, symBinAddr: 0x33414, symSize: 0x24 }
  - { offset: 0xEC2D9, size: 0x8, addend: 0x0, symName: '__ZN4core3ptr233drop_in_place$LT$alloc..boxed..Box$LT$dyn$u20$core..ops..function..Fn$LT$$LP$$RF$pyo3..pyclass..create_type_object..PyTypeBuilder$C$$BP$mut$u20$pyo3_ffi..cpython..object..PyTypeObject$RP$$GT$$u2b$Output$u20$$u3d$$u20$$LP$$RP$$GT$$GT$17h204d118f935a2ccfE', symObjAddr: 0x3570, symBinAddr: 0x33438, symSize: 0x80 }
  - { offset: 0xEC308, size: 0x8, addend: 0x0, symName: '__ZN4core3ptr236drop_in_place$LT$alloc..boxed..Box$LT$dyn$u20$core..ops..function..FnOnce$LT$$LP$pyo3..marker..Python$C$$RP$$GT$$u2b$Output$u20$$u3d$$u20$pyo3..err..err_state..PyErrStateLazyFnOutput$u2b$core..marker..Sync$u2b$core..marker..Send$GT$$GT$17hf038cb3cf1b80001E', symObjAddr: 0x35F0, symBinAddr: 0x334B8, symSize: 0x80 }
  - { offset: 0xEC337, size: 0x8, addend: 0x0, symName: '__ZN4core3ptr243drop_in_place$LT$$u5b$alloc..boxed..Box$LT$dyn$u20$core..ops..function..Fn$LT$$LP$$RF$pyo3..pyclass..create_type_object..PyTypeBuilder$C$$BP$mut$u20$pyo3_ffi..cpython..object..PyTypeObject$RP$$GT$$u2b$Output$u20$$u3d$$u20$$LP$$RP$$GT$$u5d$$GT$17h49b941df61a50f1fE', symObjAddr: 0x3670, symBinAddr: 0x33538, symSize: 0xB4 }
  - { offset: 0xEC366, size: 0x8, addend: 0x0, symName: '__ZN4core3ptr256drop_in_place$LT$alloc..vec..Vec$LT$alloc..boxed..Box$LT$dyn$u20$core..ops..function..Fn$LT$$LP$$RF$pyo3..pyclass..create_type_object..PyTypeBuilder$C$$BP$mut$u20$pyo3_ffi..cpython..object..PyTypeObject$RP$$GT$$u2b$Output$u20$$u3d$$u20$$LP$$RP$$GT$$GT$$GT$17ha4424073cb81c541E', symObjAddr: 0x3724, symBinAddr: 0x335EC, symSize: 0x5C }
  - { offset: 0xEC395, size: 0x8, addend: 0x0, symName: '__ZN4core3ptr262drop_in_place$LT$$LT$alloc..vec..into_iter..IntoIter$LT$T$C$A$GT$$u20$as$u20$core..ops..drop..Drop$GT$..drop..DropGuard$LT$$LP$alloc..borrow..Cow$LT$core..ffi..c_str..CStr$GT$$C$pyo3..instance..Py$LT$pyo3..types..any..PyAny$GT$$RP$$C$alloc..alloc..Global$GT$$GT$17h703eefae48459d54E', symObjAddr: 0x3780, symBinAddr: 0x33648, symSize: 0x24 }
  - { offset: 0xEC3C4, size: 0x8, addend: 0x0, symName: '__ZN4core3ptr263drop_in_place$LT$alloc..raw_vec..RawVec$LT$alloc..boxed..Box$LT$dyn$u20$core..ops..function..Fn$LT$$LP$$RF$pyo3..pyclass..create_type_object..PyTypeBuilder$C$$BP$mut$u20$pyo3_ffi..cpython..object..PyTypeObject$RP$$GT$$u2b$Output$u20$$u3d$$u20$$LP$$RP$$GT$$GT$$GT$17he30ab7c6d075ec00E', symObjAddr: 0x37A4, symBinAddr: 0x3366C, symSize: 0x24 }
  - { offset: 0xEC3F3, size: 0x8, addend: 0x0, symName: '__ZN4core3ptr272drop_in_place$LT$alloc..vec..into_iter..IntoIter$LT$alloc..boxed..Box$LT$dyn$u20$core..ops..function..Fn$LT$$LP$$RF$pyo3..pyclass..create_type_object..PyTypeBuilder$C$$BP$mut$u20$pyo3_ffi..cpython..object..PyTypeObject$RP$$GT$$u2b$Output$u20$$u3d$$u20$$LP$$RP$$GT$$GT$$GT$17h07b5360cd1b73bcbE', symObjAddr: 0x3810, symBinAddr: 0x33690, symSize: 0x24 }
  - { offset: 0xEC422, size: 0x8, addend: 0x0, symName: '__ZN4core3ptr272drop_in_place$LT$lock_api..mutex..MutexGuard$LT$parking_lot..raw_mutex..RawMutex$C$$LP$alloc..vec..Vec$LT$core..ptr..non_null..NonNull$LT$pyo3_ffi..object..PyObject$GT$$GT$$C$alloc..vec..Vec$LT$core..ptr..non_null..NonNull$LT$pyo3_ffi..object..PyObject$GT$$GT$$RP$$GT$$GT$17ha6447a83e8eafd2bE', symObjAddr: 0x3834, symBinAddr: 0x336B4, symSize: 0x24 }
  - { offset: 0xEC451, size: 0x8, addend: 0x0, symName: '__ZN4core3ptr366drop_in_place$LT$$LT$alloc..vec..into_iter..IntoIter$LT$T$C$A$GT$$u20$as$u20$core..ops..drop..Drop$GT$..drop..DropGuard$LT$alloc..boxed..Box$LT$dyn$u20$core..ops..function..Fn$LT$$LP$$RF$pyo3..pyclass..create_type_object..PyTypeBuilder$C$$BP$mut$u20$pyo3_ffi..cpython..object..PyTypeObject$RP$$GT$$u2b$Output$u20$$u3d$$u20$$LP$$RP$$GT$$C$alloc..alloc..Global$GT$$GT$17he4589612fddff69fE', symObjAddr: 0x387C, symBinAddr: 0x336D8, symSize: 0x24 }
  - { offset: 0xEC480, size: 0x8, addend: 0x0, symName: '__ZN4core3ptr37drop_in_place$LT$pyo3..err..PyErr$GT$17h0aeb11ce84e0d2f3E', symObjAddr: 0x38A0, symBinAddr: 0x336FC, symSize: 0x24 }
  - { offset: 0xEC4AF, size: 0x8, addend: 0x0, symName: '__ZN4core3ptr39drop_in_place$LT$pyo3..gil..GILPool$GT$17ha147759068f3d765E', symObjAddr: 0x38C4, symBinAddr: 0x33720, symSize: 0x24 }
  - { offset: 0xEC4DE, size: 0x8, addend: 0x0, symName: '__ZN4core3ptr40drop_in_place$LT$pyo3..gil..GILGuard$GT$17hb07cb576cd583c6cE', symObjAddr: 0x38E8, symBinAddr: 0x33744, symSize: 0x24 }
  - { offset: 0xEC50D, size: 0x8, addend: 0x0, symName: '__ZN4core3ptr42drop_in_place$LT$alloc..string..String$GT$17hfad80a3a6860a3c6E', symObjAddr: 0x3930, symBinAddr: 0x33768, symSize: 0x24 }
  - { offset: 0xEC53C, size: 0x8, addend: 0x0, symName: '__ZN4core3ptr42drop_in_place$LT$core..cell..BorrowRef$GT$17h982974121ab6194aE', symObjAddr: 0x3954, symBinAddr: 0x3378C, symSize: 0x24 }
  - { offset: 0xEC56B, size: 0x8, addend: 0x0, symName: '__ZN4core3ptr45drop_in_place$LT$core..cell..BorrowRefMut$GT$17h1a7f9dec7d1d62baE', symObjAddr: 0x3978, symBinAddr: 0x337B0, symSize: 0x24 }
  - { offset: 0xEC59A, size: 0x8, addend: 0x0, symName: '__ZN4core3ptr45drop_in_place$LT$pyo3..err..DowncastError$GT$17h5a03e581073d3a2eE', symObjAddr: 0x399C, symBinAddr: 0x337D4, symSize: 0x24 }
  - { offset: 0xEC5C9, size: 0x8, addend: 0x0, symName: '__ZN4core3ptr48drop_in_place$LT$std..thread..thread..Thread$GT$17hdf072d0c7bafa161E', symObjAddr: 0x3A50, symBinAddr: 0x337F8, symSize: 0x24 }
  - { offset: 0xEC5F8, size: 0x8, addend: 0x0, symName: '__ZN4core3ptr50drop_in_place$LT$alloc..borrow..Cow$LT$str$GT$$GT$17h6ca758e11da39e8eE', symObjAddr: 0x3A98, symBinAddr: 0x3381C, symSize: 0x48 }
  - { offset: 0xEC627, size: 0x8, addend: 0x0, symName: '__ZN4core3ptr50drop_in_place$LT$pyo3..impl_..panic..PanicTrap$GT$17h50b6f9e449e244e8E', symObjAddr: 0x3AE0, symBinAddr: 0x33864, symSize: 0x24 }
  - { offset: 0xEC656, size: 0x8, addend: 0x0, symName: '__ZN4core3ptr51drop_in_place$LT$alloc..vec..Vec$LT$$RF$str$GT$$GT$17h8f60be1130ab763eE', symObjAddr: 0x3B04, symBinAddr: 0x33888, symSize: 0x5C }
  - { offset: 0xEC685, size: 0x8, addend: 0x0, symName: '__ZN4core3ptr53drop_in_place$LT$$LP$alloc..string..String$C$$RP$$GT$17hf3fe7d0a7c6ab790E', symObjAddr: 0x3B60, symBinAddr: 0x338E4, symSize: 0x24 }
  - { offset: 0xEC6B4, size: 0x8, addend: 0x0, symName: '__ZN4core3ptr53drop_in_place$LT$pyo3..err..err_state..PyErrState$GT$17h2caff5b48756f15aE', symObjAddr: 0x3B84, symBinAddr: 0x33908, symSize: 0x58 }
  - { offset: 0xEC6E3, size: 0x8, addend: 0x0, symName: '__ZN4core3ptr56drop_in_place$LT$pyo3..err..PyDowncastErrorArguments$GT$17h6c21191a72d88bf2E', symObjAddr: 0x3C00, symBinAddr: 0x33960, symSize: 0x5C }
  - { offset: 0xEC712, size: 0x8, addend: 0x0, symName: '__ZN4core3ptr58drop_in_place$LT$alloc..raw_vec..RawVec$LT$$RF$str$GT$$GT$17hd5ef881c54a5a051E', symObjAddr: 0x3C80, symBinAddr: 0x339BC, symSize: 0x24 }
  - { offset: 0xEC741, size: 0x8, addend: 0x0, symName: '__ZN4core3ptr63drop_in_place$LT$pyo3..err..err_state..PyErrStateNormalized$GT$17hd777ce2db8f6ad55E', symObjAddr: 0x3CEC, symBinAddr: 0x339E0, symSize: 0x24 }
  - { offset: 0xEC770, size: 0x8, addend: 0x0, symName: '__ZN4core3ptr65drop_in_place$LT$core..option..Option$LT$pyo3..err..PyErr$GT$$GT$17h84868e7383eef8faE', symObjAddr: 0x3D10, symBinAddr: 0x33A04, symSize: 0x40 }
  - { offset: 0xEC79F, size: 0x8, addend: 0x0, symName: '__ZN4core3ptr66drop_in_place$LT$pyo3..impl_..pymethods..PyMethodDefDestructor$GT$17h91c4a005d35900e9E', symObjAddr: 0x3D98, symBinAddr: 0x33A44, symSize: 0x60 }
  - { offset: 0xEC7CE, size: 0x8, addend: 0x0, symName: '__ZN4core3ptr68drop_in_place$LT$core..option..Option$LT$pyo3..gil..GILGuard$GT$$GT$17h58abf762f8f967bbE', symObjAddr: 0x3DF8, symBinAddr: 0x33AA4, symSize: 0x44 }
  - { offset: 0xEC7FD, size: 0x8, addend: 0x0, symName: '__ZN4core3ptr69drop_in_place$LT$alloc..borrow..Cow$LT$core..ffi..c_str..CStr$GT$$GT$17h5a76432ca6022ca9E', symObjAddr: 0x3E3C, symBinAddr: 0x33AE8, symSize: 0x40 }
  - { offset: 0xEC82C, size: 0x8, addend: 0x0, symName: '__ZN4core3ptr69drop_in_place$LT$alloc..vec..Vec$LT$std..thread..id..ThreadId$GT$$GT$17h7ffce7c1088d0e50E', symObjAddr: 0x3E7C, symBinAddr: 0x33B28, symSize: 0x5C }
  - { offset: 0xEC85B, size: 0x8, addend: 0x0, symName: '__ZN4core3ptr69drop_in_place$LT$pyo3..pyclass..create_type_object..GetSetDefType$GT$17hf0b51dba3f6e7a19E', symObjAddr: 0x3EFC, symBinAddr: 0x33B84, symSize: 0x48 }
  - { offset: 0xEC88A, size: 0x8, addend: 0x0, symName: '__ZN4core3ptr69drop_in_place$LT$pyo3..pyclass..create_type_object..PyTypeBuilder$GT$17h8795f0b6c0a0ccb2E', symObjAddr: 0x3F44, symBinAddr: 0x33BCC, symSize: 0xC0 }
  - { offset: 0xEC8B9, size: 0x8, addend: 0x0, symName: '__ZN4core3ptr70drop_in_place$LT$pyo3..instance..Py$LT$pyo3..types..any..PyAny$GT$$GT$17hb8beccd0493f87f2E', symObjAddr: 0x4004, symBinAddr: 0x33C8C, symSize: 0x24 }
  - { offset: 0xEC8E8, size: 0x8, addend: 0x0, symName: '__ZN4core3ptr73drop_in_place$LT$alloc..vec..Vec$LT$pyo3_ffi..object..PyType_Slot$GT$$GT$17h93fa926cf326563fE', symObjAddr: 0x40E8, symBinAddr: 0x33CB0, symSize: 0x5C }
  - { offset: 0xEC917, size: 0x8, addend: 0x0, symName: '__ZN4core3ptr73drop_in_place$LT$pyo3..instance..Bound$LT$pyo3..types..any..PyAny$GT$$GT$17h8363fbda34d8048bE', symObjAddr: 0x41C4, symBinAddr: 0x33D0C, symSize: 0x24 }
  - { offset: 0xEC946, size: 0x8, addend: 0x0, symName: '__ZN4core3ptr73drop_in_place$LT$pyo3..pyclass..create_type_object..PyClassTypeObject$GT$17h1b74dbefd280d968E', symObjAddr: 0x420C, symBinAddr: 0x33D30, symSize: 0x5C }
  - { offset: 0xEC975, size: 0x8, addend: 0x0, symName: '__ZN4core3ptr74drop_in_place$LT$pyo3..instance..Py$LT$pyo3..types..tuple..PyTuple$GT$$GT$17h4911596b268f3e60E', symObjAddr: 0x428C, symBinAddr: 0x33D8C, symSize: 0x24 }
  - { offset: 0xEC9A4, size: 0x8, addend: 0x0, symName: '__ZN4core3ptr75drop_in_place$LT$core..option..Option$LT$alloc..ffi..c_str..CString$GT$$GT$17h340dcc1420130ab3E', symObjAddr: 0x42B0, symBinAddr: 0x33DB0, symSize: 0x44 }
  - { offset: 0xEC9D3, size: 0x8, addend: 0x0, symName: '__ZN4core3ptr75drop_in_place$LT$core..result..Result$LT$$RF$str$C$pyo3..err..PyErr$GT$$GT$17h0672aac8b8356630E', symObjAddr: 0x42F4, symBinAddr: 0x33DF4, symSize: 0x40 }
  - { offset: 0xECA02, size: 0x8, addend: 0x0, symName: '__ZN4core3ptr75drop_in_place$LT$pyo3..instance..Bound$LT$pyo3..types..list..PyList$GT$$GT$17h13149f1d03576829E', symObjAddr: 0x4358, symBinAddr: 0x33E34, symSize: 0x24 }
  - { offset: 0xECA31, size: 0x8, addend: 0x0, symName: '__ZN4core3ptr75drop_in_place$LT$pyo3..pyclass..create_type_object..GetSetDefDestructor$GT$17ha41d7ccc7dab4cf8E', symObjAddr: 0x437C, symBinAddr: 0x33E58, symSize: 0x90 }
  - { offset: 0xECA60, size: 0x8, addend: 0x0, symName: '__ZN4core3ptr76drop_in_place$LT$alloc..raw_vec..RawVec$LT$std..thread..id..ThreadId$GT$$GT$17hb1f3c4c1d61087e8E', symObjAddr: 0x440C, symBinAddr: 0x33EE8, symSize: 0x24 }
  - { offset: 0xECA8F, size: 0x8, addend: 0x0, symName: '__ZN4core3ptr76drop_in_place$LT$core..result..Result$LT$$LP$$RP$$C$pyo3..err..PyErr$GT$$GT$17h51f05ddda976406eE', symObjAddr: 0x4430, symBinAddr: 0x33F0C, symSize: 0x40 }
  - { offset: 0xECABE, size: 0x8, addend: 0x0, symName: '__ZN4core3ptr76drop_in_place$LT$pyo3..instance..Py$LT$pyo3..types..module..PyModule$GT$$GT$17h4f4c4f63972bb224E', symObjAddr: 0x4470, symBinAddr: 0x33F4C, symSize: 0x24 }
  - { offset: 0xECAED, size: 0x8, addend: 0x0, symName: '__ZN4core3ptr76drop_in_place$LT$pyo3..instance..Py$LT$pyo3..types..string..PyString$GT$$GT$17h8a6a0ac3ab7db666E', symObjAddr: 0x4494, symBinAddr: 0x33F70, symSize: 0x24 }
  - { offset: 0xECB1C, size: 0x8, addend: 0x0, symName: '__ZN4core3ptr77drop_in_place$LT$pyo3..instance..Bound$LT$pyo3..types..bytes..PyBytes$GT$$GT$17hc3d95c89886cb126E', symObjAddr: 0x44B8, symBinAddr: 0x33F94, symSize: 0x24 }
  - { offset: 0xECB4B, size: 0x8, addend: 0x0, symName: '__ZN4core3ptr78drop_in_place$LT$alloc..vec..Vec$LT$pyo3_ffi..descrobject..PyGetSetDef$GT$$GT$17hd1c0fde3084a2ee2E', symObjAddr: 0x4548, symBinAddr: 0x33FB8, symSize: 0x5C }
  - { offset: 0xECB7A, size: 0x8, addend: 0x0, symName: '__ZN4core3ptr78drop_in_place$LT$alloc..vec..Vec$LT$pyo3_ffi..descrobject..PyMemberDef$GT$$GT$17hab457344b46c6cc0E', symObjAddr: 0x45A4, symBinAddr: 0x34014, symSize: 0x5C }
  - { offset: 0xECBA9, size: 0x8, addend: 0x0, symName: '__ZN4core3ptr78drop_in_place$LT$pyo3..instance..Py$LT$pyo3..types..typeobject..PyType$GT$$GT$17hc5c881b716155ff0E', symObjAddr: 0x4600, symBinAddr: 0x34070, symSize: 0x24 }
  - { offset: 0xECBD8, size: 0x8, addend: 0x0, symName: '__ZN4core3ptr79drop_in_place$LT$alloc..vec..Vec$LT$pyo3_ffi..methodobject..PyMethodDef$GT$$GT$17h33147b8bb3ef24d1E', symObjAddr: 0x4624, symBinAddr: 0x34094, symSize: 0x5C }
  - { offset: 0xECC07, size: 0x8, addend: 0x0, symName: '__ZN4core3ptr79drop_in_place$LT$pyo3..instance..Bound$LT$pyo3..types..string..PyString$GT$$GT$17hf618c2dab0c9d0bbE', symObjAddr: 0x4710, symBinAddr: 0x340F0, symSize: 0x24 }
  - { offset: 0xECC36, size: 0x8, addend: 0x0, symName: '__ZN4core3ptr80drop_in_place$LT$$u5b$pyo3..instance..Py$LT$pyo3..types..any..PyAny$GT$$u5d$$GT$17h0a8457d4ba62c1c6E', symObjAddr: 0x4734, symBinAddr: 0x34114, symSize: 0xB4 }
  - { offset: 0xECC65, size: 0x8, addend: 0x0, symName: '__ZN4core3ptr80drop_in_place$LT$alloc..raw_vec..RawVec$LT$pyo3_ffi..object..PyType_Slot$GT$$GT$17h9c0484c4566903daE', symObjAddr: 0x47E8, symBinAddr: 0x341C8, symSize: 0x24 }
  - { offset: 0xECC94, size: 0x8, addend: 0x0, symName: '__ZN4core3ptr80drop_in_place$LT$pyo3..instance..Py$LT$pyo3..exceptions..PyBaseException$GT$$GT$17h3533dd50735b548dE', symObjAddr: 0x4854, symBinAddr: 0x341EC, symSize: 0x24 }
  - { offset: 0xECCC3, size: 0x8, addend: 0x0, symName: '__ZN4core3ptr81drop_in_place$LT$core..option..Option$LT$pyo3..err..err_state..PyErrState$GT$$GT$17h839b6777a09c3a78E', symObjAddr: 0x489C, symBinAddr: 0x34210, symSize: 0x40 }
  - { offset: 0xECCF2, size: 0x8, addend: 0x0, symName: '__ZN4core3ptr81drop_in_place$LT$pyo3..instance..Bound$LT$pyo3..types..typeobject..PyType$GT$$GT$17h70dbadf6f1074a7dE', symObjAddr: 0x4924, symBinAddr: 0x34250, symSize: 0x24 }
  - { offset: 0xECD21, size: 0x8, addend: 0x0, symName: '__ZN4core3ptr83drop_in_place$LT$pyo3..instance..Bound$LT$pyo3..exceptions..PyBaseException$GT$$GT$17hef2050ce1f01e642E', symObjAddr: 0x4948, symBinAddr: 0x34274, symSize: 0x24 }
  - { offset: 0xECD50, size: 0x8, addend: 0x0, symName: '__ZN4core3ptr85drop_in_place$LT$$u5b$pyo3..pyclass..create_type_object..GetSetDefDestructor$u5d$$GT$17h67250c1b5ee9710dE', symObjAddr: 0x49FC, symBinAddr: 0x34298, symSize: 0xB4 }
  - { offset: 0xECD7F, size: 0x8, addend: 0x0, symName: '__ZN4core3ptr85drop_in_place$LT$alloc..raw_vec..RawVec$LT$pyo3_ffi..descrobject..PyGetSetDef$GT$$GT$17hafdc0c51cd1e9f4cE', symObjAddr: 0x4AB0, symBinAddr: 0x3434C, symSize: 0x24 }
  - { offset: 0xECDAE, size: 0x8, addend: 0x0, symName: '__ZN4core3ptr85drop_in_place$LT$alloc..raw_vec..RawVec$LT$pyo3_ffi..descrobject..PyMemberDef$GT$$GT$17h402ff18e18e7d11aE', symObjAddr: 0x4AD4, symBinAddr: 0x34370, symSize: 0x24 }
  - { offset: 0xECDDD, size: 0x8, addend: 0x0, symName: '__ZN4core3ptr85drop_in_place$LT$pyo3..instance..Bound$LT$pyo3..types..traceback..PyTraceback$GT$$GT$17h4a87de843971983fE', symObjAddr: 0x4B64, symBinAddr: 0x34394, symSize: 0x24 }
  - { offset: 0xECE0C, size: 0x8, addend: 0x0, symName: '__ZN4core3ptr86drop_in_place$LT$alloc..raw_vec..RawVec$LT$pyo3_ffi..methodobject..PyMethodDef$GT$$GT$17ha6cd18c5be0c24bcE', symObjAddr: 0x4B88, symBinAddr: 0x343B8, symSize: 0x24 }
  - { offset: 0xECE3B, size: 0x8, addend: 0x0, symName: '__ZN4core3ptr89drop_in_place$LT$core..result..Result$LT$alloc..string..String$C$pyo3..err..PyErr$GT$$GT$17h33fb284b7c3e9eddE', symObjAddr: 0x4BF4, symBinAddr: 0x343DC, symSize: 0x50 }
  - { offset: 0xECE6A, size: 0x8, addend: 0x0, symName: '__ZN4core3ptr91drop_in_place$LT$$u5b$pyo3..instance..Py$LT$pyo3..types..any..PyAny$GT$$u3b$$u20$1$u5d$$GT$17h15e25d67f01332b6E', symObjAddr: 0x4C44, symBinAddr: 0x3442C, symSize: 0xA4 }
  - { offset: 0xECE99, size: 0x8, addend: 0x0, symName: '__ZN4core3ptr91drop_in_place$LT$alloc..boxed..Box$LT$dyn$u20$core..any..Any$u2b$core..marker..Send$GT$$GT$17h3a636b41efa9834bE', symObjAddr: 0x4D8C, symBinAddr: 0x344D0, symSize: 0x80 }
  - { offset: 0xECEC8, size: 0x8, addend: 0x0, symName: '__ZN4core3ptr92drop_in_place$LT$alloc..sync..Arc$LT$std..thread..thread..Inner$C$std..alloc..System$GT$$GT$17h4b44b31f2623687cE', symObjAddr: 0x4E4C, symBinAddr: 0x34550, symSize: 0x24 }
  - { offset: 0xECEF7, size: 0x8, addend: 0x0, symName: '__ZN4core3ptr93drop_in_place$LT$core..result..Result$LT$core..convert..Infallible$C$pyo3..err..PyErr$GT$$GT$17h80868a1aef438755E', symObjAddr: 0x4EB0, symBinAddr: 0x34574, symSize: 0x30 }
  - { offset: 0xECF26, size: 0x8, addend: 0x0, symName: '__ZN4core3ptr95drop_in_place$LT$core..cell..RefMut$LT$alloc..vec..Vec$LT$std..thread..id..ThreadId$GT$$GT$$GT$17hf200b8d082abf1e8E', symObjAddr: 0x4EE0, symBinAddr: 0x345A4, symSize: 0x24 }
  - { offset: 0xECF55, size: 0x8, addend: 0x0, symName: '__ZN4core3ptr96drop_in_place$LT$alloc..boxed..Box$LT$pyo3..pyclass..create_type_object..GetterAndSetter$GT$$GT$17hea080adf796897c3E', symObjAddr: 0x4F04, symBinAddr: 0x345C8, symSize: 0x2C }
  - { offset: 0xECF84, size: 0x8, addend: 0x0, symName: '__ZN4core3ptr97drop_in_place$LT$core..option..Option$LT$alloc..borrow..Cow$LT$core..ffi..c_str..CStr$GT$$GT$$GT$17h807cfea08b89da40E', symObjAddr: 0x4F30, symBinAddr: 0x345F4, symSize: 0x44 }
  - { offset: 0xECFB3, size: 0x8, addend: 0x0, symName: '__ZN4core3ptr98drop_in_place$LT$alloc..vec..Vec$LT$pyo3..pyclass..create_type_object..GetSetDefDestructor$GT$$GT$17hba418cffa5e81daaE', symObjAddr: 0x4FC4, symBinAddr: 0x34638, symSize: 0x5C }
  - { offset: 0xED509, size: 0x8, addend: 0x0, symName: __ZN4core3fmt5Write9write_fmt17h6dbb1dd17efa3fbcE, symObjAddr: 0x13FC, symBinAddr: 0x32394, symSize: 0x34 }
  - { offset: 0xED556, size: 0x8, addend: 0x0, symName: '__ZN75_$LT$$RF$mut$u20$W$u20$as$u20$core..fmt..Write..write_fmt..SpecWriteFmt$GT$14spec_write_fmt17h76b3f4edd2683a35E', symObjAddr: 0x9CD8, symBinAddr: 0x360E8, symSize: 0x98 }
  - { offset: 0xEEE88, size: 0x8, addend: 0x0, symName: '__ZN118_$LT$$u5b$core..mem..maybe_uninit..MaybeUninit$LT$T$GT$$u5d$$u20$as$u20$core..array..iter..iter_inner..PartialDrop$GT$12partial_drop17h1c535c1f508f9930E', symObjAddr: 0x2AC, symBinAddr: 0x31F2C, symSize: 0xA0 }
  - { offset: 0xEEF88, size: 0x8, addend: 0x0, symName: '__ZN129_$LT$$u5b$core..mem..maybe_uninit..MaybeUninit$LT$T$GT$$u3b$$u20$N$u5d$$u20$as$u20$core..array..iter..iter_inner..PartialDrop$GT$12partial_drop17hd563b643bd87c3e3E', symObjAddr: 0xA94, symBinAddr: 0x31FCC, symSize: 0x4C }
  - { offset: 0xEF49D, size: 0x8, addend: 0x0, symName: __ZN4core3ops8function5FnMut8call_mut17h3e1bfb988528edf3E, symObjAddr: 0x1460, symBinAddr: 0x323C8, symSize: 0x48 }
  - { offset: 0xEF4E7, size: 0x8, addend: 0x0, symName: '__ZN4core3ops8function6FnOnce40call_once$u7b$$u7b$vtable.shim$u7d$$u7d$17h02de44db2d1eac2eE', symObjAddr: 0x14A8, symBinAddr: 0x32410, symSize: 0x24 }
  - { offset: 0xEF52B, size: 0x8, addend: 0x0, symName: '__ZN4core3ops8function6FnOnce40call_once$u7b$$u7b$vtable.shim$u7d$$u7d$17h1a462ba622e93d81E', symObjAddr: 0x14F4, symBinAddr: 0x32434, symSize: 0x24 }
  - { offset: 0xEF56F, size: 0x8, addend: 0x0, symName: '__ZN4core3ops8function6FnOnce40call_once$u7b$$u7b$vtable.shim$u7d$$u7d$17h1f67848240618947E', symObjAddr: 0x1518, symBinAddr: 0x32458, symSize: 0x30 }
  - { offset: 0xEF5AF, size: 0x8, addend: 0x0, symName: '__ZN4core3ops8function6FnOnce40call_once$u7b$$u7b$vtable.shim$u7d$$u7d$17h3fe379bb6e6f1dabE', symObjAddr: 0x1604, symBinAddr: 0x32488, symSize: 0x30 }
  - { offset: 0xEF5F3, size: 0x8, addend: 0x0, symName: '__ZN4core3ops8function6FnOnce40call_once$u7b$$u7b$vtable.shim$u7d$$u7d$17h4763178020a5d069E', symObjAddr: 0x1634, symBinAddr: 0x324B8, symSize: 0x24 }
  - { offset: 0xEF637, size: 0x8, addend: 0x0, symName: '__ZN4core3ops8function6FnOnce40call_once$u7b$$u7b$vtable.shim$u7d$$u7d$17h50d55102bb8bee6cE', symObjAddr: 0x1658, symBinAddr: 0x324DC, symSize: 0x30 }
  - { offset: 0xEF67B, size: 0x8, addend: 0x0, symName: '__ZN4core3ops8function6FnOnce40call_once$u7b$$u7b$vtable.shim$u7d$$u7d$17h6b5f1841e389db1fE', symObjAddr: 0x16F8, symBinAddr: 0x3250C, symSize: 0x38 }
  - { offset: 0xEF6BF, size: 0x8, addend: 0x0, symName: '__ZN4core3ops8function6FnOnce40call_once$u7b$$u7b$vtable.shim$u7d$$u7d$17h873321eb32944be5E', symObjAddr: 0x17F0, symBinAddr: 0x32544, symSize: 0x30 }
  - { offset: 0xEF6FF, size: 0x8, addend: 0x0, symName: '__ZN4core3ops8function6FnOnce40call_once$u7b$$u7b$vtable.shim$u7d$$u7d$17h996012da34316577E', symObjAddr: 0x1848, symBinAddr: 0x32574, symSize: 0x30 }
  - { offset: 0xEF743, size: 0x8, addend: 0x0, symName: '__ZN4core3ops8function6FnOnce40call_once$u7b$$u7b$vtable.shim$u7d$$u7d$17hb68df1f8d857e5abE', symObjAddr: 0x1898, symBinAddr: 0x325A4, symSize: 0x38 }
  - { offset: 0xEF787, size: 0x8, addend: 0x0, symName: '__ZN4core3ops8function6FnOnce40call_once$u7b$$u7b$vtable.shim$u7d$$u7d$17hc0631d80622214e7E', symObjAddr: 0x1928, symBinAddr: 0x325DC, symSize: 0x24 }
  - { offset: 0xEF7CB, size: 0x8, addend: 0x0, symName: '__ZN4core3ops8function6FnOnce40call_once$u7b$$u7b$vtable.shim$u7d$$u7d$17hc135279a1bed2980E', symObjAddr: 0x194C, symBinAddr: 0x32600, symSize: 0x24 }
  - { offset: 0xEF80F, size: 0x8, addend: 0x0, symName: '__ZN4core3ops8function6FnOnce40call_once$u7b$$u7b$vtable.shim$u7d$$u7d$17hcfb05116d1a6f14bE', symObjAddr: 0x1998, symBinAddr: 0x32624, symSize: 0x30 }
  - { offset: 0xEF853, size: 0x8, addend: 0x0, symName: '__ZN4core3ops8function6FnOnce40call_once$u7b$$u7b$vtable.shim$u7d$$u7d$17hd57c61c2a76ad3c0E', symObjAddr: 0x1A18, symBinAddr: 0x32654, symSize: 0x30 }
  - { offset: 0xEF897, size: 0x8, addend: 0x0, symName: '__ZN4core3ops8function6FnOnce40call_once$u7b$$u7b$vtable.shim$u7d$$u7d$17hdd5098ebd85da825E', symObjAddr: 0x1A6C, symBinAddr: 0x32684, symSize: 0x24 }
  - { offset: 0xEF8DB, size: 0x8, addend: 0x0, symName: __ZN4core3ops8function6FnOnce9call_once17h1c3ceb433fb325edE, symObjAddr: 0x1B24, symBinAddr: 0x326A8, symSize: 0x4C }
  - { offset: 0xEF91B, size: 0x8, addend: 0x0, symName: __ZN4core3ops8function6FnOnce9call_once17h2724150e59cae4c3E, symObjAddr: 0x1B94, symBinAddr: 0x326F4, symSize: 0x4C }
  - { offset: 0xEF95B, size: 0x8, addend: 0x0, symName: __ZN4core3ops8function6FnOnce9call_once17h40962bec07057e70E, symObjAddr: 0x1C80, symBinAddr: 0x32740, symSize: 0x1C }
  - { offset: 0xEF99F, size: 0x8, addend: 0x0, symName: __ZN4core3ops8function6FnOnce9call_once17h51809a84a6f26c4eE, symObjAddr: 0x1D88, symBinAddr: 0x3275C, symSize: 0x34 }
  - { offset: 0xEF9E3, size: 0x8, addend: 0x0, symName: __ZN4core3ops8function6FnOnce9call_once17h625d37688ea6e992E, symObjAddr: 0x1E30, symBinAddr: 0x32790, symSize: 0x24 }
  - { offset: 0xEFA27, size: 0x8, addend: 0x0, symName: __ZN4core3ops8function6FnOnce9call_once17h63370dac1460989dE, symObjAddr: 0x1E54, symBinAddr: 0x327B4, symSize: 0x4C }
  - { offset: 0xEFA6B, size: 0x8, addend: 0x0, symName: __ZN4core3ops8function6FnOnce9call_once17h63b8e2a284e859efE, symObjAddr: 0x1EA0, symBinAddr: 0x32800, symSize: 0x2C }
  - { offset: 0xEFAAF, size: 0x8, addend: 0x0, symName: __ZN4core3ops8function6FnOnce9call_once17h6b2f1c28798db7dbE, symObjAddr: 0x1ECC, symBinAddr: 0x3282C, symSize: 0x58 }
  - { offset: 0xEFAF3, size: 0x8, addend: 0x0, symName: __ZN4core3ops8function6FnOnce9call_once17h6f7b6ce510e96e0cE, symObjAddr: 0x1F48, symBinAddr: 0x32884, symSize: 0x24 }
  - { offset: 0xEFB37, size: 0x8, addend: 0x0, symName: __ZN4core3ops8function6FnOnce9call_once17h726f679c25ec6058E, symObjAddr: 0x1F6C, symBinAddr: 0x328A8, symSize: 0x4C }
  - { offset: 0xEFB7B, size: 0x8, addend: 0x0, symName: __ZN4core3ops8function6FnOnce9call_once17h833ac1613ba9d2d4E, symObjAddr: 0x2024, symBinAddr: 0x328F4, symSize: 0x2C }
  - { offset: 0xEFBBF, size: 0x8, addend: 0x0, symName: __ZN4core3ops8function6FnOnce9call_once17hb5f8bb3f68b240d4E, symObjAddr: 0x2098, symBinAddr: 0x32920, symSize: 0x4C }
  - { offset: 0xEFC03, size: 0x8, addend: 0x0, symName: __ZN4core3ops8function6FnOnce9call_once17hb83588b9aac9c9c9E, symObjAddr: 0x20E4, symBinAddr: 0x3296C, symSize: 0x2C }
  - { offset: 0xEFC47, size: 0x8, addend: 0x0, symName: __ZN4core3ops8function6FnOnce9call_once17hbdb988bfa3afe23dE, symObjAddr: 0x2170, symBinAddr: 0x32998, symSize: 0x34 }
  - { offset: 0xEFC8B, size: 0x8, addend: 0x0, symName: __ZN4core3ops8function6FnOnce9call_once17hc4d84146c1c42b6aE, symObjAddr: 0x21C8, symBinAddr: 0x329CC, symSize: 0x5C }
  - { offset: 0xEFCCF, size: 0x8, addend: 0x0, symName: __ZN4core3ops8function6FnOnce9call_once17hc5e6143456736db4E, symObjAddr: 0x2224, symBinAddr: 0x32A28, symSize: 0x30 }
  - { offset: 0xEFD30, size: 0x8, addend: 0x0, symName: __ZN4core3ops8function6FnOnce9call_once17hfb78a3151ac92b7aE, symObjAddr: 0x23C4, symBinAddr: 0x32A58, symSize: 0x24 }
  - { offset: 0xEFD74, size: 0x8, addend: 0x0, symName: __ZN4core3ops8function6FnOnce9call_once17hfe389f588f6ad25bE, symObjAddr: 0x23E8, symBinAddr: 0x32A7C, symSize: 0x2C }
  - { offset: 0xEFE5E, size: 0x8, addend: 0x0, symName: '__ZN4core3cmp5impls54_$LT$impl$u20$core..cmp..PartialEq$u20$for$u20$i32$GT$2ne17ha45121b96fee5709E', symObjAddr: 0x1194, symBinAddr: 0x322F8, symSize: 0x2C }
  - { offset: 0xEFEA1, size: 0x8, addend: 0x0, symName: '__ZN4core3cmp5impls54_$LT$impl$u20$core..cmp..PartialEq$u20$for$u20$i64$GT$2ne17hafd1b9226f5d31c7E', symObjAddr: 0x11EC, symBinAddr: 0x32324, symSize: 0x2C }
  - { offset: 0xEFEE4, size: 0x8, addend: 0x0, symName: '__ZN4core3cmp5impls69_$LT$impl$u20$core..cmp..PartialEq$LT$$RF$B$GT$$u20$for$u20$$RF$A$GT$2eq17hcc2d06241f7bf2deE', symObjAddr: 0x13B8, symBinAddr: 0x32350, symSize: 0x44 }
  - { offset: 0xF016C, size: 0x8, addend: 0x0, symName: '__ZN31_$LT$dyn$u20$core..any..Any$GT$12downcast_ref17h3bf372c675f9e63fE', symObjAddr: 0xC84, symBinAddr: 0x320E8, symSize: 0xA4 }
  - { offset: 0xF025D, size: 0x8, addend: 0x0, symName: '__ZN31_$LT$dyn$u20$core..any..Any$GT$12downcast_ref17h9caff8ac23e90be9E', symObjAddr: 0xD28, symBinAddr: 0x3218C, symSize: 0xA4 }
  - { offset: 0xF03E2, size: 0x8, addend: 0x0, symName: '__ZN36_$LT$T$u20$as$u20$core..any..Any$GT$7type_id17hcbde80ca4e90cb95E', symObjAddr: 0xDCC, symBinAddr: 0x32230, symSize: 0x20 }
  - { offset: 0xF0431, size: 0x8, addend: 0x0, symName: '__ZN54_$LT$dyn$u20$core..any..Any$u2b$core..marker..Send$GT$12downcast_ref17h2c0a2f7f6d74b54cE', symObjAddr: 0x89A8, symBinAddr: 0x35A80, symSize: 0x2C }
  - { offset: 0xF0468, size: 0x8, addend: 0x0, symName: '__ZN54_$LT$dyn$u20$core..any..Any$u2b$core..marker..Send$GT$12downcast_ref17hbfaac592a33f9e9cE', symObjAddr: 0x89D4, symBinAddr: 0x35AAC, symSize: 0x2C }
  - { offset: 0xF1101, size: 0x8, addend: 0x0, symName: '__ZN50_$LT$T$u20$as$u20$core..convert..Into$LT$U$GT$$GT$4into17h5e2588525e0ae56eE', symObjAddr: 0x8754, symBinAddr: 0x35A6C, symSize: 0x14 }
  - { offset: 0xF1158, size: 0x8, addend: 0x0, symName: __ZN4core4hash11BuildHasher8hash_one17ha97ed67b3e7a034bE, symObjAddr: 0x5064, symBinAddr: 0x34694, symSize: 0x84 }
  - { offset: 0xF1494, size: 0x8, addend: 0x0, symName: '__ZN58_$LT$T$u20$as$u20$pyo3..err..err_state..PyErrArguments$GT$9arguments17hb109e8753c34cbcfE', symObjAddr: 0x8AC4, symBinAddr: 0x35B68, symSize: 0x34 }
  - { offset: 0xF14E3, size: 0x8, addend: 0x0, symName: '__ZN58_$LT$T$u20$as$u20$pyo3..err..err_state..PyErrArguments$GT$9arguments17hb578eb19219c5b83E', symObjAddr: 0x8AF8, symBinAddr: 0x35B9C, symSize: 0x34 }
  - { offset: 0xF1A82, size: 0x8, addend: 0x0, symName: '__ZN4pyo35types5tuple125_$LT$impl$u20$pyo3..conversion..IntoPy$LT$pyo3..instance..Py$LT$pyo3..types..any..PyAny$GT$$GT$$u20$for$u20$$LP$T0$C$$RP$$GT$7into_py17h9381f9e305b7462cE', symObjAddr: 0x72C8, symBinAddr: 0x35770, symSize: 0x54 }
  - { offset: 0xF1AD5, size: 0x8, addend: 0x0, symName: '__ZN4pyo35types5tuple125_$LT$impl$u20$pyo3..conversion..IntoPy$LT$pyo3..instance..Py$LT$pyo3..types..any..PyAny$GT$$GT$$u20$for$u20$$LP$T0$C$$RP$$GT$7into_py17hbfa96a819e909e9eE', symObjAddr: 0x731C, symBinAddr: 0x357C4, symSize: 0x48 }
  - { offset: 0xF1B28, size: 0x8, addend: 0x0, symName: __ZN4pyo35types5tuple16array_into_tuple17hea46eaff45efdae8E, symObjAddr: 0x7858, symBinAddr: 0x3580C, symSize: 0x1E8 }
  - { offset: 0xF1FA5, size: 0x8, addend: 0x0, symName: '__ZN135_$LT$pyo3..impl_..pyclass..lazy_type_object..LazyTypeObjectInner..ensure_init..InitializationGuard$u20$as$u20$core..ops..drop..Drop$GT$4drop17ha96b929930c28191E', symObjAddr: 0xBB4, symBinAddr: 0x32018, symSize: 0x98 }
  - { offset: 0xF1FE7, size: 0x8, addend: 0x0, symName: '__ZN135_$LT$pyo3..impl_..pyclass..lazy_type_object..LazyTypeObjectInner..ensure_init..InitializationGuard$u20$as$u20$core..ops..drop..Drop$GT$4drop28_$u7b$$u7b$closure$u7d$$u7d$17ha943c130dbe086b7E', symObjAddr: 0xC4C, symBinAddr: 0x320B0, symSize: 0x38 }
  - { offset: 0xF2026, size: 0x8, addend: 0x0, symName: '__ZN4pyo35impl_7pyclass16lazy_type_object19LazyTypeObjectInner11ensure_init28_$u7b$$u7b$closure$u7d$$u7d$17h4bff742ad3c30241E', symObjAddr: 0x6D74, symBinAddr: 0x3530C, symSize: 0x154 }
  - { offset: 0xF211A, size: 0x8, addend: 0x0, symName: '__ZN4pyo35impl_7pyclass16lazy_type_object19LazyTypeObjectInner15get_or_try_init28_$u7b$$u7b$closure$u7d$$u7d$17h08fbde433a28766eE', symObjAddr: 0x6F60, symBinAddr: 0x354F8, symSize: 0xFC }
  - { offset: 0xF21B9, size: 0x8, addend: 0x0, symName: '__ZN4pyo35impl_7pyclass16lazy_type_object19LazyTypeObjectInner15get_or_try_init28_$u7b$$u7b$closure$u7d$$u7d$17hebb70197b38a431fE', symObjAddr: 0x705C, symBinAddr: 0x355F4, symSize: 0x150 }
  - { offset: 0xF2286, size: 0x8, addend: 0x0, symName: '__ZN4pyo35impl_7pyclass16lazy_type_object19LazyTypeObjectInner15get_or_try_init28_$u7b$$u7b$closure$u7d$$u7d$28_$u7b$$u7b$closure$u7d$$u7d$17h391e3eebd6ba8f1bE', symObjAddr: 0x71AC, symBinAddr: 0x35744, symSize: 0x2C }
  - { offset: 0xF22C6, size: 0x8, addend: 0x0, symName: __ZN4pyo35impl_7pyclass16lazy_type_object18initialize_tp_dict17hdcf58fa8cb04a416E, symObjAddr: 0x62F0, symBinAddr: 0x34888, symSize: 0x238 }
  - { offset: 0xF23F1, size: 0x8, addend: 0x0, symName: __ZN4pyo35impl_7pyclass16lazy_type_object21wrap_in_runtime_error17h5379b3eb5594bc6dE, symObjAddr: 0x71D8, symBinAddr: 0x8A7BC, symSize: 0xF0 }
  - { offset: 0xF29ED, size: 0x8, addend: 0x0, symName: '__ZN57_$LT$T$u20$as$u20$pyo3..conversion..FromPyObjectBound$GT$20from_py_object_bound17h9e4f28222e4b1f3aE', symObjAddr: 0x8A5C, symBinAddr: 0x35B34, symSize: 0x34 }
  - { offset: 0xF2A3A, size: 0x8, addend: 0x0, symName: '__ZN4pyo311conversions3std6string133_$LT$impl$u20$pyo3..conversion..IntoPy$LT$pyo3..instance..Py$LT$pyo3..types..any..PyAny$GT$$GT$$u20$for$u20$alloc..string..String$GT$7into_py17h0ec2f58cda9f5b0aE', symObjAddr: 0x5648, symBinAddr: 0x34718, symSize: 0x8C }
  - { offset: 0xF2A86, size: 0x8, addend: 0x0, symName: '__ZN4pyo311conversions3std6string80_$LT$impl$u20$pyo3..conversion..ToPyObject$u20$for$u20$alloc..string..String$GT$9to_object17h716df56639478a85E', symObjAddr: 0x56D4, symBinAddr: 0x347A4, symSize: 0x34 }
  - { offset: 0xF2AD1, size: 0x8, addend: 0x0, symName: '__ZN4pyo311conversions3std6string82_$LT$impl$u20$pyo3..conversion..FromPyObject$u20$for$u20$alloc..string..String$GT$13extract_bound17h7a69692ba940640aE', symObjAddr: 0x5708, symBinAddr: 0x347D8, symSize: 0xB0 }
  - { offset: 0xF316C, size: 0x8, addend: 0x0, symName: __ZN8pyo3_ffi7cpython11tupleobject16PyTuple_GET_ITEM17h505df598e408e1a6E, symObjAddr: 0xA32C, symBinAddr: 0x361D0, symSize: 0x10C }
  - { offset: 0xF31CB, size: 0x8, addend: 0x0, symName: __ZN8pyo3_ffi7cpython11tupleobject16PyTuple_GET_SIZE17ha429ef715395d008E, symObjAddr: 0xA438, symBinAddr: 0x362DC, symSize: 0x24 }
  - { offset: 0xF31F7, size: 0x8, addend: 0x0, symName: __ZN8pyo3_ffi7cpython11tupleobject16PyTuple_SET_ITEM17hb0165b813331015eE, symObjAddr: 0xA45C, symBinAddr: 0x36300, symSize: 0x118 }
  - { offset: 0xF3922, size: 0x8, addend: 0x0, symName: '__ZN3std4hash6random11RandomState3new28_$u7b$$u7b$closure$u7d$$u7d$17h73a3108bfce0003eE', symObjAddr: 0xEBC, symBinAddr: 0x32250, symSize: 0x2C }
  - { offset: 0xF39DE, size: 0x8, addend: 0x0, symName: __ZN3std4hash6random11RandomState3new4KEYS27__rust_std_internal_init_fn17hc0895d960e85e036E, symObjAddr: 0xEE8, symBinAddr: 0x3227C, symSize: 0x24 }
  - { offset: 0xF3A00, size: 0x8, addend: 0x0, symName: '__ZN3std4hash6random11RandomState3new4KEYS29_$u7b$$u7b$constant$u7d$$u7d$28_$u7b$$u7b$closure$u7d$$u7d$17h30fcc667be213756E', symObjAddr: 0xF0C, symBinAddr: 0x322A0, symSize: 0x34 }
  - { offset: 0xF3A4D, size: 0x8, addend: 0x0, symName: '__ZN71_$LT$std..hash..random..DefaultHasher$u20$as$u20$core..hash..Hasher$GT$6finish17h78097a688578c1b1E', symObjAddr: 0x952C, symBinAddr: 0x35FD0, symSize: 0x20 }
  - { offset: 0xF3A95, size: 0x8, addend: 0x0, symName: '__ZN71_$LT$std..hash..random..DefaultHasher$u20$as$u20$core..hash..Hasher$GT$9write_str17h673cba2667a944ccE', symObjAddr: 0x954C, symBinAddr: 0x35FF0, symSize: 0x2C }
  - { offset: 0xF3AF5, size: 0x8, addend: 0x0, symName: '__ZN74_$LT$std..hash..random..RandomState$u20$as$u20$core..hash..BuildHasher$GT$12build_hasher17h96f711de739afdb0E', symObjAddr: 0x9C0C, symBinAddr: 0x3601C, symSize: 0xCC }
  - { offset: 0xF40C2, size: 0x8, addend: 0x0, symName: __ZN4pyo35impl_7pyclass16lazy_type_object19LazyTypeObjectInner11ensure_init17h0d1045ed8adc07beE, symObjAddr: 0x6528, symBinAddr: 0x34AC0, symSize: 0x84C }
  - { offset: 0xF4360, size: 0x8, addend: 0x0, symName: __ZN4pyo35impl_7pyclass16lazy_type_object19LazyTypeObjectInner15get_or_try_init17h5a27f2844edee157E, symObjAddr: 0x6EC8, symBinAddr: 0x35460, symSize: 0x98 }
  - { offset: 0xF43D3, size: 0x8, addend: 0x0, symName: __ZN4pyo35types5tuple21BorrowedTupleIterator3new17ha13d1dd9f0400442E, symObjAddr: 0x7B74, symBinAddr: 0x359F4, symSize: 0x48 }
  - { offset: 0xF4421, size: 0x8, addend: 0x0, symName: __ZN4pyo35types5tuple21BorrowedTupleIterator8get_item17h4ef086ac455e03c0E, symObjAddr: 0x7BBC, symBinAddr: 0x35A3C, symSize: 0x30 }
  - { offset: 0xF4773, size: 0x8, addend: 0x0, symName: __ZN5alloc6string6String4push17hb63c5a5fb8e72ec2E, symObjAddr: 0x8C90, symBinAddr: 0x35C58, symSize: 0x114 }
  - { offset: 0xF4B15, size: 0x8, addend: 0x0, symName: __ZN5alloc6string6String8push_str17h19b5fc50b52815d2E, symObjAddr: 0x8DC4, symBinAddr: 0x35D6C, symSize: 0xDC }
  - { offset: 0xF5083, size: 0x8, addend: 0x0, symName: '__ZN9hashbrown11rustc_entry62_$LT$impl$u20$hashbrown..map..HashMap$LT$K$C$V$C$S$C$A$GT$$GT$11rustc_entry28_$u7b$$u7b$closure$u7d$$u7d$17h66b37c061a8913ddE', symObjAddr: 0xA850, symBinAddr: 0x36418, symSize: 0x38 }
  - { offset: 0xF66FA, size: 0x8, addend: 0x0, symName: '__ZN4core3ptr8non_null16NonNull$LT$T$GT$13new_unchecked18precondition_check17h128cdefb579405b9E', symObjAddr: 0xB10, symBinAddr: 0x36920, symSize: 0x58 }
  - { offset: 0xF7E78, size: 0x8, addend: 0x0, symName: '__ZN4core3str6traits108_$LT$impl$u20$core..slice..index..SliceIndex$LT$str$GT$$u20$for$u20$core..ops..range..Range$LT$usize$GT$$GT$13get_unchecked18precondition_check17h3359278ab37e920bE', symObjAddr: 0xC70, symBinAddr: 0x369D0, symSize: 0x80 }
  - { offset: 0xF7EE0, size: 0x8, addend: 0x0, symName: '__ZN4core3str6traits54_$LT$impl$u20$core..cmp..PartialEq$u20$for$u20$str$GT$2eq17h6daa01102e431325E', symObjAddr: 0xDD8, symBinAddr: 0x36A50, symSize: 0x4C }
  - { offset: 0xF830E, size: 0x8, addend: 0x0, symName: __ZN4core4iter6traits8iterator8Iterator3map17hf1c93a0c92244c25E, symObjAddr: 0xEEC, symBinAddr: 0x36AD8, symSize: 0x50 }
  - { offset: 0xF837C, size: 0x8, addend: 0x0, symName: __ZN4core4iter6traits8iterator8Iterator8try_fold17hce1eb39c3a41efeaE, symObjAddr: 0xF3C, symBinAddr: 0x36B28, symSize: 0x154 }
  - { offset: 0xF8A6E, size: 0x8, addend: 0x0, symName: __ZN4core10intrinsics11rotate_left17h048eb35fb759b816E, symObjAddr: 0x9CC, symBinAddr: 0x36890, symSize: 0x54 }
  - { offset: 0xF8B4F, size: 0x8, addend: 0x0, symName: __ZN4core4hint21unreachable_unchecked18precondition_check17h3d9480e0c6d942bfE, symObjAddr: 0xEB0, symBinAddr: 0x36A9C, symSize: 0x3C }
  - { offset: 0xF990B, size: 0x8, addend: 0x0, symName: '__ZN4pyo33err5PyErr3new28_$u7b$$u7b$closure$u7d$$u7d$17h03bace2b0eff2665E', symObjAddr: 0x44E0, symBinAddr: 0x380B4, symSize: 0xD4 }
  - { offset: 0xF9964, size: 0x8, addend: 0x0, symName: '__ZN4pyo33err5PyErr3new28_$u7b$$u7b$closure$u7d$$u7d$17h047f85071bfced2aE', symObjAddr: 0x4674, symBinAddr: 0x38188, symSize: 0xC0 }
  - { offset: 0xF99BC, size: 0x8, addend: 0x0, symName: '__ZN4pyo33err5PyErr3new28_$u7b$$u7b$closure$u7d$$u7d$17h2080b449d5296d90E', symObjAddr: 0x47E4, symBinAddr: 0x38248, symSize: 0xC4 }
  - { offset: 0xF9A15, size: 0x8, addend: 0x0, symName: '__ZN4pyo33err5PyErr3new28_$u7b$$u7b$closure$u7d$$u7d$17h4429cb9251d81b6dE', symObjAddr: 0x4AFC, symBinAddr: 0x3830C, symSize: 0xC0 }
  - { offset: 0xF9A6D, size: 0x8, addend: 0x0, symName: '__ZN4pyo33err5PyErr3new28_$u7b$$u7b$closure$u7d$$u7d$17h5479695e2f172784E', symObjAddr: 0x4D3C, symBinAddr: 0x383CC, symSize: 0xD4 }
  - { offset: 0xF9AC6, size: 0x8, addend: 0x0, symName: '__ZN4pyo33err5PyErr3new28_$u7b$$u7b$closure$u7d$$u7d$17h700c9c6a0611b06eE', symObjAddr: 0x4EC0, symBinAddr: 0x384A0, symSize: 0xD4 }
  - { offset: 0xF9B1F, size: 0x8, addend: 0x0, symName: '__ZN4pyo33err5PyErr3new28_$u7b$$u7b$closure$u7d$$u7d$17h95af9a768fda7033E', symObjAddr: 0x54CC, symBinAddr: 0x38574, symSize: 0xD4 }
  - { offset: 0xF9B78, size: 0x8, addend: 0x0, symName: '__ZN4pyo33err5PyErr3new28_$u7b$$u7b$closure$u7d$$u7d$17hc933c0a7e891ee9aE', symObjAddr: 0x58A0, symBinAddr: 0x38648, symSize: 0xC0 }
  - { offset: 0xF9BD0, size: 0x8, addend: 0x0, symName: '__ZN4pyo33err5PyErr3new28_$u7b$$u7b$closure$u7d$$u7d$17hca5f873bf8e6819cE', symObjAddr: 0x5960, symBinAddr: 0x38708, symSize: 0xC0 }
  - { offset: 0xF9C28, size: 0x8, addend: 0x0, symName: '__ZN4pyo33err5PyErr3new28_$u7b$$u7b$closure$u7d$$u7d$17hcf2bc181141ebe9dE', symObjAddr: 0x5AE0, symBinAddr: 0x387C8, symSize: 0xD4 }
  - { offset: 0xF9C87, size: 0x8, addend: 0x0, symName: '__ZN4pyo33err5PyErr14new_type_bound28_$u7b$$u7b$closure$u7d$$u7d$17hc746571d1a4058e9E', symObjAddr: 0x26E8, symBinAddr: 0x37618, symSize: 0x50 }
  - { offset: 0xF9CCD, size: 0x8, addend: 0x0, symName: '__ZN4pyo33err5PyErr5_take28_$u7b$$u7b$closure$u7d$$u7d$17h0e377188d62398ccE', symObjAddr: 0x6154, symBinAddr: 0x38ACC, symSize: 0x7C }
  - { offset: 0xF9D06, size: 0x8, addend: 0x0, symName: '__ZN4pyo33err5PyErr5_take28_$u7b$$u7b$closure$u7d$$u7d$17h4fa82f1e00037f0aE', symObjAddr: 0x61D0, symBinAddr: 0x38B48, symSize: 0x64 }
  - { offset: 0xF9D51, size: 0x8, addend: 0x0, symName: '__ZN4pyo33err5PyErr9set_cause28_$u7b$$u7b$closure$u7d$$u7d$17hbdf27b4fd7233b08E', symObjAddr: 0x6674, symBinAddr: 0x38E94, symSize: 0x34 }
  - { offset: 0xF9E91, size: 0x8, addend: 0x0, symName: __ZN4pyo33err17error_on_minusone17h4851d7d5f5544889E, symObjAddr: 0x1520, symBinAddr: 0x36E84, symSize: 0xC0 }
  - { offset: 0xF9EE3, size: 0x8, addend: 0x0, symName: __ZN4pyo33err17error_on_minusone17h57be93840a0a73e4E, symObjAddr: 0x15E0, symBinAddr: 0x36F44, symSize: 0xC0 }
  - { offset: 0xF9F36, size: 0x8, addend: 0x0, symName: __ZN4pyo33err17panic_after_error17hb19b2dc008388eb8E, symObjAddr: 0x1760, symBinAddr: 0x37004, symSize: 0x30 }
  - { offset: 0xF9F76, size: 0x8, addend: 0x0, symName: '__ZN4pyo33err5impls101_$LT$impl$u20$core..convert..From$LT$alloc..ffi..c_str..NulError$GT$$u20$for$u20$pyo3..err..PyErr$GT$4from17hdf66675a22305050E', symObjAddr: 0x66F8, symBinAddr: 0x38EC8, symSize: 0x34 }
  - { offset: 0xF9FA9, size: 0x8, addend: 0x0, symName: '__ZN4pyo33err5impls101_$LT$impl$u20$core..convert..From$LT$core..str..error..Utf8Error$GT$$u20$for$u20$pyo3..err..PyErr$GT$4from17h4ef2010dad4d9a0dE', symObjAddr: 0x672C, symBinAddr: 0x38EFC, symSize: 0x28 }
  - { offset: 0xF9FDD, size: 0x8, addend: 0x0, symName: '__ZN53_$LT$pyo3..err..PyErr$u20$as$u20$core..fmt..Debug$GT$3fmt17hfa8ff4c2c527f815E', symObjAddr: 0x7FA0, symBinAddr: 0x390CC, symSize: 0x38 }
  - { offset: 0xFA01F, size: 0x8, addend: 0x0, symName: '__ZN53_$LT$pyo3..err..PyErr$u20$as$u20$core..fmt..Debug$GT$3fmt28_$u7b$$u7b$closure$u7d$$u7d$17hdc8d8e024663b620E', symObjAddr: 0x7FD8, symBinAddr: 0x39104, symSize: 0x16C }
  - { offset: 0xFA084, size: 0x8, addend: 0x0, symName: '__ZN88_$LT$pyo3..err..PyErr$u20$as$u20$core..convert..From$LT$pyo3..err..DowncastError$GT$$GT$4from17ha72581945d56548eE', symObjAddr: 0x96D4, symBinAddr: 0x3928C, symSize: 0xE8 }
  - { offset: 0xFA0D7, size: 0x8, addend: 0x0, symName: '__ZN92_$LT$pyo3..err..PyDowncastErrorArguments$u20$as$u20$pyo3..err..err_state..PyErrArguments$GT$9arguments17h18081862a9091056E', symObjAddr: 0x991C, symBinAddr: 0x393CC, symSize: 0x1AC }
  - { offset: 0xFA183, size: 0x8, addend: 0x0, symName: '__ZN92_$LT$pyo3..err..PyErr$u20$as$u20$core..convert..From$LT$pyo3..err..DowncastIntoError$GT$$GT$4from17hbee694501ab24fa2E', symObjAddr: 0x9AC8, symBinAddr: 0x39578, symSize: 0xF4 }
  - { offset: 0xFA634, size: 0x8, addend: 0x0, symName: __ZN4pyo35panic14PanicException15type_object_raw11TYPE_OBJECT17hb814749208bcd577E, symObjAddr: 0x4AFF0, symBinAddr: 0xE1268, symSize: 0x0 }
  - { offset: 0xFA641, size: 0x8, addend: 0x0, symName: '__ZN4pyo35panic14PanicException15type_object_raw28_$u7b$$u7b$closure$u7d$$u7d$17he24326850efeb132E', symObjAddr: 0x6CAC, symBinAddr: 0x38F50, symSize: 0xB4 }
  - { offset: 0xFA711, size: 0x8, addend: 0x0, symName: '__ZN77_$LT$pyo3..panic..PanicException$u20$as$u20$pyo3..type_object..PyTypeInfo$GT$15type_object_raw17h08a9a65ded5292ebE', symObjAddr: 0x9674, symBinAddr: 0x39270, symSize: 0x1C }
  - { offset: 0xFA921, size: 0x8, addend: 0x0, symName: __ZN4pyo311type_object10PyTypeInfo17type_object_bound17h1e6460ce13a4eca0E, symObjAddr: 0x1238, symBinAddr: 0x36C7C, symSize: 0x30 }
  - { offset: 0xFA96D, size: 0x8, addend: 0x0, symName: '__ZN4pyo36pycell104_$LT$impl$u20$core..convert..From$LT$pyo3..pycell..PyBorrowMutError$GT$$u20$for$u20$pyo3..err..PyErr$GT$4from17hda37a8bcfbb4ebb6E', symObjAddr: 0x76A4, symBinAddr: 0x39094, symSize: 0x38 }
  - { offset: 0xFB1B5, size: 0x8, addend: 0x0, symName: __ZN8pyo3_ffi10listobject12PyList_Check17h2651bad6f9f562b9E, symObjAddr: 0x97BC, symBinAddr: 0x39374, symSize: 0x30 }
  - { offset: 0xFB1E7, size: 0x8, addend: 0x0, symName: __ZN8pyo3_ffi10modsupport15PyModule_Create17hc4de692d80860c71E, symObjAddr: 0x97EC, symBinAddr: 0x393A4, symSize: 0x28 }
  - { offset: 0xFBAA5, size: 0x8, addend: 0x0, symName: __ZN3std3sys12thread_local6native5eager7destroy17hf59a18d1d30946a4E, symObjAddr: 0x7FC, symBinAddr: 0x36820, symSize: 0x30 }
  - { offset: 0xFBADB, size: 0x8, addend: 0x0, symName: '__ZN3std3sys12thread_local6native5eager7destroy28_$u7b$$u7b$closure$u7d$$u7d$17h2bfb55b012ab4bd0E', symObjAddr: 0x82C, symBinAddr: 0x36850, symSize: 0x40 }
  - { offset: 0xFBB8E, size: 0x8, addend: 0x0, symName: '__ZN105_$LT$std..collections..hash..map..Iter$LT$K$C$V$GT$$u20$as$u20$core..iter..traits..iterator..Iterator$GT$4next17h1de215ed2999853cE', symObjAddr: 0x248, symBinAddr: 0x36450, symSize: 0x24 }
  - { offset: 0xFBBCE, size: 0x8, addend: 0x0, symName: '__ZN105_$LT$std..collections..hash..map..Iter$LT$K$C$V$GT$$u20$as$u20$core..iter..traits..iterator..Iterator$GT$9size_hint17hd20da633a3d9896bE', symObjAddr: 0x26C, symBinAddr: 0x36474, symSize: 0x2C }
  - { offset: 0xFC743, size: 0x8, addend: 0x0, symName: '__ZN3std11collections4hash3map18Entry$LT$K$C$V$GT$10or_default17h75c5834f1aad67fdE', symObjAddr: 0x428, symBinAddr: 0x364A0, symSize: 0x190 }
  - { offset: 0xFC9A1, size: 0x8, addend: 0x0, symName: '__ZN3std11collections4hash3map20HashMap$LT$K$C$V$GT$3new17hfe4a83d6a2d7baa4E', symObjAddr: 0x5B8, symBinAddr: 0x36630, symSize: 0x7C }
  - { offset: 0xFCABB, size: 0x8, addend: 0x0, symName: '__ZN3std11collections4hash3map28HashMap$LT$K$C$V$C$S$C$A$GT$3len17h5e7dc73f637c4f5fE', symObjAddr: 0x634, symBinAddr: 0x366AC, symSize: 0x18 }
  - { offset: 0xFCB65, size: 0x8, addend: 0x0, symName: '__ZN3std11collections4hash3map28HashMap$LT$K$C$V$C$S$C$A$GT$4iter17h82c60a740149624dE', symObjAddr: 0x64C, symBinAddr: 0x366C4, symSize: 0x44 }
  - { offset: 0xFCBB9, size: 0x8, addend: 0x0, symName: '__ZN3std11collections4hash3map28HashMap$LT$K$C$V$C$S$C$A$GT$5entry17h6e3bb7f24f460a54E', symObjAddr: 0x690, symBinAddr: 0x36708, symSize: 0xA8 }
  - { offset: 0xFCCE7, size: 0x8, addend: 0x0, symName: '__ZN3std3sys12thread_local6native5eager16Storage$LT$T$GT$10initialize17h4f15af02b2fcae9bE', symObjAddr: 0x738, symBinAddr: 0x8A8AC, symSize: 0x54 }
  - { offset: 0xFCD9D, size: 0x8, addend: 0x0, symName: '__ZN3std3sys12thread_local6native5eager16Storage$LT$T$GT$3get17hf8431177537221c2E', symObjAddr: 0x78C, symBinAddr: 0x367B0, symSize: 0x70 }
  - { offset: 0xFCED5, size: 0x8, addend: 0x0, symName: '__ZN4core3ptr8non_null16NonNull$LT$T$GT$13new_unchecked17h166e0e54d1076f03E', symObjAddr: 0xAD4, symBinAddr: 0x368E4, symSize: 0x3C }
  - { offset: 0xFCF1B, size: 0x8, addend: 0x0, symName: '__ZN4core3ptr8non_null16NonNull$LT$T$GT$3new17h36e4e940067d8472E', symObjAddr: 0xBC0, symBinAddr: 0x36978, symSize: 0x58 }
  - { offset: 0xFD003, size: 0x8, addend: 0x0, symName: __ZN4pyo33err13DowncastError17new_from_borrowed17h73a03c76cbf83f56E, symObjAddr: 0x1268, symBinAddr: 0x36CAC, symSize: 0x68 }
  - { offset: 0xFD049, size: 0x8, addend: 0x0, symName: __ZN4pyo33err13DowncastError3new17hd142443fb6a6628cE, symObjAddr: 0x12D0, symBinAddr: 0x36D14, symSize: 0xB0 }
  - { offset: 0xFD08F, size: 0x8, addend: 0x0, symName: __ZN4pyo33err17DowncastIntoError10into_inner17h515d39d8eb7fe408E, symObjAddr: 0x1460, symBinAddr: 0x36DC4, symSize: 0x28 }
  - { offset: 0xFD0B2, size: 0x8, addend: 0x0, symName: __ZN4pyo33err17DowncastIntoError3new17h9806ab3b2b92a75cE, symObjAddr: 0x1488, symBinAddr: 0x36DEC, symSize: 0x98 }
  - { offset: 0xFD107, size: 0x8, addend: 0x0, symName: __ZN4pyo33err5PyErr10from_state17hc505847d4bf470bdE, symObjAddr: 0x197C, symBinAddr: 0x37034, symSize: 0x44 }
  - { offset: 0xFD148, size: 0x8, addend: 0x0, symName: __ZN4pyo33err5PyErr10into_value17h1a3f0457a58d2f19E, symObjAddr: 0x19F4, symBinAddr: 0x37078, symSize: 0x128 }
  - { offset: 0xFD1D6, size: 0x8, addend: 0x0, symName: __ZN4pyo33err5PyErr10normalized17h36d5a59eec227bb9E, symObjAddr: 0x1B1C, symBinAddr: 0x371A0, symSize: 0xCC }
  - { offset: 0xFD237, size: 0x8, addend: 0x0, symName: __ZN4pyo33err5PyErr11value_bound17hd6b64eca1aa5ad5bE, symObjAddr: 0x1D44, symBinAddr: 0x3726C, symSize: 0x28 }
  - { offset: 0xFD275, size: 0x8, addend: 0x0, symName: __ZN4pyo33err5PyErr14get_type_bound17h2bfa32de061dfa97E, symObjAddr: 0x1E3C, symBinAddr: 0x37294, symSize: 0x28 }
  - { offset: 0xFD2B3, size: 0x8, addend: 0x0, symName: __ZN4pyo33err5PyErr14is_instance_of17hda40bb974435a974E, symObjAddr: 0x2308, symBinAddr: 0x372BC, symSize: 0x84 }
  - { offset: 0xFD307, size: 0x8, addend: 0x0, symName: __ZN4pyo33err5PyErr14new_type_bound17hf3b99bbddb6e9c1eE, symObjAddr: 0x2410, symBinAddr: 0x37340, symSize: 0x2D8 }
  - { offset: 0xFD4C0, size: 0x8, addend: 0x0, symName: __ZN4pyo33err5PyErr15make_normalized17ha51c2b9cdb951bd7E, symObjAddr: 0x2738, symBinAddr: 0x8A900, symSize: 0x22C }
  - { offset: 0xFD548, size: 0x8, addend: 0x0, symName: __ZN4pyo33err5PyErr15traceback_bound17h76e1cbb91c17597cE, symObjAddr: 0x2964, symBinAddr: 0x37668, symSize: 0x28 }
  - { offset: 0xFD586, size: 0x8, addend: 0x0, symName: __ZN4pyo33err5PyErr16from_value_bound17hac846dc5ee325903E, symObjAddr: 0x298C, symBinAddr: 0x37690, symSize: 0x1B0 }
  - { offset: 0xFD62A, size: 0x8, addend: 0x0, symName: __ZN4pyo33err5PyErr17is_instance_bound17h87b2865d3809c563E, symObjAddr: 0x2B3C, symBinAddr: 0x37840, symSize: 0xA0 }
  - { offset: 0xFD69A, size: 0x8, addend: 0x0, symName: __ZN4pyo33err5PyErr22print_panic_and_unwind17h21aeefc55eeea5efE, symObjAddr: 0x302C, symBinAddr: 0x378E0, symSize: 0x1A0 }
  - { offset: 0xFD707, size: 0x8, addend: 0x0, symName: __ZN4pyo33err5PyErr22write_unraisable_bound17hcb71970a8ab0f107E, symObjAddr: 0x31CC, symBinAddr: 0x37A80, symSize: 0x4C }
  - { offset: 0xFD762, size: 0x8, addend: 0x0, symName: __ZN4pyo33err5PyErr3new17h075474d8d85b87fbE, symObjAddr: 0x3254, symBinAddr: 0x37ACC, symSize: 0x9C }
  - { offset: 0xFD7C1, size: 0x8, addend: 0x0, symName: __ZN4pyo33err5PyErr3new17h13c62bbe3bd4c42aE, symObjAddr: 0x32F0, symBinAddr: 0x37B68, symSize: 0x98 }
  - { offset: 0xFD81F, size: 0x8, addend: 0x0, symName: __ZN4pyo33err5PyErr3new17h819c9c803b5df196E, symObjAddr: 0x3A38, symBinAddr: 0x37C00, symSize: 0x98 }
  - { offset: 0xFD87D, size: 0x8, addend: 0x0, symName: __ZN4pyo33err5PyErr3new17h856ed4312e19e02cE, symObjAddr: 0x3AD0, symBinAddr: 0x37C98, symSize: 0x9C }
  - { offset: 0xFD8DC, size: 0x8, addend: 0x0, symName: __ZN4pyo33err5PyErr3new17h9c840438b657d362E, symObjAddr: 0x3D0C, symBinAddr: 0x37D34, symSize: 0x9C }
  - { offset: 0xFD93B, size: 0x8, addend: 0x0, symName: __ZN4pyo33err5PyErr3new17h9d7c6b128aa2cf0aE, symObjAddr: 0x3E8C, symBinAddr: 0x37DD0, symSize: 0x7C }
  - { offset: 0xFD99A, size: 0x8, addend: 0x0, symName: __ZN4pyo33err5PyErr3new17ha66c648373a7b9ddE, symObjAddr: 0x3F08, symBinAddr: 0x37E4C, symSize: 0x9C }
  - { offset: 0xFD9F9, size: 0x8, addend: 0x0, symName: __ZN4pyo33err5PyErr3new17hd6ce05b202c7666fE, symObjAddr: 0x418C, symBinAddr: 0x37EE8, symSize: 0x9C }
  - { offset: 0xFDA58, size: 0x8, addend: 0x0, symName: __ZN4pyo33err5PyErr3new17hdbde30ce775a0ceaE, symObjAddr: 0x4228, symBinAddr: 0x37F84, symSize: 0x98 }
  - { offset: 0xFDAB6, size: 0x8, addend: 0x0, symName: __ZN4pyo33err5PyErr3new17he1bd6277994759b5E, symObjAddr: 0x4328, symBinAddr: 0x3801C, symSize: 0x98 }
  - { offset: 0xFDB07, size: 0x8, addend: 0x0, symName: __ZN4pyo33err5PyErr4take17h3a50ddfa8484d60eE, symObjAddr: 0x5EC0, symBinAddr: 0x3889C, symSize: 0x1C }
  - { offset: 0xFDB36, size: 0x8, addend: 0x0, symName: __ZN4pyo33err5PyErr5_take17h0b73df659906e69aE, symObjAddr: 0x5F40, symBinAddr: 0x388B8, symSize: 0x214 }
  - { offset: 0xFDC0F, size: 0x8, addend: 0x0, symName: __ZN4pyo33err5PyErr5cause17h53cdae66b0cc4139E, symObjAddr: 0x6234, symBinAddr: 0x38BAC, symSize: 0x44 }
  - { offset: 0xFDC6B, size: 0x8, addend: 0x0, symName: __ZN4pyo33err5PyErr5fetch17haff9834e491eca26E, symObjAddr: 0x6278, symBinAddr: 0x38BF0, symSize: 0x5C }
  - { offset: 0xFDC9A, size: 0x8, addend: 0x0, symName: __ZN4pyo33err5PyErr5print17h13d3c40819fae317E, symObjAddr: 0x62D4, symBinAddr: 0x38C4C, symSize: 0x3C }
  - { offset: 0xFDD01, size: 0x8, addend: 0x0, symName: __ZN4pyo33err5PyErr7restore17h4f10e101394997faE, symObjAddr: 0x6364, symBinAddr: 0x38C88, symSize: 0x68 }
  - { offset: 0xFDD6B, size: 0x8, addend: 0x0, symName: __ZN4pyo33err5PyErr9clone_ref17hb13fd2866453baa4E, symObjAddr: 0x64D0, symBinAddr: 0x38CF0, symSize: 0x44 }
  - { offset: 0xFDDA9, size: 0x8, addend: 0x0, symName: __ZN4pyo33err5PyErr9set_cause17h8e38185a7d209c68E, symObjAddr: 0x6514, symBinAddr: 0x38D34, symSize: 0x160 }
  - { offset: 0xFDE45, size: 0x8, addend: 0x0, symName: __ZN4pyo35panic14PanicException15type_object_raw17h5127e3ae59b55a5fE, symObjAddr: 0x6C80, symBinAddr: 0x38F24, symSize: 0x2C }
  - { offset: 0xFDEA2, size: 0x8, addend: 0x0, symName: __ZN4pyo35panic14PanicException18from_panic_payload17hc47f098fd4b07baaE, symObjAddr: 0x6D60, symBinAddr: 0x8AB2C, symSize: 0x144 }
  - { offset: 0xFDEEE, size: 0x8, addend: 0x0, symName: __ZN4pyo35panic14PanicException7new_err17h522e03f13f4a1275E, symObjAddr: 0x6EA4, symBinAddr: 0x39004, symSize: 0x34 }
  - { offset: 0xFDF1A, size: 0x8, addend: 0x0, symName: __ZN4pyo35panic14PanicException7new_err17hb38ead85e181d543E, symObjAddr: 0x6ED8, symBinAddr: 0x39038, symSize: 0x28 }
  - { offset: 0xFDF45, size: 0x8, addend: 0x0, symName: __ZN4pyo35types10typeobject6PyType22from_borrowed_type_ptr17h6cb0cfe2c3b0b704E, symObjAddr: 0x6F70, symBinAddr: 0x39060, symSize: 0x34 }
  - { offset: 0xFE137, size: 0x8, addend: 0x0, symName: '__ZN11parking_lot4once4Once15call_once_force28_$u7b$$u7b$closure$u7d$$u7d$17h06f16dc3a6696f49E', symObjAddr: 0xFF4, symBinAddr: 0x39E1C, symSize: 0x3C }
  - { offset: 0xFE179, size: 0x8, addend: 0x0, symName: '__ZN11parking_lot4once4Once15call_once_force28_$u7b$$u7b$closure$u7d$$u7d$17h856b33bd4b6a6394E', symObjAddr: 0x1030, symBinAddr: 0x39E58, symSize: 0x3C }
  - { offset: 0xFF17A, size: 0x8, addend: 0x0, symName: '__ZN4core3ptr7mut_ptr31_$LT$impl$u20$$BP$mut$u20$T$GT$6offset18precondition_check17hc5c47b44d31d0d31E', symObjAddr: 0x14C4, symBinAddr: 0x39EC4, symSize: 0xC4 }
  - { offset: 0xFF36D, size: 0x8, addend: 0x0, symName: '__ZN4core3ptr9const_ptr33_$LT$impl$u20$$BP$const$u20$T$GT$20offset_from_unsigned18precondition_check17hd5dfe0655f76439dE', symObjAddr: 0x1588, symBinAddr: 0x39F88, symSize: 0x60 }
  - { offset: 0xFF456, size: 0x8, addend: 0x0, symName: '__ZN4core3ptr9const_ptr33_$LT$impl$u20$$BP$const$u20$T$GT$6offset18precondition_check17h0e5d651a892d05dfE', symObjAddr: 0x15E8, symBinAddr: 0x39FE8, symSize: 0xC4 }
  - { offset: 0xFF64F, size: 0x8, addend: 0x0, symName: '__ZN4core3ptr9const_ptr33_$LT$impl$u20$$BP$const$u20$T$GT$7is_null17h4399df12b02ecf59E', symObjAddr: 0x16C4, symBinAddr: 0x3A0AC, symSize: 0x18 }
  - { offset: 0xFF9FC, size: 0x8, addend: 0x0, symName: '__ZN106_$LT$core..iter..adapters..GenericShunt$LT$I$C$R$GT$$u20$as$u20$core..iter..traits..iterator..Iterator$GT$4next17h545c4032fd35487eE', symObjAddr: 0x64, symBinAddr: 0x3966C, symSize: 0x98 }
  - { offset: 0xFFA8E, size: 0x8, addend: 0x0, symName: '__ZN106_$LT$core..iter..adapters..GenericShunt$LT$I$C$R$GT$$u20$as$u20$core..iter..traits..iterator..Iterator$GT$8try_fold17h702d589d1983089fE', symObjAddr: 0xFC, symBinAddr: 0x39704, symSize: 0x8C }
  - { offset: 0xFFB3F, size: 0x8, addend: 0x0, symName: '__ZN106_$LT$core..iter..adapters..GenericShunt$LT$I$C$R$GT$$u20$as$u20$core..iter..traits..iterator..Iterator$GT$8try_fold28_$u7b$$u7b$closure$u7d$$u7d$17h595749c41c361bc4E', symObjAddr: 0x2F0, symBinAddr: 0x39790, symSize: 0x1F4 }
  - { offset: 0xFFC3B, size: 0x8, addend: 0x0, symName: '__ZN106_$LT$core..iter..adapters..GenericShunt$LT$I$C$R$GT$$u20$as$u20$core..iter..traits..iterator..Iterator$GT$9size_hint17h73cae7ab82f639c0E', symObjAddr: 0x584, symBinAddr: 0x39984, symSize: 0x9C }
  - { offset: 0xFFD20, size: 0x8, addend: 0x0, symName: __ZN4core4iter8adapters11try_process17ha00a5158e2e1640fE, symObjAddr: 0x1700, symBinAddr: 0x3A0C4, symSize: 0x188 }
  - { offset: 0xFFE68, size: 0x8, addend: 0x0, symName: '__ZN63_$LT$I$u20$as$u20$core..iter..traits..collect..IntoIterator$GT$9into_iter17h2d4394a8f1d16d3cE', symObjAddr: 0x4B40, symBinAddr: 0x3A834, symSize: 0x30 }
  - { offset: 0x10096D, size: 0x8, addend: 0x0, symName: '__ZN42_$LT$$RF$T$u20$as$u20$core..fmt..Debug$GT$3fmt17h314be1021cbfb160E', symObjAddr: 0x1320, symBinAddr: 0x39E94, symSize: 0x30 }
  - { offset: 0x100A73, size: 0x8, addend: 0x0, symName: '__ZN50_$LT$$BP$mut$u20$T$u20$as$u20$core..fmt..Debug$GT$3fmt17h45a58e86fdb425cfE', symObjAddr: 0x3700, symBinAddr: 0x3A6E0, symSize: 0x38 }
  - { offset: 0x100AE5, size: 0x8, addend: 0x0, symName: '__ZN54_$LT$$BP$const$u20$T$u20$as$u20$core..fmt..Pointer$GT$3fmt17h6a128391485c36d3E', symObjAddr: 0x3810, symBinAddr: 0x3A718, symSize: 0xCC }
  - { offset: 0x100B79, size: 0x8, addend: 0x0, symName: __ZN4core5slice3raw14from_raw_parts17he55ce15bf04b3221E, symObjAddr: 0x1AD0, symBinAddr: 0x3A24C, symSize: 0x58 }
  - { offset: 0x100BC1, size: 0x8, addend: 0x0, symName: __ZN4core5slice3raw14from_raw_parts18precondition_check17hf250423d05c2f8d3E, symObjAddr: 0x1B28, symBinAddr: 0x3A2A4, symSize: 0x10C }
  - { offset: 0x100CDD, size: 0x8, addend: 0x0, symName: __ZN4core5slice3raw18from_raw_parts_mut18precondition_check17h3e6197dac6cb1ecdE, symObjAddr: 0x1C8C, symBinAddr: 0x3A3B0, symSize: 0x10C }
  - { offset: 0x101339, size: 0x8, addend: 0x0, symName: __ZN4pyo35types6module7__all__8INTERNED17h5d45edbf8175cbd3E, symObjAddr: 0x8B18, symBinAddr: 0xE0590, symSize: 0x0 }
  - { offset: 0x101351, size: 0x8, addend: 0x0, symName: '__ZN115_$LT$pyo3..instance..Bound$LT$pyo3..types..module..PyModule$GT$$u20$as$u20$pyo3..types..module..PyModuleMethods$GT$3add5inner17h099021f501a9381bE', symObjAddr: 0xBF8, symBinAddr: 0x39A20, symSize: 0x264 }
  - { offset: 0x1013DD, size: 0x8, addend: 0x0, symName: __ZN4pyo35types6module7__all__17h463c22ebc78de10cE, symObjAddr: 0x272C, symBinAddr: 0x3A6BC, symSize: 0x24 }
  - { offset: 0x101718, size: 0x8, addend: 0x0, symName: __ZN4pyo35types4dict8dict_len17hd5c1d6f381db0651E, symObjAddr: 0x23AC, symBinAddr: 0x3A50C, symSize: 0x80 }
  - { offset: 0x101787, size: 0x8, addend: 0x0, symName: '__ZN4pyo35types5float64_$LT$impl$u20$pyo3..conversion..FromPyObject$u20$for$u20$f64$GT$13extract_bound17ha3036fe30c509881E', symObjAddr: 0x259C, symBinAddr: 0x3A58C, symSize: 0x130 }
  - { offset: 0x101844, size: 0x8, addend: 0x0, symName: '__ZN77_$LT$pyo3..types..float..PyFloat$u20$as$u20$pyo3..type_object..PyTypeInfo$GT$15type_object_raw17h32c6d10310df7194E', symObjAddr: 0x6EF0, symBinAddr: 0x3A864, symSize: 0x24 }
  - { offset: 0x101880, size: 0x8, addend: 0x0, symName: '__ZN77_$LT$pyo3..types..float..PyFloat$u20$as$u20$pyo3..type_object..PyTypeInfo$GT$15type_object_raw28_$u7b$$u7b$closure$u7d$$u7d$17h1c8e4be9ba976413E', symObjAddr: 0x6F14, symBinAddr: 0x3A888, symSize: 0x18 }
  - { offset: 0x101AC2, size: 0x8, addend: 0x0, symName: __ZN4pyo311type_object10PyTypeInfo22is_exact_type_of_bound17h059327800370cf45E, symObjAddr: 0x1E68, symBinAddr: 0x3A4BC, symSize: 0x50 }
  - { offset: 0x101FC2, size: 0x8, addend: 0x0, symName: '__ZN5alloc3str56_$LT$impl$u20$alloc..borrow..ToOwned$u20$for$u20$str$GT$8to_owned17h02063c7952c35fc2E', symObjAddr: 0x49A4, symBinAddr: 0x3A7E4, symSize: 0x50 }
  - { offset: 0x1028D6, size: 0x8, addend: 0x0, symName: __ZN8pyo3_ffi11floatobject13PyFloat_Check17h307503e0db1d50d2E, symObjAddr: 0x6F70, symBinAddr: 0x3A8A0, symSize: 0x2C }
  - { offset: 0x102908, size: 0x8, addend: 0x0, symName: __ZN8pyo3_ffi13unicodeobject15PyUnicode_Check17h9675f6ac1a9c0e45E, symObjAddr: 0x6F9C, symBinAddr: 0x3A8CC, symSize: 0x30 }
  - { offset: 0x10319C, size: 0x8, addend: 0x0, symName: __ZN11parking_lot4once4Once15call_once_force17h571ec192128b57dfE, symObjAddr: 0xE5C, symBinAddr: 0x39C84, symSize: 0xCC }
  - { offset: 0x1031F2, size: 0x8, addend: 0x0, symName: __ZN11parking_lot4once4Once15call_once_force17h980cb11eb0cdc611E, symObjAddr: 0xF28, symBinAddr: 0x39D50, symSize: 0xCC }
  - { offset: 0x103506, size: 0x8, addend: 0x0, symName: '__ZN102_$LT$$RF$mut$u20$alloc..vec..Vec$LT$T$C$A$GT$$u20$as$u20$core..iter..traits..collect..IntoIterator$GT$9into_iter17h8efba5ba0335a8caE', symObjAddr: 0x0, symBinAddr: 0x3A8FC, symSize: 0x60 }
  - { offset: 0x104102, size: 0x8, addend: 0x0, symName: '__ZN4core3ptr7mut_ptr31_$LT$impl$u20$$BP$mut$u20$T$GT$7is_null17h7db6645b0dc75b59E', symObjAddr: 0xD00, symBinAddr: 0x3B454, symSize: 0x18 }
  - { offset: 0x10510D, size: 0x8, addend: 0x0, symName: '__ZN4core5slice4iter87_$LT$impl$u20$core..iter..traits..collect..IntoIterator$u20$for$u20$$RF$$u5b$T$u5d$$GT$9into_iter17h185228f3d5172ceaE', symObjAddr: 0xDFC, symBinAddr: 0x3B4E8, symSize: 0x50 }
  - { offset: 0x106D6C, size: 0x8, addend: 0x0, symName: __ZN4core4char7convert18from_u32_unchecked18precondition_check17h15b460d8868dc954E, symObjAddr: 0xD18, symBinAddr: 0x3B46C, symSize: 0x7C }
  - { offset: 0x106DF9, size: 0x8, addend: 0x0, symName: '__ZN4core5tuple66_$LT$impl$u20$core..default..Default$u20$for$u20$$LP$U$C$T$RP$$GT$7default17h6ef71fc284c09dbfE', symObjAddr: 0xE4C, symBinAddr: 0x3B538, symSize: 0x8C }
  - { offset: 0x106E5C, size: 0x8, addend: 0x0, symName: __ZN4core9core_arch7aarch644neon9generated7vld1_u817hbf3cd4cd9805336dE, symObjAddr: 0xED8, symBinAddr: 0x3B5C4, symSize: 0x34 }
  - { offset: 0x106E8A, size: 0x8, addend: 0x0, symName: __ZN4core9core_arch7aarch644neon9generated7vst1_u817h383c7f991b7d5a5fE, symObjAddr: 0xF0C, symBinAddr: 0x3B5F8, symSize: 0x40 }
  - { offset: 0x106EC4, size: 0x8, addend: 0x0, symName: __ZN4core9core_arch7aarch644neon9generated8vcgez_s817h25001eaf2e3f7298E, symObjAddr: 0xF4C, symBinAddr: 0x3B638, symSize: 0x68 }
  - { offset: 0x106F66, size: 0x8, addend: 0x0, symName: __ZN4core9core_arch7aarch644neon9generated8vcltz_s817hf2cf2d3595324cceE, symObjAddr: 0xFB4, symBinAddr: 0x3B6A0, symSize: 0x68 }
  - { offset: 0x1073D5, size: 0x8, addend: 0x0, symName: __ZN8pyo3_ffi6object12PyType_Check17hea080c54f353ecb0E, symObjAddr: 0x4690, symBinAddr: 0x3D674, symSize: 0x30 }
  - { offset: 0x107403, size: 0x8, addend: 0x0, symName: __ZN8pyo3_ffi6object17PyType_HasFeature17hce924e85950d954dE, symObjAddr: 0x46C0, symBinAddr: 0x3D6A4, symSize: 0x88 }
  - { offset: 0x107440, size: 0x8, addend: 0x0, symName: __ZN8pyo3_ffi6object18PyObject_TypeCheck17h34d0097a59984779E, symObjAddr: 0x4754, symBinAddr: 0x3D72C, symSize: 0x74 }
  - { offset: 0x10747D, size: 0x8, addend: 0x0, symName: __ZN8pyo3_ffi6object19PyType_FastSubclass17h2b777363598e8fb8E, symObjAddr: 0x47C8, symBinAddr: 0x3D7A0, symSize: 0x28 }
  - { offset: 0x1074BA, size: 0x8, addend: 0x0, symName: __ZN8pyo3_ffi6object7Py_None17h36eb369583028f2fE, symObjAddr: 0x47F0, symBinAddr: 0x3D7C8, symSize: 0xC }
  - { offset: 0x1074D8, size: 0x8, addend: 0x0, symName: __ZN8pyo3_ffi6object7Py_SIZE17h27fb763114f2e57fE, symObjAddr: 0x47FC, symBinAddr: 0x3D7D4, symSize: 0x1D4 }
  - { offset: 0x107586, size: 0x8, addend: 0x0, symName: __ZN8pyo3_ffi6object7Py_TYPE17h1b00f04f823647eeE, symObjAddr: 0x49D0, symBinAddr: 0x3D9A8, symSize: 0x74 }
  - { offset: 0x108AE1, size: 0x8, addend: 0x0, symName: '__ZN102_$LT$$RF$mut$u20$alloc..vec..Vec$LT$T$C$A$GT$$u20$as$u20$core..iter..traits..collect..IntoIterator$GT$9into_iter17h8efba5ba0335a8caE', symObjAddr: 0x0, symBinAddr: 0x3A8FC, symSize: 0x60 }
  - { offset: 0x108EF6, size: 0x8, addend: 0x0, symName: '__ZN107_$LT$alloc..vec..Vec$LT$T$C$A$GT$..retain_mut..PanicGuard$LT$T$C$A$GT$$u20$as$u20$core..ops..drop..Drop$GT$4drop17h9fa52f0fef7b47c3E', symObjAddr: 0x60, symBinAddr: 0x8AC70, symSize: 0x180 }
  - { offset: 0x109162, size: 0x8, addend: 0x0, symName: '__ZN5alloc3vec16Vec$LT$T$C$A$GT$6retain28_$u7b$$u7b$closure$u7d$$u7d$17h5acef9dc28c22529E', symObjAddr: 0x2994, symBinAddr: 0x3C7E0, symSize: 0x30 }
  - { offset: 0x1091C3, size: 0x8, addend: 0x0, symName: '__ZN5alloc3vec16Vec$LT$T$C$A$GT$7set_len18precondition_check17h978dfa3655986522E', symObjAddr: 0x2B14, symBinAddr: 0x3C960, symSize: 0x60 }
  - { offset: 0x109461, size: 0x8, addend: 0x0, symName: '__ZN111_$LT$alloc..vec..Vec$LT$T$GT$$u20$as$u20$alloc..vec..spec_from_iter_nested..SpecFromIterNested$LT$T$C$I$GT$$GT$9from_iter17h897e055846053928E', symObjAddr: 0x1E0, symBinAddr: 0x3A95C, symSize: 0x24C }
  - { offset: 0x1096C0, size: 0x8, addend: 0x0, symName: '__ZN111_$LT$alloc..vec..Vec$LT$T$GT$$u20$as$u20$alloc..vec..spec_from_iter_nested..SpecFromIterNested$LT$T$C$I$GT$$GT$9from_iter17hb6f4ceaa4507f4a8E', symObjAddr: 0x42C, symBinAddr: 0x3ABA8, symSize: 0x24C }
  - { offset: 0x10991F, size: 0x8, addend: 0x0, symName: '__ZN111_$LT$alloc..vec..Vec$LT$T$GT$$u20$as$u20$alloc..vec..spec_from_iter_nested..SpecFromIterNested$LT$T$C$I$GT$$GT$9from_iter17hf00bb308d5ed3e98E', symObjAddr: 0x678, symBinAddr: 0x3ADF4, symSize: 0x244 }
  - { offset: 0x10A62C, size: 0x8, addend: 0x0, symName: '__ZN72_$LT$alloc..vec..Vec$LT$T$C$A$GT$$u20$as$u20$core..ops..deref..Deref$GT$5deref17h53dc3f6c282f8aaeE', symObjAddr: 0x42D4, symBinAddr: 0x3D528, symSize: 0x20 }
  - { offset: 0x10A6E9, size: 0x8, addend: 0x0, symName: '__ZN72_$LT$alloc..vec..Vec$LT$T$C$A$GT$$u20$as$u20$core..ops..deref..Deref$GT$5deref17hd685316d67dbf76cE', symObjAddr: 0x42F4, symBinAddr: 0x3D548, symSize: 0x20 }
  - { offset: 0x10A7AC, size: 0x8, addend: 0x0, symName: '__ZN67_$LT$alloc..vec..Vec$LT$T$GT$$u20$as$u20$core..default..Default$GT$7default17h4bc67fed2ef7308fE', symObjAddr: 0x4074, symBinAddr: 0x3D348, symSize: 0x14 }
  - { offset: 0x10A7CE, size: 0x8, addend: 0x0, symName: '__ZN67_$LT$alloc..vec..Vec$LT$T$GT$$u20$as$u20$core..default..Default$GT$7default17h4bc67fed2ef7308fE', symObjAddr: 0x4074, symBinAddr: 0x3D348, symSize: 0x14 }
  - { offset: 0x10A7E9, size: 0x8, addend: 0x0, symName: '__ZN67_$LT$alloc..vec..Vec$LT$T$GT$$u20$as$u20$core..default..Default$GT$7default17h81968a0033f7300cE', symObjAddr: 0x4088, symBinAddr: 0x3D35C, symSize: 0x14 }
  - { offset: 0x10A80B, size: 0x8, addend: 0x0, symName: '__ZN67_$LT$alloc..vec..Vec$LT$T$GT$$u20$as$u20$core..default..Default$GT$7default17h81968a0033f7300cE', symObjAddr: 0x4088, symBinAddr: 0x3D35C, symSize: 0x14 }
  - { offset: 0x10A826, size: 0x8, addend: 0x0, symName: '__ZN67_$LT$alloc..vec..Vec$LT$T$GT$$u20$as$u20$core..default..Default$GT$7default17h841b96a607d44c4bE', symObjAddr: 0x409C, symBinAddr: 0x3D370, symSize: 0x14 }
  - { offset: 0x10A848, size: 0x8, addend: 0x0, symName: '__ZN67_$LT$alloc..vec..Vec$LT$T$GT$$u20$as$u20$core..default..Default$GT$7default17h841b96a607d44c4bE', symObjAddr: 0x409C, symBinAddr: 0x3D370, symSize: 0x14 }
  - { offset: 0x10A869, size: 0x8, addend: 0x0, symName: '__ZN70_$LT$alloc..vec..Vec$LT$T$C$A$GT$$u20$as$u20$core..ops..drop..Drop$GT$4drop17h2a2bc9c1340f1a81E', symObjAddr: 0x40C4, symBinAddr: 0x3D384, symSize: 0x24 }
  - { offset: 0x10A919, size: 0x8, addend: 0x0, symName: '__ZN70_$LT$alloc..vec..Vec$LT$T$C$A$GT$$u20$as$u20$core..ops..drop..Drop$GT$4drop17h623b04a126316cdbE', symObjAddr: 0x40E8, symBinAddr: 0x3D3A8, symSize: 0x38 }
  - { offset: 0x10A9C9, size: 0x8, addend: 0x0, symName: '__ZN70_$LT$alloc..vec..Vec$LT$T$C$A$GT$$u20$as$u20$core..ops..drop..Drop$GT$4drop17h825e8218748cd760E', symObjAddr: 0x4120, symBinAddr: 0x3D3E0, symSize: 0x24 }
  - { offset: 0x10AA79, size: 0x8, addend: 0x0, symName: '__ZN70_$LT$alloc..vec..Vec$LT$T$C$A$GT$$u20$as$u20$core..ops..drop..Drop$GT$4drop17h83d0ed07b3959d5aE', symObjAddr: 0x4144, symBinAddr: 0x3D404, symSize: 0x24 }
  - { offset: 0x10AB29, size: 0x8, addend: 0x0, symName: '__ZN70_$LT$alloc..vec..Vec$LT$T$C$A$GT$$u20$as$u20$core..ops..drop..Drop$GT$4drop17h889fc602ee225304E', symObjAddr: 0x4168, symBinAddr: 0x3D428, symSize: 0x24 }
  - { offset: 0x10ABD9, size: 0x8, addend: 0x0, symName: '__ZN70_$LT$alloc..vec..Vec$LT$T$C$A$GT$$u20$as$u20$core..ops..drop..Drop$GT$4drop17h8cb4a425c265a36aE', symObjAddr: 0x418C, symBinAddr: 0x3D44C, symSize: 0x24 }
  - { offset: 0x10AC89, size: 0x8, addend: 0x0, symName: '__ZN70_$LT$alloc..vec..Vec$LT$T$C$A$GT$$u20$as$u20$core..ops..drop..Drop$GT$4drop17ha8763c1f2feea99bE', symObjAddr: 0x41B0, symBinAddr: 0x3D470, symSize: 0x38 }
  - { offset: 0x10AD39, size: 0x8, addend: 0x0, symName: '__ZN70_$LT$alloc..vec..Vec$LT$T$C$A$GT$$u20$as$u20$core..ops..drop..Drop$GT$4drop17hc3d57c312a82e167E', symObjAddr: 0x41E8, symBinAddr: 0x3D4A8, symSize: 0x24 }
  - { offset: 0x10ADE9, size: 0x8, addend: 0x0, symName: '__ZN70_$LT$alloc..vec..Vec$LT$T$C$A$GT$$u20$as$u20$core..ops..drop..Drop$GT$4drop17he939f86d27abbceeE', symObjAddr: 0x420C, symBinAddr: 0x3D4CC, symSize: 0x38 }
  - { offset: 0x10AE99, size: 0x8, addend: 0x0, symName: '__ZN70_$LT$alloc..vec..Vec$LT$T$C$A$GT$$u20$as$u20$core..ops..drop..Drop$GT$4drop17hf4219b8b1e041194E', symObjAddr: 0x4244, symBinAddr: 0x3D504, symSize: 0x24 }
  - { offset: 0x10AF4F, size: 0x8, addend: 0x0, symName: '__ZN90_$LT$alloc..vec..Vec$LT$T$C$A$GT$$u20$as$u20$core..iter..traits..collect..IntoIterator$GT$9into_iter17h03c04268087666ffE', symObjAddr: 0x4AB8, symBinAddr: 0x3DA1C, symSize: 0xA8 }
  - { offset: 0x10B146, size: 0x8, addend: 0x0, symName: '__ZN90_$LT$alloc..vec..Vec$LT$T$C$A$GT$$u20$as$u20$core..iter..traits..collect..IntoIterator$GT$9into_iter17h5f8cc906473b35e4E', symObjAddr: 0x4B60, symBinAddr: 0x3DAC4, symSize: 0xA8 }
  - { offset: 0x10B33D, size: 0x8, addend: 0x0, symName: '__ZN90_$LT$alloc..vec..Vec$LT$T$C$A$GT$$u20$as$u20$core..iter..traits..collect..IntoIterator$GT$9into_iter17he1bebbc519d5e0deE', symObjAddr: 0x4C08, symBinAddr: 0x3DB6C, symSize: 0xA8 }
  - { offset: 0x10B53A, size: 0x8, addend: 0x0, symName: '__ZN95_$LT$alloc..vec..Vec$LT$T$GT$$u20$as$u20$core..iter..traits..collect..FromIterator$LT$T$GT$$GT$9from_iter17h094c7820ed9790b0E', symObjAddr: 0x4CB0, symBinAddr: 0x3DC14, symSize: 0x34 }
  - { offset: 0x10B57B, size: 0x8, addend: 0x0, symName: '__ZN95_$LT$alloc..vec..Vec$LT$T$GT$$u20$as$u20$core..iter..traits..collect..FromIterator$LT$T$GT$$GT$9from_iter17h90047084894395a0E', symObjAddr: 0x4CE4, symBinAddr: 0x3DC48, symSize: 0x34 }
  - { offset: 0x10B5BC, size: 0x8, addend: 0x0, symName: '__ZN95_$LT$alloc..vec..Vec$LT$T$GT$$u20$as$u20$core..iter..traits..collect..FromIterator$LT$T$GT$$GT$9from_iter17hb9554a74026b229fE', symObjAddr: 0x4D18, symBinAddr: 0x3DC7C, symSize: 0x34 }
  - { offset: 0x10B608, size: 0x8, addend: 0x0, symName: '__ZN97_$LT$alloc..vec..Vec$LT$T$C$A$GT$$u20$as$u20$alloc..vec..spec_extend..SpecExtend$LT$T$C$I$GT$$GT$11spec_extend17h693ba10f4357aee7E', symObjAddr: 0x4D4C, symBinAddr: 0x3DCB0, symSize: 0x24 }
  - { offset: 0x10B65A, size: 0x8, addend: 0x0, symName: '__ZN97_$LT$alloc..vec..Vec$LT$T$C$A$GT$$u20$as$u20$alloc..vec..spec_extend..SpecExtend$LT$T$C$I$GT$$GT$11spec_extend17hc88a905c229fa0eaE', symObjAddr: 0x4D70, symBinAddr: 0x3DCD4, symSize: 0x24 }
  - { offset: 0x10B6AC, size: 0x8, addend: 0x0, symName: '__ZN97_$LT$alloc..vec..Vec$LT$T$C$A$GT$$u20$as$u20$alloc..vec..spec_extend..SpecExtend$LT$T$C$I$GT$$GT$11spec_extend17he8f69a7fee9cd67bE', symObjAddr: 0x4D94, symBinAddr: 0x3DCF8, symSize: 0x24 }
  - { offset: 0x10B70A, size: 0x8, addend: 0x0, symName: '__ZN98_$LT$alloc..vec..Vec$LT$T$GT$$u20$as$u20$alloc..vec..spec_from_iter..SpecFromIter$LT$T$C$I$GT$$GT$9from_iter17h5d8e9408a3c4bd33E', symObjAddr: 0x4DB8, symBinAddr: 0x3DD1C, symSize: 0x14 }
  - { offset: 0x10B749, size: 0x8, addend: 0x0, symName: '__ZN98_$LT$alloc..vec..Vec$LT$T$GT$$u20$as$u20$alloc..vec..spec_from_iter..SpecFromIter$LT$T$C$I$GT$$GT$9from_iter17h746fe93dc92b482fE', symObjAddr: 0x4DCC, symBinAddr: 0x3DD30, symSize: 0x14 }
  - { offset: 0x10B788, size: 0x8, addend: 0x0, symName: '__ZN98_$LT$alloc..vec..Vec$LT$T$GT$$u20$as$u20$alloc..vec..spec_from_iter..SpecFromIter$LT$T$C$I$GT$$GT$9from_iter17hd28e312de51d370bE', symObjAddr: 0x4DE0, symBinAddr: 0x3DD44, symSize: 0x14 }
  - { offset: 0x10BD01, size: 0x8, addend: 0x0, symName: '__ZN5alloc6string104_$LT$impl$u20$core..convert..From$LT$alloc..string..String$GT$$u20$for$u20$alloc..vec..Vec$LT$u8$GT$$GT$4from17hf584efc99fafb7f2E', symObjAddr: 0x3504, symBinAddr: 0x3D330, symSize: 0x18 }
  - { offset: 0x10C240, size: 0x8, addend: 0x0, symName: __ZN3std5panic12catch_unwind17h7e256912b78da5c5E, symObjAddr: 0x8E4, symBinAddr: 0x3B038, symSize: 0xD0 }
  - { offset: 0x10C365, size: 0x8, addend: 0x0, symName: __ZN3std5panic12catch_unwind17h8a94de10be64d8beE, symObjAddr: 0x9B4, symBinAddr: 0x3B108, symSize: 0xB4 }
  - { offset: 0x10C48A, size: 0x8, addend: 0x0, symName: __ZN3std5panic12catch_unwind17h8c6c1ac3a5597430E, symObjAddr: 0xA68, symBinAddr: 0x3B1BC, symSize: 0xE4 }
  - { offset: 0x10C5E3, size: 0x8, addend: 0x0, symName: __ZN3std5panic12catch_unwind17hd75fe38d8a586765E, symObjAddr: 0xB4C, symBinAddr: 0x3B2A0, symSize: 0xD0 }
  - { offset: 0x10C708, size: 0x8, addend: 0x0, symName: __ZN3std5panic12catch_unwind17he25253681f5fb22dE, symObjAddr: 0xC1C, symBinAddr: 0x3B370, symSize: 0xE4 }
  - { offset: 0x10D9DE, size: 0x8, addend: 0x0, symName: '__ZN87_$LT$$BP$mut$u20$pyo3_ffi..object..PyObject$u20$as$u20$pyo3..ffi_ptr_ext..FfiPtrExt$GT$12assume_owned17h106db9d331a28c15E', symObjAddr: 0x4364, symBinAddr: 0x3D568, symSize: 0x24 }
  - { offset: 0x10DA23, size: 0x8, addend: 0x0, symName: '__ZN87_$LT$$BP$mut$u20$pyo3_ffi..object..PyObject$u20$as$u20$pyo3..ffi_ptr_ext..FfiPtrExt$GT$15assume_borrowed17h3ad7ff1a27351910E', symObjAddr: 0x4388, symBinAddr: 0x3D58C, symSize: 0x24 }
  - { offset: 0x10DA68, size: 0x8, addend: 0x0, symName: '__ZN87_$LT$$BP$mut$u20$pyo3_ffi..object..PyObject$u20$as$u20$pyo3..ffi_ptr_ext..FfiPtrExt$GT$19assume_owned_or_err17he64983835be655eaE', symObjAddr: 0x43AC, symBinAddr: 0x3D5B0, symSize: 0x24 }
  - { offset: 0x10DAAD, size: 0x8, addend: 0x0, symName: '__ZN87_$LT$$BP$mut$u20$pyo3_ffi..object..PyObject$u20$as$u20$pyo3..ffi_ptr_ext..FfiPtrExt$GT$19assume_owned_or_opt17h77659cbe037b092bE', symObjAddr: 0x43D0, symBinAddr: 0x3D5D4, symSize: 0x24 }
  - { offset: 0x10DAF2, size: 0x8, addend: 0x0, symName: '__ZN87_$LT$$BP$mut$u20$pyo3_ffi..object..PyObject$u20$as$u20$pyo3..ffi_ptr_ext..FfiPtrExt$GT$25assume_borrowed_unchecked17h6e9e4087a75ddb09E', symObjAddr: 0x443C, symBinAddr: 0x3D5F8, symSize: 0x24 }
  - { offset: 0x10DF35, size: 0x8, addend: 0x0, symName: __ZN4pyo35types4none6PyNone9get_bound17h9061d05aa255b59aE, symObjAddr: 0x1588, symBinAddr: 0x3B708, symSize: 0x24 }
  - { offset: 0x10E034, size: 0x8, addend: 0x0, symName: '__ZN5alloc3vec12Vec$LT$T$GT$13with_capacity17h59a0b7cd95055d5fE', symObjAddr: 0x1880, symBinAddr: 0x3B72C, symSize: 0x44 }
  - { offset: 0x10E0CA, size: 0x8, addend: 0x0, symName: '__ZN5alloc3vec12Vec$LT$T$GT$3new17h1791a3e55a5544adE', symObjAddr: 0x18C4, symBinAddr: 0x3B770, symSize: 0x14 }
  - { offset: 0x10E0E7, size: 0x8, addend: 0x0, symName: '__ZN5alloc3vec12Vec$LT$T$GT$3new17h2e5960c8c46147cdE', symObjAddr: 0x18D8, symBinAddr: 0x3B784, symSize: 0x14 }
  - { offset: 0x10E14C, size: 0x8, addend: 0x0, symName: '__ZN5alloc3vec12Vec$LT$T$GT$3new17h500a381779e99de8E', symObjAddr: 0x18EC, symBinAddr: 0x3B798, symSize: 0x14 }
  - { offset: 0x10E169, size: 0x8, addend: 0x0, symName: '__ZN5alloc3vec12Vec$LT$T$GT$3new17hc5bb88473db2e822E', symObjAddr: 0x1900, symBinAddr: 0x3B7AC, symSize: 0x14 }
  - { offset: 0x10E186, size: 0x8, addend: 0x0, symName: '__ZN5alloc3vec12Vec$LT$T$GT$3new17hc9d3ca3447539dfdE', symObjAddr: 0x1914, symBinAddr: 0x3B7C0, symSize: 0x14 }
  - { offset: 0x10E1A3, size: 0x8, addend: 0x0, symName: '__ZN5alloc3vec12Vec$LT$T$GT$3new17he78d28f494552d27E', symObjAddr: 0x1928, symBinAddr: 0x3B7D4, symSize: 0x14 }
  - { offset: 0x10E1C0, size: 0x8, addend: 0x0, symName: '__ZN5alloc3vec12Vec$LT$T$GT$3new17he8956887ea9f4898E', symObjAddr: 0x193C, symBinAddr: 0x3B7E8, symSize: 0x14 }
  - { offset: 0x10E228, size: 0x8, addend: 0x0, symName: '__ZN5alloc3vec16Vec$LT$T$C$A$GT$10as_mut_ptr17hb316d07622778c7aE', symObjAddr: 0x1950, symBinAddr: 0x3B7FC, symSize: 0x18 }
  - { offset: 0x10E48A, size: 0x8, addend: 0x0, symName: '__ZN5alloc3vec16Vec$LT$T$C$A$GT$10retain_mut17h6f4d0e0e2bde68afE', symObjAddr: 0x1968, symBinAddr: 0x3B814, symSize: 0x31C }
  - { offset: 0x10EAA1, size: 0x8, addend: 0x0, symName: '__ZN5alloc3vec16Vec$LT$T$C$A$GT$16extend_desugared17h200b58e114ea3750E', symObjAddr: 0x1C84, symBinAddr: 0x3BB30, symSize: 0x1C4 }
  - { offset: 0x10EE7E, size: 0x8, addend: 0x0, symName: '__ZN5alloc3vec16Vec$LT$T$C$A$GT$16extend_desugared17h29d3109168ed64dbE', symObjAddr: 0x1E48, symBinAddr: 0x3BCF4, symSize: 0x1C4 }
  - { offset: 0x10F404, size: 0x8, addend: 0x0, symName: '__ZN88_$LT$hashbrown..scopeguard..ScopeGuard$LT$T$C$F$GT$$u20$as$u20$core..ops..drop..Drop$GT$4drop17h47b982ee60249a33E', symObjAddr: 0x4460, symBinAddr: 0x3D61C, symSize: 0x2C }
  - { offset: 0x10F43E, size: 0x8, addend: 0x0, symName: '__ZN88_$LT$hashbrown..scopeguard..ScopeGuard$LT$T$C$F$GT$$u20$as$u20$core..ops..drop..Drop$GT$4drop17hdc91066cc9425006E', symObjAddr: 0x448C, symBinAddr: 0x3D648, symSize: 0x2C }
  - { offset: 0x10F551, size: 0x8, addend: 0x0, symName: '__ZN5alloc3vec16Vec$LT$T$C$A$GT$16extend_desugared17hf0e08bea881d4fa7E', symObjAddr: 0x200C, symBinAddr: 0x3BEB8, symSize: 0x1C8 }
  - { offset: 0x10FBE0, size: 0x8, addend: 0x0, symName: '__ZN5alloc3vec16Vec$LT$T$C$A$GT$16into_boxed_slice17h4bba2f7a05fbe6d3E', symObjAddr: 0x21D4, symBinAddr: 0x3C080, symSize: 0x1EC }
  - { offset: 0x1103A4, size: 0x8, addend: 0x0, symName: '__ZN5alloc3vec16Vec$LT$T$C$A$GT$16into_boxed_slice17hc1f2a58298036ca8E', symObjAddr: 0x23C0, symBinAddr: 0x3C26C, symSize: 0x1EC }
  - { offset: 0x110B34, size: 0x8, addend: 0x0, symName: '__ZN5alloc3vec16Vec$LT$T$C$A$GT$16into_boxed_slice17hc9bfd07bda1bf0d8E', symObjAddr: 0x25AC, symBinAddr: 0x3C458, symSize: 0x1EC }
  - { offset: 0x110F22, size: 0x8, addend: 0x0, symName: '__ZN5alloc3vec16Vec$LT$T$C$A$GT$3len17h04cdd62a26f732f4E', symObjAddr: 0x27F8, symBinAddr: 0x3C644, symSize: 0x18 }
  - { offset: 0x110F64, size: 0x8, addend: 0x0, symName: '__ZN5alloc3vec16Vec$LT$T$C$A$GT$4push17h24dffc6cb6e0d8f8E', symObjAddr: 0x2810, symBinAddr: 0x3C65C, symSize: 0x24 }
  - { offset: 0x110FA9, size: 0x8, addend: 0x0, symName: '__ZN5alloc3vec16Vec$LT$T$C$A$GT$4push17h88d6996c3ebd69eaE', symObjAddr: 0x2834, symBinAddr: 0x3C680, symSize: 0x24 }
  - { offset: 0x110FEE, size: 0x8, addend: 0x0, symName: '__ZN5alloc3vec16Vec$LT$T$C$A$GT$4push17haebdc64137ea4104E', symObjAddr: 0x2858, symBinAddr: 0x3C6A4, symSize: 0x24 }
  - { offset: 0x111033, size: 0x8, addend: 0x0, symName: '__ZN5alloc3vec16Vec$LT$T$C$A$GT$4push17hbb398b7574cc6fdaE', symObjAddr: 0x287C, symBinAddr: 0x3C6C8, symSize: 0x30 }
  - { offset: 0x111084, size: 0x8, addend: 0x0, symName: '__ZN5alloc3vec16Vec$LT$T$C$A$GT$4push17hbda7e95e799aee9eE', symObjAddr: 0x28AC, symBinAddr: 0x3C6F8, symSize: 0x2C }
  - { offset: 0x1110C8, size: 0x8, addend: 0x0, symName: '__ZN5alloc3vec16Vec$LT$T$C$A$GT$4push17he7a66f774e3aac90E', symObjAddr: 0x28D8, symBinAddr: 0x3C724, symSize: 0x28 }
  - { offset: 0x11110C, size: 0x8, addend: 0x0, symName: '__ZN5alloc3vec16Vec$LT$T$C$A$GT$4push17hf9bb04ce61205d20E', symObjAddr: 0x2900, symBinAddr: 0x3C74C, symSize: 0x24 }
  - { offset: 0x111151, size: 0x8, addend: 0x0, symName: '__ZN5alloc3vec16Vec$LT$T$C$A$GT$4push17hfe6c578725aec2b2E', symObjAddr: 0x2924, symBinAddr: 0x3C770, symSize: 0x24 }
  - { offset: 0x111196, size: 0x8, addend: 0x0, symName: '__ZN5alloc3vec16Vec$LT$T$C$A$GT$6retain17h412bc3a3f83c3597E', symObjAddr: 0x2948, symBinAddr: 0x3C794, symSize: 0x4C }
  - { offset: 0x1112F9, size: 0x8, addend: 0x0, symName: '__ZN5alloc3vec16Vec$LT$T$C$A$GT$7reserve17h8c3d896177956f93E', symObjAddr: 0x29C4, symBinAddr: 0x3C810, symSize: 0xA8 }
  - { offset: 0x11155D, size: 0x8, addend: 0x0, symName: '__ZN5alloc3vec16Vec$LT$T$C$A$GT$7reserve17ha591804a4b5ec755E', symObjAddr: 0x2A6C, symBinAddr: 0x3C8B8, symSize: 0xA8 }
  - { offset: 0x1116D0, size: 0x8, addend: 0x0, symName: '__ZN5alloc3vec16Vec$LT$T$C$A$GT$8is_empty17h0a5b24e2554f6fe7E', symObjAddr: 0x2B74, symBinAddr: 0x3C9C0, symSize: 0x20 }
  - { offset: 0x111748, size: 0x8, addend: 0x0, symName: '__ZN5alloc3vec16Vec$LT$T$C$A$GT$8is_empty17h2633ff9bffcb7ee5E', symObjAddr: 0x2B94, symBinAddr: 0x3C9E0, symSize: 0x20 }
  - { offset: 0x1117C0, size: 0x8, addend: 0x0, symName: '__ZN5alloc3vec16Vec$LT$T$C$A$GT$8is_empty17h473daba67fa8d36fE', symObjAddr: 0x2BB4, symBinAddr: 0x3CA00, symSize: 0x20 }
  - { offset: 0x111838, size: 0x8, addend: 0x0, symName: '__ZN5alloc3vec16Vec$LT$T$C$A$GT$8is_empty17h633fc38f10aa57c9E', symObjAddr: 0x2BD4, symBinAddr: 0x3CA20, symSize: 0x20 }
  - { offset: 0x1118B0, size: 0x8, addend: 0x0, symName: '__ZN5alloc3vec16Vec$LT$T$C$A$GT$8is_empty17hb8d5c9c6291f2378E', symObjAddr: 0x2BF4, symBinAddr: 0x3CA40, symSize: 0x20 }
  - { offset: 0x111A17, size: 0x8, addend: 0x0, symName: '__ZN5alloc3vec16Vec$LT$T$C$A$GT$8push_mut17h2549ccd734ebfa2dE', symObjAddr: 0x2C14, symBinAddr: 0x3CA60, symSize: 0x100 }
  - { offset: 0x111C7B, size: 0x8, addend: 0x0, symName: '__ZN5alloc3vec16Vec$LT$T$C$A$GT$8push_mut17h2af36e6c60b9ff1cE', symObjAddr: 0x2D14, symBinAddr: 0x3CB60, symSize: 0xCC }
  - { offset: 0x111EEA, size: 0x8, addend: 0x0, symName: '__ZN5alloc3vec16Vec$LT$T$C$A$GT$8push_mut17h6eeeb799ead68648E', symObjAddr: 0x2DE0, symBinAddr: 0x3CC2C, symSize: 0xF8 }
  - { offset: 0x11215A, size: 0x8, addend: 0x0, symName: '__ZN5alloc3vec16Vec$LT$T$C$A$GT$8push_mut17h843654348e9c7a72E', symObjAddr: 0x2ED8, symBinAddr: 0x3CD24, symSize: 0xF8 }
  - { offset: 0x1123F1, size: 0x8, addend: 0x0, symName: '__ZN5alloc3vec16Vec$LT$T$C$A$GT$8push_mut17ha5a4350c5652cd5fE', symObjAddr: 0x2FD0, symBinAddr: 0x3CE1C, symSize: 0xEC }
  - { offset: 0x11268A, size: 0x8, addend: 0x0, symName: '__ZN5alloc3vec16Vec$LT$T$C$A$GT$8push_mut17hab3ff697edc17291E', symObjAddr: 0x30BC, symBinAddr: 0x3CF08, symSize: 0xD0 }
  - { offset: 0x1128EC, size: 0x8, addend: 0x0, symName: '__ZN5alloc3vec16Vec$LT$T$C$A$GT$8push_mut17hca6415f5e97fc19eE', symObjAddr: 0x318C, symBinAddr: 0x3CFD8, symSize: 0xE0 }
  - { offset: 0x112B5C, size: 0x8, addend: 0x0, symName: '__ZN5alloc3vec16Vec$LT$T$C$A$GT$8push_mut17hf8ec5c0b417cb8f1E', symObjAddr: 0x326C, symBinAddr: 0x3D0B8, symSize: 0xDC }
  - { offset: 0x112F1C, size: 0x8, addend: 0x0, symName: '__ZN5alloc3vec16Vec$LT$T$C$A$GT$9split_off17he530bea7f7794bc5E', symObjAddr: 0x3348, symBinAddr: 0x3D194, symSize: 0x19C }
  - { offset: 0x113E62, size: 0x8, addend: 0x0, symName: '__ZN45_$LT$T$u20$as$u20$alloc..string..ToString$GT$9to_string17h8aec732d0e7aa80dE', symObjAddr: 0x1858, symBinAddr: 0x3E2E4, symSize: 0x24 }
  - { offset: 0x113E9F, size: 0x8, addend: 0x0, symName: '__ZN49_$LT$T$u20$as$u20$alloc..string..SpecToString$GT$14spec_to_string17hba0a40ba6505714eE', symObjAddr: 0x1994, symBinAddr: 0x3E308, symSize: 0xF4 }
  - { offset: 0x11440E, size: 0x8, addend: 0x0, symName: '__ZN77_$LT$alloc..raw_vec..RawVec$LT$T$C$A$GT$$u20$as$u20$core..ops..drop..Drop$GT$4drop17h0e2427feb5f7258aE', symObjAddr: 0x736C, symBinAddr: 0x3F414, symSize: 0x34 }
  - { offset: 0x11444A, size: 0x8, addend: 0x0, symName: '__ZN77_$LT$alloc..raw_vec..RawVec$LT$T$C$A$GT$$u20$as$u20$core..ops..drop..Drop$GT$4drop17h4832e34384199cdeE', symObjAddr: 0x73A0, symBinAddr: 0x3F448, symSize: 0x34 }
  - { offset: 0x114486, size: 0x8, addend: 0x0, symName: '__ZN77_$LT$alloc..raw_vec..RawVec$LT$T$C$A$GT$$u20$as$u20$core..ops..drop..Drop$GT$4drop17h65c23ba1bc95000eE', symObjAddr: 0x73D4, symBinAddr: 0x3F47C, symSize: 0x34 }
  - { offset: 0x1144C2, size: 0x8, addend: 0x0, symName: '__ZN77_$LT$alloc..raw_vec..RawVec$LT$T$C$A$GT$$u20$as$u20$core..ops..drop..Drop$GT$4drop17h72402a29b99a1b7bE', symObjAddr: 0x7408, symBinAddr: 0x3F4B0, symSize: 0x34 }
  - { offset: 0x1144FE, size: 0x8, addend: 0x0, symName: '__ZN77_$LT$alloc..raw_vec..RawVec$LT$T$C$A$GT$$u20$as$u20$core..ops..drop..Drop$GT$4drop17h90d720238843ded7E', symObjAddr: 0x743C, symBinAddr: 0x3F4E4, symSize: 0x34 }
  - { offset: 0x11453A, size: 0x8, addend: 0x0, symName: '__ZN77_$LT$alloc..raw_vec..RawVec$LT$T$C$A$GT$$u20$as$u20$core..ops..drop..Drop$GT$4drop17ha5c89ff7a71747d1E', symObjAddr: 0x7470, symBinAddr: 0x3F518, symSize: 0x34 }
  - { offset: 0x114576, size: 0x8, addend: 0x0, symName: '__ZN77_$LT$alloc..raw_vec..RawVec$LT$T$C$A$GT$$u20$as$u20$core..ops..drop..Drop$GT$4drop17had0b6c5970527a7aE', symObjAddr: 0x74A4, symBinAddr: 0x3F54C, symSize: 0x30 }
  - { offset: 0x1145B2, size: 0x8, addend: 0x0, symName: '__ZN77_$LT$alloc..raw_vec..RawVec$LT$T$C$A$GT$$u20$as$u20$core..ops..drop..Drop$GT$4drop17hb6c72c2d1cac3826E', symObjAddr: 0x74D4, symBinAddr: 0x3F57C, symSize: 0x34 }
  - { offset: 0x1145EE, size: 0x8, addend: 0x0, symName: '__ZN77_$LT$alloc..raw_vec..RawVec$LT$T$C$A$GT$$u20$as$u20$core..ops..drop..Drop$GT$4drop17heef2a3789646df7dE', symObjAddr: 0x7538, symBinAddr: 0x3F5B0, symSize: 0x30 }
  - { offset: 0x11462A, size: 0x8, addend: 0x0, symName: '__ZN77_$LT$alloc..raw_vec..RawVec$LT$T$C$A$GT$$u20$as$u20$core..ops..drop..Drop$GT$4drop17hfe1597046d1a8a11E', symObjAddr: 0x7568, symBinAddr: 0x3F5E0, symSize: 0x34 }
  - { offset: 0x115C3B, size: 0x8, addend: 0x0, symName: '__ZN110_$LT$core..iter..adapters..enumerate..Enumerate$LT$I$GT$$u20$as$u20$core..iter..traits..iterator..Iterator$GT$4next17h0d2623f8bbc59c38E', symObjAddr: 0x13B8, symBinAddr: 0x3DF30, symSize: 0xEC }
  - { offset: 0x115D21, size: 0x8, addend: 0x0, symName: '__ZN110_$LT$core..iter..adapters..enumerate..Enumerate$LT$I$GT$$u20$as$u20$core..iter..traits..iterator..Iterator$GT$4next17h362837d54298b7e8E', symObjAddr: 0x14A4, symBinAddr: 0x3E01C, symSize: 0xE0 }
  - { offset: 0x115E6D, size: 0x8, addend: 0x0, symName: '__ZN63_$LT$I$u20$as$u20$core..iter..traits..collect..IntoIterator$GT$9into_iter17h07c415562ed1382fE', symObjAddr: 0x71E0, symBinAddr: 0x3F3C8, symSize: 0x18 }
  - { offset: 0x115EA4, size: 0x8, addend: 0x0, symName: '__ZN63_$LT$I$u20$as$u20$core..iter..traits..collect..IntoIterator$GT$9into_iter17h11190b62f9714bdaE', symObjAddr: 0x71F8, symBinAddr: 0x3F3E0, symSize: 0x14 }
  - { offset: 0x115F63, size: 0x8, addend: 0x0, symName: __ZN4core3mem4drop17hfca923071901b744E, symObjAddr: 0x1A88, symBinAddr: 0x3E3FC, symSize: 0x28 }
  - { offset: 0x115FC9, size: 0x8, addend: 0x0, symName: __ZN4core3mem4take17h7276a465cd01fac0E, symObjAddr: 0x1AB0, symBinAddr: 0x3E424, symSize: 0x58 }
  - { offset: 0x116059, size: 0x8, addend: 0x0, symName: __ZN4core3mem4take17h941a114d753c5b5dE, symObjAddr: 0x1B08, symBinAddr: 0x3E47C, symSize: 0x54 }
  - { offset: 0x1160E9, size: 0x8, addend: 0x0, symName: __ZN4core3mem4take17hcee462f09427307bE, symObjAddr: 0x1B5C, symBinAddr: 0x3E4D0, symSize: 0x54 }
  - { offset: 0x116146, size: 0x8, addend: 0x0, symName: __ZN4core3mem6forget17h1b8ab215182bb619E, symObjAddr: 0x1BB0, symBinAddr: 0x3E524, symSize: 0x14 }
  - { offset: 0x116177, size: 0x8, addend: 0x0, symName: __ZN4core3mem6forget17h343e9371dbf0bdf2E, symObjAddr: 0x1BC4, symBinAddr: 0x3E538, symSize: 0x14 }
  - { offset: 0x1161A8, size: 0x8, addend: 0x0, symName: __ZN4core3mem6forget17hfbc414659cad24d9E, symObjAddr: 0x1C00, symBinAddr: 0x3E54C, symSize: 0x4 }
  - { offset: 0x116346, size: 0x8, addend: 0x0, symName: __ZN4core3str8converts19from_utf8_unchecked17hc66fefb475b66537E, symObjAddr: 0x1C58, symBinAddr: 0x3E550, symSize: 0x18 }
  - { offset: 0x116C44, size: 0x8, addend: 0x0, symName: '__ZN4pyo33err5impls94_$LT$impl$u20$pyo3..err..err_state..PyErrArguments$u20$for$u20$core..str..error..Utf8Error$GT$9arguments17h5f4d945a9eee7c87E', symObjAddr: 0x4878, symBinAddr: 0x3E568, symSize: 0x2C }
  - { offset: 0x116F59, size: 0x8, addend: 0x0, symName: '__ZN103_$LT$pyo3..instance..Bound$LT$pyo3..types..any..PyAny$GT$$u20$as$u20$pyo3..types..any..PyAnyMethods$GT$7getattr5inner17h6542840f555a2220E', symObjAddr: 0xDA8, symBinAddr: 0x3DDAC, symSize: 0xA8 }
  - { offset: 0x116F9C, size: 0x8, addend: 0x0, symName: '__ZN103_$LT$pyo3..instance..Bound$LT$pyo3..types..any..PyAny$GT$$u20$as$u20$pyo3..types..any..PyAnyMethods$GT$7setattr5inner17hb2a173d472d40549E', symObjAddr: 0xFA0, symBinAddr: 0x3DE54, symSize: 0xDC }
  - { offset: 0x117274, size: 0x8, addend: 0x0, symName: '__ZN114_$LT$pyo3..pyclass_init..PyNativeTypeInitializer$LT$T$GT$$u20$as$u20$pyo3..pyclass_init..PyObjectInit$LT$T$GT$$GT$15into_new_object5inner17h7185a5e4e2124b39E', symObjAddr: 0x1670, symBinAddr: 0x3E0FC, symSize: 0x1E8 }
  - { offset: 0x11733D, size: 0x8, addend: 0x0, symName: __ZN4pyo35impl_10trampoline10trampoline17h1d65738fa9381fc3E, symObjAddr: 0x48D4, symBinAddr: 0x3E594, symSize: 0x14C }
  - { offset: 0x1173E0, size: 0x8, addend: 0x0, symName: __ZN4pyo35impl_10trampoline10trampoline17h3622bddcf010e441E, symObjAddr: 0x4A20, symBinAddr: 0x3E6E0, symSize: 0x164 }
  - { offset: 0x117483, size: 0x8, addend: 0x0, symName: __ZN4pyo35impl_10trampoline10trampoline17h9fc4e8fc771e758eE, symObjAddr: 0x4B84, symBinAddr: 0x3E844, symSize: 0x168 }
  - { offset: 0x117527, size: 0x8, addend: 0x0, symName: __ZN4pyo35impl_10trampoline10trampoline17hd0e66ba9a0f7df25E, symObjAddr: 0x4CEC, symBinAddr: 0x3E9AC, symSize: 0x168 }
  - { offset: 0x1175CB, size: 0x8, addend: 0x0, symName: __ZN4pyo35impl_10trampoline10trampoline17hff78eb1bd504cbbbE, symObjAddr: 0x4E54, symBinAddr: 0x3EB14, symSize: 0x164 }
  - { offset: 0x117673, size: 0x8, addend: 0x0, symName: '__ZN4pyo35impl_10trampoline10trampoline28_$u7b$$u7b$closure$u7d$$u7d$17h26d83c5aa1395973E', symObjAddr: 0x4FB8, symBinAddr: 0x3EC78, symSize: 0x1C }
  - { offset: 0x1176C1, size: 0x8, addend: 0x0, symName: '__ZN4pyo35impl_10trampoline10trampoline28_$u7b$$u7b$closure$u7d$$u7d$17h7cbd2d2de68c2039E', symObjAddr: 0x4FD4, symBinAddr: 0x3EC94, symSize: 0x2C }
  - { offset: 0x11770F, size: 0x8, addend: 0x0, symName: '__ZN4pyo35impl_10trampoline10trampoline28_$u7b$$u7b$closure$u7d$$u7d$17h9c5bf8f737374f87E', symObjAddr: 0x5000, symBinAddr: 0x3ECC0, symSize: 0x34 }
  - { offset: 0x11775E, size: 0x8, addend: 0x0, symName: '__ZN4pyo35impl_10trampoline10trampoline28_$u7b$$u7b$closure$u7d$$u7d$17hd9e4c727fccbe8deE', symObjAddr: 0x5034, symBinAddr: 0x3ECF4, symSize: 0x2C }
  - { offset: 0x1177AC, size: 0x8, addend: 0x0, symName: '__ZN4pyo35impl_10trampoline10trampoline28_$u7b$$u7b$closure$u7d$$u7d$17hdf6c9684773d1621E', symObjAddr: 0x5060, symBinAddr: 0x3ED20, symSize: 0x34 }
  - { offset: 0x1177FC, size: 0x8, addend: 0x0, symName: __ZN4pyo35impl_10trampoline33panic_result_into_callback_output17hae2e1f02894d0c97E, symObjAddr: 0x5094, symBinAddr: 0x3ED54, symSize: 0x104 }
  - { offset: 0x1178BF, size: 0x8, addend: 0x0, symName: __ZN4pyo35impl_10trampoline33panic_result_into_callback_output17hfe1186bba614980aE, symObjAddr: 0x5198, symBinAddr: 0x3EE58, symSize: 0xF8 }
  - { offset: 0x1179C8, size: 0x8, addend: 0x0, symName: '__ZN71_$LT$pyo3..impl_..panic..PanicTrap$u20$as$u20$core..ops..drop..Drop$GT$4drop17h2ed1c9e766736c0dE', symObjAddr: 0x7318, symBinAddr: 0x3F3F4, symSize: 0x20 }
  - { offset: 0x118914, size: 0x8, addend: 0x0, symName: __ZN4pyo35impl_5panic9PanicTrap3new17h968ecc513236cf0fE, symObjAddr: 0x5290, symBinAddr: 0x3EF50, symSize: 0x18 }
  - { offset: 0x118936, size: 0x8, addend: 0x0, symName: __ZN4pyo35impl_5panic9PanicTrap6disarm17h8bc7248390c231e9E, symObjAddr: 0x52A8, symBinAddr: 0x3EF68, symSize: 0x28 }
  - { offset: 0x118A7C, size: 0x8, addend: 0x0, symName: '__ZN5alloc7raw_vec19RawVec$LT$T$C$A$GT$8grow_one17h020dfe32e75c4c20E', symObjAddr: 0x6880, symBinAddr: 0x3EF90, symSize: 0x88 }
  - { offset: 0x118BB0, size: 0x8, addend: 0x0, symName: '__ZN5alloc7raw_vec19RawVec$LT$T$C$A$GT$8grow_one17h449ba89bfcf09d55E', symObjAddr: 0x6908, symBinAddr: 0x3F018, symSize: 0x88 }
  - { offset: 0x118C60, size: 0x8, addend: 0x0, symName: '__ZN5alloc7raw_vec19RawVec$LT$T$C$A$GT$8grow_one17h6f1166fce6974833E', symObjAddr: 0x6990, symBinAddr: 0x3F0A0, symSize: 0x84 }
  - { offset: 0x118D10, size: 0x8, addend: 0x0, symName: '__ZN5alloc7raw_vec19RawVec$LT$T$C$A$GT$8grow_one17h9f5365af35583966E', symObjAddr: 0x6A14, symBinAddr: 0x3F124, symSize: 0x88 }
  - { offset: 0x118DC0, size: 0x8, addend: 0x0, symName: '__ZN5alloc7raw_vec19RawVec$LT$T$C$A$GT$8grow_one17hbc92947e22490013E', symObjAddr: 0x6A9C, symBinAddr: 0x3F1AC, symSize: 0x88 }
  - { offset: 0x118E70, size: 0x8, addend: 0x0, symName: '__ZN5alloc7raw_vec19RawVec$LT$T$C$A$GT$8grow_one17he56f18ca3d0c9c56E', symObjAddr: 0x6B24, symBinAddr: 0x3F234, symSize: 0x84 }
  - { offset: 0x118F20, size: 0x8, addend: 0x0, symName: '__ZN5alloc7raw_vec19RawVec$LT$T$C$A$GT$8grow_one17heb319bef96b77c09E', symObjAddr: 0x6BA8, symBinAddr: 0x3F2B8, symSize: 0x88 }
  - { offset: 0x118FD0, size: 0x8, addend: 0x0, symName: '__ZN5alloc7raw_vec19RawVec$LT$T$C$A$GT$8grow_one17hf156b3df693846e4E', symObjAddr: 0x6C30, symBinAddr: 0x3F340, symSize: 0x88 }
  - { offset: 0x119111, size: 0x8, addend: 0x0, symName: __ZN9hashbrown7control5group4neon5Group10match_full17h3397abdb7adeabdaE, symObjAddr: 0x7624, symBinAddr: 0x3F614, symSize: 0x68 }
  - { offset: 0x119149, size: 0x8, addend: 0x0, symName: __ZN9hashbrown7control5group4neon5Group22match_empty_or_deleted17h51ecc4bf4d8d4c2bE, symObjAddr: 0x768C, symBinAddr: 0x3F67C, symSize: 0x68 }
  - { offset: 0x119181, size: 0x8, addend: 0x0, symName: __ZN9hashbrown7control5group4neon5Group44convert_special_to_empty_and_full_to_deleted17h6b7b9698002b9f58E, symObjAddr: 0x76F4, symBinAddr: 0x3F6E4, symSize: 0x88 }
  - { offset: 0x1191B9, size: 0x8, addend: 0x0, symName: __ZN9hashbrown7control5group4neon5Group9match_tag17h3b5cc2357b31e56cE, symObjAddr: 0x777C, symBinAddr: 0x3F76C, symSize: 0x7C }
  - { offset: 0x119401, size: 0x8, addend: 0x0, symName: '__ZN115_$LT$core..iter..adapters..filter_map..FilterMap$LT$I$C$F$GT$$u20$as$u20$core..iter..traits..iterator..Iterator$GT$4next17h50ced60e1f77285dE', symObjAddr: 0x0, symBinAddr: 0x3F7E8, symSize: 0x2C }
  - { offset: 0x11A896, size: 0x8, addend: 0x0, symName: '__ZN115_$LT$core..iter..adapters..filter_map..FilterMap$LT$I$C$F$GT$$u20$as$u20$core..iter..traits..iterator..Iterator$GT$4next17h50ced60e1f77285dE', symObjAddr: 0x0, symBinAddr: 0x3F7E8, symSize: 0x2C }
  - { offset: 0x11A8DD, size: 0x8, addend: 0x0, symName: '__ZN115_$LT$core..iter..adapters..filter_map..FilterMap$LT$I$C$F$GT$$u20$as$u20$core..iter..traits..iterator..Iterator$GT$4next17hb3d9c02612626e87E', symObjAddr: 0x2C, symBinAddr: 0x3F814, symSize: 0x2C }
  - { offset: 0x11A924, size: 0x8, addend: 0x0, symName: '__ZN115_$LT$core..iter..adapters..filter_map..FilterMap$LT$I$C$F$GT$$u20$as$u20$core..iter..traits..iterator..Iterator$GT$9size_hint17h2ebefb46acc0680eE', symObjAddr: 0x58, symBinAddr: 0x3F840, symSize: 0x4C }
  - { offset: 0x11A988, size: 0x8, addend: 0x0, symName: '__ZN115_$LT$core..iter..adapters..filter_map..FilterMap$LT$I$C$F$GT$$u20$as$u20$core..iter..traits..iterator..Iterator$GT$9size_hint17h5778b5154e963e5eE', symObjAddr: 0xA4, symBinAddr: 0x3F88C, symSize: 0x4C }
  - { offset: 0x11ABF9, size: 0x8, addend: 0x0, symName: __ZN4core4iter6traits8iterator8Iterator7collect17h1f7d8408a9b6b862E, symObjAddr: 0x1F24, symBinAddr: 0x3FFD8, symSize: 0x14 }
  - { offset: 0x11AC3A, size: 0x8, addend: 0x0, symName: __ZN4core4iter6traits8iterator8Iterator7collect17h4d1bd4999e2a8d16E, symObjAddr: 0x1F38, symBinAddr: 0x3FFEC, symSize: 0x14 }
  - { offset: 0x11AC87, size: 0x8, addend: 0x0, symName: '__ZN63_$LT$I$u20$as$u20$core..iter..traits..collect..IntoIterator$GT$9into_iter17h51f41d96711795acE', symObjAddr: 0x5D84, symBinAddr: 0x40D3C, symSize: 0x30 }
  - { offset: 0x11ACBF, size: 0x8, addend: 0x0, symName: '__ZN63_$LT$I$u20$as$u20$core..iter..traits..collect..IntoIterator$GT$9into_iter17hee62a9322d7b1323E', symObjAddr: 0x5DB4, symBinAddr: 0x40D6C, symSize: 0x30 }
  - { offset: 0x11AD05, size: 0x8, addend: 0x0, symName: '__ZN136_$LT$core..result..Result$LT$V$C$E$GT$$u20$as$u20$core..iter..traits..collect..FromIterator$LT$core..result..Result$LT$A$C$E$GT$$GT$$GT$9from_iter17h709abfb5d9a46ec8E', symObjAddr: 0xF0, symBinAddr: 0x3F8D8, symSize: 0x34 }
  - { offset: 0x11AD5D, size: 0x8, addend: 0x0, symName: '__ZN136_$LT$core..result..Result$LT$V$C$E$GT$$u20$as$u20$core..iter..traits..collect..FromIterator$LT$core..result..Result$LT$A$C$E$GT$$GT$$GT$9from_iter28_$u7b$$u7b$closure$u7d$$u7d$17h4f21df197b0493bfE', symObjAddr: 0x124, symBinAddr: 0x3F90C, symSize: 0x28 }
  - { offset: 0x11B008, size: 0x8, addend: 0x0, symName: '__ZN153_$LT$core..result..Result$LT$T$C$F$GT$$u20$as$u20$core..ops..try_trait..FromResidual$LT$core..result..Result$LT$core..convert..Infallible$C$E$GT$$GT$$GT$13from_residual17h01528cab4e4fcc78E', symObjAddr: 0x5B8, symBinAddr: 0x3F968, symSize: 0x48 }
  - { offset: 0x11B08D, size: 0x8, addend: 0x0, symName: '__ZN153_$LT$core..result..Result$LT$T$C$F$GT$$u20$as$u20$core..ops..try_trait..FromResidual$LT$core..result..Result$LT$core..convert..Infallible$C$E$GT$$GT$$GT$13from_residual17h0f0414bf04d7a0dfE', symObjAddr: 0x778, symBinAddr: 0x3F9B0, symSize: 0x48 }
  - { offset: 0x11B112, size: 0x8, addend: 0x0, symName: '__ZN153_$LT$core..result..Result$LT$T$C$F$GT$$u20$as$u20$core..ops..try_trait..FromResidual$LT$core..result..Result$LT$core..convert..Infallible$C$E$GT$$GT$$GT$13from_residual17h11f191ad25caadf3E', symObjAddr: 0x7C0, symBinAddr: 0x3F9F8, symSize: 0x48 }
  - { offset: 0x11B197, size: 0x8, addend: 0x0, symName: '__ZN153_$LT$core..result..Result$LT$T$C$F$GT$$u20$as$u20$core..ops..try_trait..FromResidual$LT$core..result..Result$LT$core..convert..Infallible$C$E$GT$$GT$$GT$13from_residual17h2a2f6b94386a3f5dE', symObjAddr: 0xA0C, symBinAddr: 0x3FA40, symSize: 0x48 }
  - { offset: 0x11B21C, size: 0x8, addend: 0x0, symName: '__ZN153_$LT$core..result..Result$LT$T$C$F$GT$$u20$as$u20$core..ops..try_trait..FromResidual$LT$core..result..Result$LT$core..convert..Infallible$C$E$GT$$GT$$GT$13from_residual17h412f1bd4f974610fE', symObjAddr: 0xB3C, symBinAddr: 0x3FA88, symSize: 0x58 }
  - { offset: 0x11B284, size: 0x8, addend: 0x0, symName: '__ZN153_$LT$core..result..Result$LT$T$C$F$GT$$u20$as$u20$core..ops..try_trait..FromResidual$LT$core..result..Result$LT$core..convert..Infallible$C$E$GT$$GT$$GT$13from_residual17h4563b5d1135b22ceE', symObjAddr: 0xB94, symBinAddr: 0x3FAE0, symSize: 0x48 }
  - { offset: 0x11B309, size: 0x8, addend: 0x0, symName: '__ZN153_$LT$core..result..Result$LT$T$C$F$GT$$u20$as$u20$core..ops..try_trait..FromResidual$LT$core..result..Result$LT$core..convert..Infallible$C$E$GT$$GT$$GT$13from_residual17h4e4067f1e3bc345aE', symObjAddr: 0xC24, symBinAddr: 0x3FB28, symSize: 0x48 }
  - { offset: 0x11B38E, size: 0x8, addend: 0x0, symName: '__ZN153_$LT$core..result..Result$LT$T$C$F$GT$$u20$as$u20$core..ops..try_trait..FromResidual$LT$core..result..Result$LT$core..convert..Infallible$C$E$GT$$GT$$GT$13from_residual17h5f05763b5d0ed282E', symObjAddr: 0xDE4, symBinAddr: 0x3FB70, symSize: 0x48 }
  - { offset: 0x11B413, size: 0x8, addend: 0x0, symName: '__ZN153_$LT$core..result..Result$LT$T$C$F$GT$$u20$as$u20$core..ops..try_trait..FromResidual$LT$core..result..Result$LT$core..convert..Infallible$C$E$GT$$GT$$GT$13from_residual17h70344ee0db0d8e6aE', symObjAddr: 0xF4C, symBinAddr: 0x3FBB8, symSize: 0x58 }
  - { offset: 0x11B47B, size: 0x8, addend: 0x0, symName: '__ZN153_$LT$core..result..Result$LT$T$C$F$GT$$u20$as$u20$core..ops..try_trait..FromResidual$LT$core..result..Result$LT$core..convert..Infallible$C$E$GT$$GT$$GT$13from_residual17h71a81e25847d165eE', symObjAddr: 0xFEC, symBinAddr: 0x3FC10, symSize: 0x48 }
  - { offset: 0x11B500, size: 0x8, addend: 0x0, symName: '__ZN153_$LT$core..result..Result$LT$T$C$F$GT$$u20$as$u20$core..ops..try_trait..FromResidual$LT$core..result..Result$LT$core..convert..Infallible$C$E$GT$$GT$$GT$13from_residual17h847c54c732fa0b66E', symObjAddr: 0x120C, symBinAddr: 0x3FC58, symSize: 0x48 }
  - { offset: 0x11B585, size: 0x8, addend: 0x0, symName: '__ZN153_$LT$core..result..Result$LT$T$C$F$GT$$u20$as$u20$core..ops..try_trait..FromResidual$LT$core..result..Result$LT$core..convert..Infallible$C$E$GT$$GT$$GT$13from_residual17h923a85b2598ae8b3E', symObjAddr: 0x1374, symBinAddr: 0x3FCA0, symSize: 0x48 }
  - { offset: 0x11B60A, size: 0x8, addend: 0x0, symName: '__ZN153_$LT$core..result..Result$LT$T$C$F$GT$$u20$as$u20$core..ops..try_trait..FromResidual$LT$core..result..Result$LT$core..convert..Infallible$C$E$GT$$GT$$GT$13from_residual17h9e8bc118d5808bb8E', symObjAddr: 0x14DC, symBinAddr: 0x3FCE8, symSize: 0x48 }
  - { offset: 0x11B68F, size: 0x8, addend: 0x0, symName: '__ZN153_$LT$core..result..Result$LT$T$C$F$GT$$u20$as$u20$core..ops..try_trait..FromResidual$LT$core..result..Result$LT$core..convert..Infallible$C$E$GT$$GT$$GT$13from_residual17haf667b594a3ab364E', symObjAddr: 0x160C, symBinAddr: 0x3FD30, symSize: 0x48 }
  - { offset: 0x11B714, size: 0x8, addend: 0x0, symName: '__ZN153_$LT$core..result..Result$LT$T$C$F$GT$$u20$as$u20$core..ops..try_trait..FromResidual$LT$core..result..Result$LT$core..convert..Infallible$C$E$GT$$GT$$GT$13from_residual17hd415f421f4a1f8ddE', symObjAddr: 0x1A94, symBinAddr: 0x3FD78, symSize: 0x4C }
  - { offset: 0x11B77C, size: 0x8, addend: 0x0, symName: '__ZN153_$LT$core..result..Result$LT$T$C$F$GT$$u20$as$u20$core..ops..try_trait..FromResidual$LT$core..result..Result$LT$core..convert..Infallible$C$E$GT$$GT$$GT$13from_residual17hdba7e523fa4e4242E', symObjAddr: 0x1B28, symBinAddr: 0x3FDC4, symSize: 0x48 }
  - { offset: 0x11B801, size: 0x8, addend: 0x0, symName: '__ZN153_$LT$core..result..Result$LT$T$C$F$GT$$u20$as$u20$core..ops..try_trait..FromResidual$LT$core..result..Result$LT$core..convert..Infallible$C$E$GT$$GT$$GT$13from_residual17hde678fc5fe753da4E', symObjAddr: 0x1B70, symBinAddr: 0x3FE0C, symSize: 0x14 }
  - { offset: 0x11B84A, size: 0x8, addend: 0x0, symName: '__ZN153_$LT$core..result..Result$LT$T$C$F$GT$$u20$as$u20$core..ops..try_trait..FromResidual$LT$core..result..Result$LT$core..convert..Infallible$C$E$GT$$GT$$GT$13from_residual17he4643aed05d6d162E', symObjAddr: 0x1C1C, symBinAddr: 0x3FE20, symSize: 0x58 }
  - { offset: 0x11B8B2, size: 0x8, addend: 0x0, symName: '__ZN153_$LT$core..result..Result$LT$T$C$F$GT$$u20$as$u20$core..ops..try_trait..FromResidual$LT$core..result..Result$LT$core..convert..Infallible$C$E$GT$$GT$$GT$13from_residual17he475d9a91d607b9aE', symObjAddr: 0x1C74, symBinAddr: 0x3FE78, symSize: 0x48 }
  - { offset: 0x11B937, size: 0x8, addend: 0x0, symName: '__ZN153_$LT$core..result..Result$LT$T$C$F$GT$$u20$as$u20$core..ops..try_trait..FromResidual$LT$core..result..Result$LT$core..convert..Infallible$C$E$GT$$GT$$GT$13from_residual17hfc3e5a8a4fdbddb0E', symObjAddr: 0x1D94, symBinAddr: 0x3FEC0, symSize: 0x48 }
  - { offset: 0x11EB6B, size: 0x8, addend: 0x0, symName: '__ZN79_$LT$core..result..Result$LT$T$C$E$GT$$u20$as$u20$core..ops..try_trait..Try$GT$11from_output17hd525615b4b4f9923E', symObjAddr: 0x5DE4, symBinAddr: 0x40D9C, symSize: 0x18 }
  - { offset: 0x11EBAB, size: 0x8, addend: 0x0, symName: '__ZN79_$LT$core..result..Result$LT$T$C$E$GT$$u20$as$u20$core..ops..try_trait..Try$GT$6branch17h027ea09825764b8aE', symObjAddr: 0x5DFC, symBinAddr: 0x40DB4, symSize: 0x80 }
  - { offset: 0x11EC29, size: 0x8, addend: 0x0, symName: '__ZN79_$LT$core..result..Result$LT$T$C$E$GT$$u20$as$u20$core..ops..try_trait..Try$GT$6branch17h1563858f2ffb98b0E', symObjAddr: 0x6048, symBinAddr: 0x40E34, symSize: 0x70 }
  - { offset: 0x11ECA7, size: 0x8, addend: 0x0, symName: '__ZN79_$LT$core..result..Result$LT$T$C$E$GT$$u20$as$u20$core..ops..try_trait..Try$GT$6branch17h1ef9f9ca3fe6e549E', symObjAddr: 0x624C, symBinAddr: 0x40EA4, symSize: 0x88 }
  - { offset: 0x11ED25, size: 0x8, addend: 0x0, symName: '__ZN79_$LT$core..result..Result$LT$T$C$E$GT$$u20$as$u20$core..ops..try_trait..Try$GT$6branch17h1fb6432872eed07dE', symObjAddr: 0x62D4, symBinAddr: 0x40F2C, symSize: 0x38 }
  - { offset: 0x11EDA1, size: 0x8, addend: 0x0, symName: '__ZN79_$LT$core..result..Result$LT$T$C$E$GT$$u20$as$u20$core..ops..try_trait..Try$GT$6branch17h5dc244b46c87f7eaE', symObjAddr: 0x6734, symBinAddr: 0x40F64, symSize: 0x94 }
  - { offset: 0x11EE1E, size: 0x8, addend: 0x0, symName: '__ZN79_$LT$core..result..Result$LT$T$C$E$GT$$u20$as$u20$core..ops..try_trait..Try$GT$6branch17h737e78c888b9380fE', symObjAddr: 0x69C8, symBinAddr: 0x40FF8, symSize: 0x94 }
  - { offset: 0x11EE9C, size: 0x8, addend: 0x0, symName: '__ZN79_$LT$core..result..Result$LT$T$C$E$GT$$u20$as$u20$core..ops..try_trait..Try$GT$6branch17h748e904639c1a239E', symObjAddr: 0x6ADC, symBinAddr: 0x4108C, symSize: 0x94 }
  - { offset: 0x11EF19, size: 0x8, addend: 0x0, symName: '__ZN79_$LT$core..result..Result$LT$T$C$E$GT$$u20$as$u20$core..ops..try_trait..Try$GT$6branch17h75faeda6639bd0c6E', symObjAddr: 0x6B70, symBinAddr: 0x41120, symSize: 0x28 }
  - { offset: 0x11EF77, size: 0x8, addend: 0x0, symName: '__ZN79_$LT$core..result..Result$LT$T$C$E$GT$$u20$as$u20$core..ops..try_trait..Try$GT$6branch17h773e23c5b8e0c3f8E', symObjAddr: 0x6B98, symBinAddr: 0x41148, symSize: 0x94 }
  - { offset: 0x11EFF4, size: 0x8, addend: 0x0, symName: '__ZN79_$LT$core..result..Result$LT$T$C$E$GT$$u20$as$u20$core..ops..try_trait..Try$GT$6branch17h7acca12425e21e26E', symObjAddr: 0x6C2C, symBinAddr: 0x411DC, symSize: 0x28 }
  - { offset: 0x11F052, size: 0x8, addend: 0x0, symName: '__ZN79_$LT$core..result..Result$LT$T$C$E$GT$$u20$as$u20$core..ops..try_trait..Try$GT$6branch17h7cff2e4ba6476bd9E', symObjAddr: 0x6CDC, symBinAddr: 0x41204, symSize: 0x74 }
  - { offset: 0x11F0CF, size: 0x8, addend: 0x0, symName: '__ZN79_$LT$core..result..Result$LT$T$C$E$GT$$u20$as$u20$core..ops..try_trait..Try$GT$6branch17h81f0543ccf726c0bE', symObjAddr: 0x6DD0, symBinAddr: 0x41278, symSize: 0x80 }
  - { offset: 0x11F14D, size: 0x8, addend: 0x0, symName: '__ZN79_$LT$core..result..Result$LT$T$C$E$GT$$u20$as$u20$core..ops..try_trait..Try$GT$6branch17h912e85adc1901651E', symObjAddr: 0x6ED0, symBinAddr: 0x412F8, symSize: 0xB0 }
  - { offset: 0x11F1CA, size: 0x8, addend: 0x0, symName: '__ZN79_$LT$core..result..Result$LT$T$C$E$GT$$u20$as$u20$core..ops..try_trait..Try$GT$6branch17h9ad37f8a33a15929E', symObjAddr: 0x7100, symBinAddr: 0x413A8, symSize: 0x8C }
  - { offset: 0x11F248, size: 0x8, addend: 0x0, symName: '__ZN79_$LT$core..result..Result$LT$T$C$E$GT$$u20$as$u20$core..ops..try_trait..Try$GT$6branch17ha0efc1fa5a6a8542E', symObjAddr: 0x718C, symBinAddr: 0x41434, symSize: 0x8C }
  - { offset: 0x11F2C6, size: 0x8, addend: 0x0, symName: '__ZN79_$LT$core..result..Result$LT$T$C$E$GT$$u20$as$u20$core..ops..try_trait..Try$GT$6branch17hb3c650b92a9923a5E', symObjAddr: 0x72A0, symBinAddr: 0x414C0, symSize: 0x80 }
  - { offset: 0x11F344, size: 0x8, addend: 0x0, symName: '__ZN79_$LT$core..result..Result$LT$T$C$E$GT$$u20$as$u20$core..ops..try_trait..Try$GT$6branch17hb478bf3b6c69e6fcE', symObjAddr: 0x7320, symBinAddr: 0x41540, symSize: 0x8C }
  - { offset: 0x11F3C2, size: 0x8, addend: 0x0, symName: '__ZN79_$LT$core..result..Result$LT$T$C$E$GT$$u20$as$u20$core..ops..try_trait..Try$GT$6branch17hc3d768c02ae6caffE', symObjAddr: 0x74C8, symBinAddr: 0x415CC, symSize: 0x80 }
  - { offset: 0x11F440, size: 0x8, addend: 0x0, symName: '__ZN79_$LT$core..result..Result$LT$T$C$E$GT$$u20$as$u20$core..ops..try_trait..Try$GT$6branch17hc4abccefcfaa5555E', symObjAddr: 0x7548, symBinAddr: 0x4164C, symSize: 0x94 }
  - { offset: 0x11F4BD, size: 0x8, addend: 0x0, symName: '__ZN79_$LT$core..result..Result$LT$T$C$E$GT$$u20$as$u20$core..ops..try_trait..Try$GT$6branch17hd6493a98ea7a977cE', symObjAddr: 0x765C, symBinAddr: 0x416E0, symSize: 0xA0 }
  - { offset: 0x11F53A, size: 0x8, addend: 0x0, symName: '__ZN79_$LT$core..result..Result$LT$T$C$E$GT$$u20$as$u20$core..ops..try_trait..Try$GT$6branch17hd9dc0c63a56e0de2E', symObjAddr: 0x7784, symBinAddr: 0x41780, symSize: 0x88 }
  - { offset: 0x11F5B8, size: 0x8, addend: 0x0, symName: '__ZN79_$LT$core..result..Result$LT$T$C$E$GT$$u20$as$u20$core..ops..try_trait..Try$GT$6branch17he852df88f9eac793E', symObjAddr: 0x799C, symBinAddr: 0x41808, symSize: 0x80 }
  - { offset: 0x11F636, size: 0x8, addend: 0x0, symName: '__ZN79_$LT$core..result..Result$LT$T$C$E$GT$$u20$as$u20$core..ops..try_trait..Try$GT$6branch17hf81ae342a0c7554eE', symObjAddr: 0x7AA4, symBinAddr: 0x41888, symSize: 0xB8 }
  - { offset: 0x11F6B3, size: 0x8, addend: 0x0, symName: '__ZN79_$LT$core..result..Result$LT$T$C$E$GT$$u20$as$u20$core..ops..try_trait..Try$GT$6branch17hf8d6052b25e41ae9E', symObjAddr: 0x7B5C, symBinAddr: 0x41940, symSize: 0x80 }
  - { offset: 0x1206FF, size: 0x8, addend: 0x0, symName: '__ZN4core4hash5impls50_$LT$impl$u20$core..hash..Hash$u20$for$u20$str$GT$4hash17h9cd5893f7f00a0e5E', symObjAddr: 0x1E70, symBinAddr: 0x3FF24, symSize: 0x48 }
  - { offset: 0x120747, size: 0x8, addend: 0x0, symName: '__ZN4core4hash5impls52_$LT$impl$u20$core..hash..Hash$u20$for$u20$$RF$T$GT$4hash17hc8b81b320187167dE', symObjAddr: 0x1EB8, symBinAddr: 0x3FF6C, symSize: 0x30 }
  - { offset: 0x120792, size: 0x8, addend: 0x0, symName: '__ZN4core4hash5impls52_$LT$impl$u20$core..hash..Hash$u20$for$u20$$RF$T$GT$4hash17hf95fa5131c6506d7E', symObjAddr: 0x1EE8, symBinAddr: 0x3FF9C, symSize: 0x3C }
  - { offset: 0x122492, size: 0x8, addend: 0x0, symName: '__ZN152_$LT$core..result..Result$LT$pyo3..instance..Bound$LT$pyo3..types..any..PyAny$GT$$C$pyo3..err..PyErr$GT$$u20$as$u20$pyo3..py_result_ext..PyResultExt$GT$23downcast_into_unchecked17h5f9d7a5fdb69f7faE', symObjAddr: 0x388, symBinAddr: 0x3F934, symSize: 0x34 }
  - { offset: 0x123BEB, size: 0x8, addend: 0x0, symName: __ZN3std6thread6thread6Thread2id17h05e763664cab4a6dE, symObjAddr: 0x1E54, symBinAddr: 0x3FF08, symSize: 0x1C }
  - { offset: 0x123CF2, size: 0x8, addend: 0x0, symName: '__ZN4core6result19Result$LT$T$C$E$GT$14unwrap_or_else17h99710f69e27b3621E', symObjAddr: 0x20D8, symBinAddr: 0x40000, symSize: 0x7C }
  - { offset: 0x123D6B, size: 0x8, addend: 0x0, symName: '__ZN4core6result19Result$LT$T$C$E$GT$2ok17h6a72924d144fc7c3E', symObjAddr: 0x21DC, symBinAddr: 0x4007C, symSize: 0x58 }
  - { offset: 0x123DE3, size: 0x8, addend: 0x0, symName: '__ZN4core6result19Result$LT$T$C$E$GT$3map17h0130279bf006bcfdE', symObjAddr: 0x22A4, symBinAddr: 0x400D4, symSize: 0xAC }
  - { offset: 0x123E90, size: 0x8, addend: 0x0, symName: '__ZN4core6result19Result$LT$T$C$E$GT$3map17h06ec4befd980c87fE', symObjAddr: 0x2350, symBinAddr: 0x40180, symSize: 0x8C }
  - { offset: 0x123F23, size: 0x8, addend: 0x0, symName: '__ZN4core6result19Result$LT$T$C$E$GT$3map17h0a52f1090b42af94E', symObjAddr: 0x23DC, symBinAddr: 0x4020C, symSize: 0x8C }
  - { offset: 0x12403D, size: 0x8, addend: 0x0, symName: '__ZN4core6result19Result$LT$T$C$E$GT$3map17h566a530c5e8d1be0E', symObjAddr: 0x2BF4, symBinAddr: 0x40298, symSize: 0x80 }
  - { offset: 0x1240F5, size: 0x8, addend: 0x0, symName: '__ZN4core6result19Result$LT$T$C$E$GT$3map17h609335c505d30d99E', symObjAddr: 0x2DF4, symBinAddr: 0x40318, symSize: 0x90 }
  - { offset: 0x1242E0, size: 0x8, addend: 0x0, symName: '__ZN4core6result19Result$LT$T$C$E$GT$3map17hcde35a3bb22d43ecE', symObjAddr: 0x3480, symBinAddr: 0x403A8, symSize: 0x98 }
  - { offset: 0x1243CF, size: 0x8, addend: 0x0, symName: '__ZN4core6result19Result$LT$T$C$E$GT$6expect17h2a000c4e3fd2e78bE', symObjAddr: 0x3AD8, symBinAddr: 0x40440, symSize: 0x84 }
  - { offset: 0x124431, size: 0x8, addend: 0x0, symName: '__ZN4core6result19Result$LT$T$C$E$GT$6expect17h2b5e28412fb6381bE', symObjAddr: 0x3B5C, symBinAddr: 0x404C4, symSize: 0xBC }
  - { offset: 0x124494, size: 0x8, addend: 0x0, symName: '__ZN4core6result19Result$LT$T$C$E$GT$6expect17h443ff7fbea4463beE', symObjAddr: 0x3C18, symBinAddr: 0x40580, symSize: 0xA8 }
  - { offset: 0x1244F7, size: 0x8, addend: 0x0, symName: '__ZN4core6result19Result$LT$T$C$E$GT$6expect17h570d88dd0bc75a2bE', symObjAddr: 0x3D68, symBinAddr: 0x40628, symSize: 0x78 }
  - { offset: 0x124559, size: 0x8, addend: 0x0, symName: '__ZN4core6result19Result$LT$T$C$E$GT$6expect17h7ee0c46eaadc666bE', symObjAddr: 0x3E88, symBinAddr: 0x406A0, symSize: 0x84 }
  - { offset: 0x1245BB, size: 0x8, addend: 0x0, symName: '__ZN4core6result19Result$LT$T$C$E$GT$6expect17ha5b0070bd7aded00E', symObjAddr: 0x3F0C, symBinAddr: 0x40724, symSize: 0x9C }
  - { offset: 0x124663, size: 0x8, addend: 0x0, symName: '__ZN4core6result19Result$LT$T$C$E$GT$7map_err17h7df526e69c27e5e3E', symObjAddr: 0x4BD0, symBinAddr: 0x407C0, symSize: 0x88 }
  - { offset: 0x1246FD, size: 0x8, addend: 0x0, symName: '__ZN4core6result19Result$LT$T$C$E$GT$7map_err17hba2c8580b56d3ce0E', symObjAddr: 0x4F58, symBinAddr: 0x40848, symSize: 0xA4 }
  - { offset: 0x124790, size: 0x8, addend: 0x0, symName: '__ZN4core6result19Result$LT$T$C$E$GT$7map_err17hd11ce61b336a1344E', symObjAddr: 0x516C, symBinAddr: 0x408EC, symSize: 0xB0 }
  - { offset: 0x124823, size: 0x8, addend: 0x0, symName: '__ZN4core6result19Result$LT$T$C$E$GT$7map_err17he6af06e4f5e82c0eE', symObjAddr: 0x524C, symBinAddr: 0x4099C, symSize: 0x9C }
  - { offset: 0x1248B6, size: 0x8, addend: 0x0, symName: '__ZN4core6result19Result$LT$T$C$E$GT$7map_err17hef5987f0a2a94889E', symObjAddr: 0x52E8, symBinAddr: 0x40A38, symSize: 0xB0 }
  - { offset: 0x124949, size: 0x8, addend: 0x0, symName: '__ZN4core6result19Result$LT$T$C$E$GT$7map_err17hff5a8cbbc4e1efbdE', symObjAddr: 0x5488, symBinAddr: 0x40AE8, symSize: 0xBC }
  - { offset: 0x124B13, size: 0x8, addend: 0x0, symName: '__ZN4core6result19Result$LT$T$C$E$GT$8as_deref17h0849af4d29c4138fE', symObjAddr: 0x58BC, symBinAddr: 0x40BA4, symSize: 0x9C }
  - { offset: 0x124BF9, size: 0x8, addend: 0x0, symName: '__ZN4core6result19Result$LT$T$C$E$GT$9unwrap_or17h726c451ef89cd1a3E', symObjAddr: 0x5958, symBinAddr: 0x40C40, symSize: 0x8C }
  - { offset: 0x124C3E, size: 0x8, addend: 0x0, symName: '__ZN4core6result19Result$LT$T$C$E$GT$9unwrap_or17he732d68f870ee35bE', symObjAddr: 0x59E4, symBinAddr: 0x40CCC, symSize: 0x70 }
  - { offset: 0x124C91, size: 0x8, addend: 0x0, symName: '__ZN82_$LT$lock_api..mutex..MutexGuard$LT$R$C$T$GT$$u20$as$u20$core..ops..drop..Drop$GT$4drop17hf06a89f33f63b5dfE', symObjAddr: 0x7BDC, symBinAddr: 0x419C0, symSize: 0x28 }
  - { offset: 0x124CD3, size: 0x8, addend: 0x0, symName: '__ZN84_$LT$lock_api..mutex..MutexGuard$LT$R$C$T$GT$$u20$as$u20$core..ops..deref..Deref$GT$5deref17hb9fa24b07b9f7aa7E', symObjAddr: 0x7C04, symBinAddr: 0x419E8, symSize: 0x24 }
  - { offset: 0x124D19, size: 0x8, addend: 0x0, symName: '__ZN87_$LT$lock_api..mutex..MutexGuard$LT$R$C$T$GT$$u20$as$u20$core..ops..deref..DerefMut$GT$9deref_mut17h4aeda47d066e66b7E', symObjAddr: 0x7C28, symBinAddr: 0x41A0C, symSize: 0x24 }
  - { offset: 0x124EAE, size: 0x8, addend: 0x0, symName: '__ZN8lock_api5mutex18Mutex$LT$R$C$T$GT$20make_guard_unchecked17h626b2f4b433ef0aaE', symObjAddr: 0x7C4C, symBinAddr: 0x41A30, symSize: 0x14 }
  - { offset: 0x124EE2, size: 0x8, addend: 0x0, symName: '__ZN8lock_api5mutex18Mutex$LT$R$C$T$GT$4lock17h688eb133dd5d7880E', symObjAddr: 0x7C60, symBinAddr: 0x41A44, symSize: 0x30 }
  - { offset: 0x125116, size: 0x8, addend: 0x0, symName: __ZN16parking_lot_core11parking_lot10unpark_all17h5c1f414bf1abc440E, symObjAddr: 0x1C, symBinAddr: 0x41A74, symSize: 0x458 }
  - { offset: 0x1252C4, size: 0x8, addend: 0x0, symName: __ZN16parking_lot_core11parking_lot10unpark_one17he295e1891d2a76d4E, symObjAddr: 0xA70, symBinAddr: 0x41ECC, symSize: 0x60C }
  - { offset: 0x125422, size: 0x8, addend: 0x0, symName: __ZN16parking_lot_core11parking_lot11lock_bucket17h1ce9aa3265f99d4cE, symObjAddr: 0x1128, symBinAddr: 0x42584, symSize: 0x100 }
  - { offset: 0x1254A2, size: 0x8, addend: 0x0, symName: __ZN16parking_lot_core11parking_lot13get_hashtable17h8fdaffe51c189ca6E, symObjAddr: 0x1228, symBinAddr: 0x42684, symSize: 0xA0 }
  - { offset: 0x1254E7, size: 0x8, addend: 0x0, symName: __ZN16parking_lot_core11parking_lot16with_thread_data11THREAD_DATA27__rust_std_internal_init_fn17hb3e863f40857ff1fE, symObjAddr: 0x511C, symBinAddr: 0x42724, symSize: 0x14 }
  - { offset: 0x125509, size: 0x8, addend: 0x0, symName: '__ZN16parking_lot_core11parking_lot16with_thread_data11THREAD_DATA29_$u7b$$u7b$constant$u7d$$u7d$28_$u7b$$u7b$closure$u7d$$u7d$17hde8457167604af3eE', symObjAddr: 0x5130, symBinAddr: 0x42738, symSize: 0x34 }
  - { offset: 0x125548, size: 0x8, addend: 0x0, symName: '__ZN16parking_lot_core11parking_lot16with_thread_data28_$u7b$$u7b$closure$u7d$$u7d$17h40d0e22ba335e084E', symObjAddr: 0x51D4, symBinAddr: 0x4276C, symSize: 0x14 }
  - { offset: 0x125590, size: 0x8, addend: 0x0, symName: '__ZN16parking_lot_core11parking_lot16with_thread_data28_$u7b$$u7b$closure$u7d$$u7d$17h65a9433b1b4bdb1cE', symObjAddr: 0x520C, symBinAddr: 0x42780, symSize: 0x24 }
  - { offset: 0x1255DA, size: 0x8, addend: 0x0, symName: '__ZN16parking_lot_core11parking_lot16with_thread_data28_$u7b$$u7b$closure$u7d$$u7d$17hb5ad41d60fe9b588E', symObjAddr: 0x5244, symBinAddr: 0x427A4, symSize: 0x14 }
  - { offset: 0x125622, size: 0x8, addend: 0x0, symName: '__ZN16parking_lot_core11parking_lot16with_thread_data28_$u7b$$u7b$closure$u7d$$u7d$17hf1069bb235071e73E', symObjAddr: 0x52A4, symBinAddr: 0x427B8, symSize: 0x24 }
  - { offset: 0x12567B, size: 0x8, addend: 0x0, symName: __ZN16parking_lot_core11parking_lot19lock_bucket_checked17hb52472dae2b768f6E, symObjAddr: 0x5340, symBinAddr: 0x427DC, symSize: 0x134 }
  - { offset: 0x125719, size: 0x8, addend: 0x0, symName: __ZN16parking_lot_core11parking_lot4hash17h3d11c087ad4db613E, symObjAddr: 0x5474, symBinAddr: 0x42910, symSize: 0x90 }
  - { offset: 0x125815, size: 0x8, addend: 0x0, symName: '__ZN16parking_lot_core11parking_lot4park28_$u7b$$u7b$closure$u7d$$u7d$17h1c4f25146886cd27E', symObjAddr: 0x6744, symBinAddr: 0x42C88, symSize: 0x7C4 }
  - { offset: 0x125A01, size: 0x8, addend: 0x0, symName: '__ZN16parking_lot_core11parking_lot4park28_$u7b$$u7b$closure$u7d$$u7d$17hff29eb234ae80a8fE', symObjAddr: 0x8E4C, symBinAddr: 0x4344C, symSize: 0x7BC }
  - { offset: 0x125C38, size: 0x8, addend: 0x0, symName: __ZN16parking_lot_core11parking_lot4park17h287a2c21541878f9E, symObjAddr: 0x5688, symBinAddr: 0x429A0, symSize: 0x178 }
  - { offset: 0x125D66, size: 0x8, addend: 0x0, symName: __ZN16parking_lot_core11parking_lot4park17h44102d6a96ef2a50E, symObjAddr: 0x5800, symBinAddr: 0x42B18, symSize: 0x170 }
  - { offset: 0x125E50, size: 0x8, addend: 0x0, symName: '__ZN86_$LT$parking_lot_core..parking_lot..UnparkResult$u20$as$u20$core..default..Default$GT$7default17h3514c5a8b4cea0a9E', symObjAddr: 0x97B0, symBinAddr: 0x43C34, symSize: 0x14 }
  - { offset: 0x125FDC, size: 0x8, addend: 0x0, symName: '__ZN4core3ptr9const_ptr66_$LT$impl$u20$core..cmp..PartialEq$u20$for$u20$$BP$const$u20$T$GT$2eq17h7e05189848ce25b9E', symObjAddr: 0x963C, symBinAddr: 0x43C08, symSize: 0x2C }
  - { offset: 0x126592, size: 0x8, addend: 0x0, symName: __ZN16parking_lot_core11parking_lot11FairTimeout14should_timeout17ha548d7afe172cc87E, symObjAddr: 0x107C, symBinAddr: 0x424D8, symSize: 0xAC }
  - { offset: 0x126A42, size: 0x8, addend: 0x0, symName: '__ZN8smallvec12layout_array28_$u7b$$u7b$closure$u7d$$u7d$17hb49f623d271e0e01E', symObjAddr: 0x5650, symBinAddr: 0x46AF4, symSize: 0x10 }
  - { offset: 0x126A86, size: 0x8, addend: 0x0, symName: '__ZN58_$LT$$u5b$T$u3b$$u20$8$u5d$$u20$as$u20$smallvec..Array$GT$4size17hf54813629ecaeb98E', symObjAddr: 0x436C, symBinAddr: 0x460B8, symSize: 0xC }
  - { offset: 0x126AB4, size: 0x8, addend: 0x0, symName: '__ZN65_$LT$smallvec..CollectionAllocErr$u20$as$u20$core..fmt..Debug$GT$3fmt17h1aa3aad15dcc979bE', symObjAddr: 0x4808, symBinAddr: 0x462DC, symSize: 0xAC }
  - { offset: 0x126B15, size: 0x8, addend: 0x0, symName: '__ZN69_$LT$smallvec..IntoIter$LT$A$GT$$u20$as$u20$core..ops..drop..Drop$GT$4drop17h77c441b114172355E', symObjAddr: 0x4944, symBinAddr: 0x46388, symSize: 0x44 }
  - { offset: 0x126B6C, size: 0x8, addend: 0x0, symName: '__ZN69_$LT$smallvec..SmallVec$LT$A$GT$$u20$as$u20$core..ops..drop..Drop$GT$4drop17h909f8b6fbb5da9a2E', symObjAddr: 0x4A0C, symBinAddr: 0x463CC, symSize: 0x84 }
  - { offset: 0x126BD3, size: 0x8, addend: 0x0, symName: '__ZN74_$LT$smallvec..SmallVec$LT$A$GT$$u20$as$u20$core..ops..deref..DerefMut$GT$9deref_mut17h17350bf86574a2b3E', symObjAddr: 0x4B28, symBinAddr: 0x4649C, symSize: 0x4C }
  - { offset: 0x126C3E, size: 0x8, addend: 0x0, symName: '__ZN83_$LT$smallvec..SmallVec$LT$A$GT$$u20$as$u20$core..ops..index..IndexMut$LT$I$GT$$GT$9index_mut17hadbf7b5100495ea6E', symObjAddr: 0x4EA4, symBinAddr: 0x466F8, symSize: 0xA0 }
  - { offset: 0x126CB1, size: 0x8, addend: 0x0, symName: '__ZN86_$LT$smallvec..IntoIter$LT$A$GT$$u20$as$u20$core..iter..traits..iterator..Iterator$GT$4next17h052c0b06e2f3f314E', symObjAddr: 0x4FE4, symBinAddr: 0x46798, symSize: 0xB8 }
  - { offset: 0x126D2A, size: 0x8, addend: 0x0, symName: '__ZN89_$LT$smallvec..SmallVec$LT$A$GT$$u20$as$u20$core..iter..traits..collect..IntoIterator$GT$9into_iter17he92fd7cafe9fdbf1E', symObjAddr: 0x521C, symBinAddr: 0x46850, symSize: 0xA8 }
  - { offset: 0x126D81, size: 0x8, addend: 0x0, symName: __ZN8smallvec10deallocate17hcfec27b6a901ac4eE, symObjAddr: 0x5380, symBinAddr: 0x468F8, symSize: 0xBC }
  - { offset: 0x126E19, size: 0x8, addend: 0x0, symName: __ZN8smallvec10infallible17h1a92b616e1719a62E, symObjAddr: 0x543C, symBinAddr: 0x469B4, symSize: 0x7C }
  - { offset: 0x126E6F, size: 0x8, addend: 0x0, symName: __ZN8smallvec12ConstNonNull17h974528b1eefa7cc9E, symObjAddr: 0x54CC, symBinAddr: 0x46A30, symSize: 0x14 }
  - { offset: 0x126EA3, size: 0x8, addend: 0x0, symName: __ZN8smallvec12layout_array17h03bbff26b45720adE, symObjAddr: 0x54E0, symBinAddr: 0x46A44, symSize: 0xB0 }
  - { offset: 0x1275C3, size: 0x8, addend: 0x0, symName: __ZN4core3ptr9alignment9Alignment13new_unchecked18precondition_check17hfe5fcc6b77f662bfE, symObjAddr: 0x3464, symBinAddr: 0x455CC, symSize: 0x70 }
  - { offset: 0x12775F, size: 0x8, addend: 0x0, symName: '__ZN4core3ptr8non_null16NonNull$LT$T$GT$13new_unchecked18precondition_check17h449555391b042dc1E', symObjAddr: 0x3240, symBinAddr: 0x45414, symSize: 0x58 }
  - { offset: 0x1279F7, size: 0x8, addend: 0x0, symName: '__ZN4core3ptr101drop_in_place$LT$alloc..raw_vec..RawVec$LT$parking_lot_core..thread_parker..imp..UnparkHandle$GT$$GT$17h933ebf1f022171c4E', symObjAddr: 0x2D94, symBinAddr: 0x450B4, symSize: 0x24 }
  - { offset: 0x127A26, size: 0x8, addend: 0x0, symName: '__ZN4core3ptr118drop_in_place$LT$smallvec..IntoIter$LT$$u5b$parking_lot_core..thread_parker..imp..UnparkHandle$u3b$$u20$8$u5d$$GT$$GT$17h91c896fc2c2619beE', symObjAddr: 0x2DB8, symBinAddr: 0x450D8, symSize: 0x5C }
  - { offset: 0x127A55, size: 0x8, addend: 0x0, symName: '__ZN4core3ptr118drop_in_place$LT$smallvec..SmallVec$LT$$u5b$parking_lot_core..thread_parker..imp..UnparkHandle$u3b$$u20$8$u5d$$GT$$GT$17h1cc29ea108556ac4E', symObjAddr: 0x2E14, symBinAddr: 0x45134, symSize: 0x24 }
  - { offset: 0x127A89, size: 0x8, addend: 0x0, symName: __ZN4core3ptr19copy_nonoverlapping18precondition_check17ha5f9dd25f4aad931E, symObjAddr: 0x2EB8, symBinAddr: 0x45158, symSize: 0x168 }
  - { offset: 0x127C3E, size: 0x8, addend: 0x0, symName: __ZN4core3ptr4read17h93a11c577f2e6545E, symObjAddr: 0x30C8, symBinAddr: 0x452C0, symSize: 0x18 }
  - { offset: 0x127C75, size: 0x8, addend: 0x0, symName: __ZN4core3ptr5write17hcd40b4a3ec0e8bf4E, symObjAddr: 0x3104, symBinAddr: 0x452D8, symSize: 0x20 }
  - { offset: 0x127CB7, size: 0x8, addend: 0x0, symName: '__ZN4core3ptr62drop_in_place$LT$parking_lot_core..parking_lot..ThreadData$GT$17h9e35514d687981a7E', symObjAddr: 0x3124, symBinAddr: 0x452F8, symSize: 0x5C }
  - { offset: 0x127CE6, size: 0x8, addend: 0x0, symName: '__ZN4core3ptr72drop_in_place$LT$parking_lot..once..Once..call_once_slow..PanicGuard$GT$17h181318b6883fd9f8E', symObjAddr: 0x3180, symBinAddr: 0x45354, symSize: 0x24 }
  - { offset: 0x127D1A, size: 0x8, addend: 0x0, symName: __ZN4core3ptr7replace18precondition_check17h2fd8664d6523c5f0E, symObjAddr: 0x31A4, symBinAddr: 0x45378, symSize: 0x9C }
  - { offset: 0x127DED, size: 0x8, addend: 0x0, symName: '__ZN4core3ptr90drop_in_place$LT$core..option..Option$LT$parking_lot_core..parking_lot..ThreadData$GT$$GT$17h5d64e5553716285aE', symObjAddr: 0x33C8, symBinAddr: 0x45530, symSize: 0x40 }
  - { offset: 0x127E1C, size: 0x8, addend: 0x0, symName: '__ZN4core3ptr94drop_in_place$LT$alloc..vec..Vec$LT$parking_lot_core..thread_parker..imp..UnparkHandle$GT$$GT$17h765d92d1ead28ba7E', symObjAddr: 0x3408, symBinAddr: 0x45570, symSize: 0x5C }
  - { offset: 0x128277, size: 0x8, addend: 0x0, symName: __ZN4core3mem4drop17h45b529f21c11e439E, symObjAddr: 0x1F60, symBinAddr: 0x44B8C, symSize: 0x14 }
  - { offset: 0x1282AB, size: 0x8, addend: 0x0, symName: __ZN4core3mem6forget17h2de8dd9739e7ed3dE, symObjAddr: 0x1F88, symBinAddr: 0x44BA0, symSize: 0x10 }
  - { offset: 0x128E37, size: 0x8, addend: 0x0, symName: '__ZN4core3num21_$LT$impl$u20$i64$GT$11checked_add17h736fc105c74e72fcE', symObjAddr: 0x1F98, symBinAddr: 0x44BB0, symSize: 0x6C }
  - { offset: 0x128EEC, size: 0x8, addend: 0x0, symName: '__ZN4core3num23_$LT$impl$u20$usize$GT$11checked_add17ha6517c87e0762fabE', symObjAddr: 0x2004, symBinAddr: 0x44C1C, symSize: 0x7C }
  - { offset: 0x128F71, size: 0x8, addend: 0x0, symName: '__ZN4core3num23_$LT$impl$u20$usize$GT$11checked_mul17h23689ddf81c5d56cE', symObjAddr: 0x2080, symBinAddr: 0x44C98, symSize: 0x74 }
  - { offset: 0x129087, size: 0x8, addend: 0x0, symName: '__ZN4core3num23_$LT$impl$u20$usize$GT$25checked_next_power_of_two17haadd41ea64103573E', symObjAddr: 0x20F4, symBinAddr: 0x44D0C, symSize: 0xC0 }
  - { offset: 0x12928F, size: 0x8, addend: 0x0, symName: '__ZN153_$LT$core..result..Result$LT$T$C$F$GT$$u20$as$u20$core..ops..try_trait..FromResidual$LT$core..result..Result$LT$core..convert..Infallible$C$E$GT$$GT$$GT$13from_residual17h6e46397ec9a8f07aE', symObjAddr: 0x129C, symBinAddr: 0x44514, symSize: 0x38 }
  - { offset: 0x1292F6, size: 0x8, addend: 0x0, symName: '__ZN153_$LT$core..result..Result$LT$T$C$F$GT$$u20$as$u20$core..ops..try_trait..FromResidual$LT$core..result..Result$LT$core..convert..Infallible$C$E$GT$$GT$$GT$13from_residual17hde3ec54c4fb06f9bE', symObjAddr: 0x12D4, symBinAddr: 0x4454C, symSize: 0x24 }
  - { offset: 0x1294E6, size: 0x8, addend: 0x0, symName: '__ZN79_$LT$core..result..Result$LT$T$C$E$GT$$u20$as$u20$core..ops..try_trait..Try$GT$6branch17h5f1aead87e45bf84E', symObjAddr: 0x4CA8, symBinAddr: 0x4659C, symSize: 0x70 }
  - { offset: 0x129563, size: 0x8, addend: 0x0, symName: '__ZN79_$LT$core..result..Result$LT$T$C$E$GT$$u20$as$u20$core..ops..try_trait..Try$GT$6branch17h7e3f306f9cfba8dfE', symObjAddr: 0x4D18, symBinAddr: 0x4660C, symSize: 0x70 }
  - { offset: 0x1295E0, size: 0x8, addend: 0x0, symName: '__ZN79_$LT$core..result..Result$LT$T$C$E$GT$$u20$as$u20$core..ops..try_trait..Try$GT$6branch17he65380115be7a3ccE', symObjAddr: 0x4D88, symBinAddr: 0x4667C, symSize: 0x74 }
  - { offset: 0x129F03, size: 0x8, addend: 0x0, symName: __ZN4core4hint21unreachable_unchecked18precondition_check17h2e2396c349271a7fE, symObjAddr: 0x3580, symBinAddr: 0x4568C, symSize: 0x3C }
  - { offset: 0x12A178, size: 0x8, addend: 0x0, symName: __ZN4core3ops8function6FnOnce9call_once17h0c90164540faec1dE, symObjAddr: 0x22D0, symBinAddr: 0x44DCC, symSize: 0x4C }
  - { offset: 0x12A1BC, size: 0x8, addend: 0x0, symName: __ZN4core3ops8function6FnOnce9call_once17h182d7841a8e3aa4cE, symObjAddr: 0x2374, symBinAddr: 0x44E18, symSize: 0x24 }
  - { offset: 0x12A200, size: 0x8, addend: 0x0, symName: __ZN4core3ops8function6FnOnce9call_once17h1f4c02f93a284b00E, symObjAddr: 0x23D4, symBinAddr: 0x44E3C, symSize: 0x4C }
  - { offset: 0x12A244, size: 0x8, addend: 0x0, symName: __ZN4core3ops8function6FnOnce9call_once17h4eeeb3c5706cf336E, symObjAddr: 0x25C0, symBinAddr: 0x44E88, symSize: 0x1C }
  - { offset: 0x12A288, size: 0x8, addend: 0x0, symName: __ZN4core3ops8function6FnOnce9call_once17h64e6aeae43ebebb2E, symObjAddr: 0x26D0, symBinAddr: 0x44EA4, symSize: 0x50 }
  - { offset: 0x12A2C8, size: 0x8, addend: 0x0, symName: __ZN4core3ops8function6FnOnce9call_once17h9840a1ce7b910f45E, symObjAddr: 0x27DC, symBinAddr: 0x44EF4, symSize: 0x1C }
  - { offset: 0x12A30C, size: 0x8, addend: 0x0, symName: __ZN4core3ops8function6FnOnce9call_once17ha51a4394537bf0eeE, symObjAddr: 0x2864, symBinAddr: 0x44F10, symSize: 0x3C }
  - { offset: 0x12A34C, size: 0x8, addend: 0x0, symName: __ZN4core3ops8function6FnOnce9call_once17hbbd265f76b576a2aE, symObjAddr: 0x2A38, symBinAddr: 0x44F4C, symSize: 0x3C }
  - { offset: 0x12A38C, size: 0x8, addend: 0x0, symName: __ZN4core3ops8function6FnOnce9call_once17hbcb8c9810c416f43E, symObjAddr: 0x2A74, symBinAddr: 0x44F88, symSize: 0x24 }
  - { offset: 0x12A3D0, size: 0x8, addend: 0x0, symName: __ZN4core3ops8function6FnOnce9call_once17hc9c2c49a36926a21E, symObjAddr: 0x2B20, symBinAddr: 0x44FAC, symSize: 0x58 }
  - { offset: 0x12A410, size: 0x8, addend: 0x0, symName: __ZN4core3ops8function6FnOnce9call_once17hcc588d40a7346483E, symObjAddr: 0x2B78, symBinAddr: 0x45004, symSize: 0x64 }
  - { offset: 0x12A454, size: 0x8, addend: 0x0, symName: __ZN4core3ops8function6FnOnce9call_once17hcd73817214e90bbdE, symObjAddr: 0x2BDC, symBinAddr: 0x45068, symSize: 0x4C }
  - { offset: 0x12A8BA, size: 0x8, addend: 0x0, symName: __ZN4core9ub_checks23maybe_is_nonoverlapping7runtime17hc7ec00a710453fe0E, symObjAddr: 0x4294, symBinAddr: 0x45FE0, symSize: 0xD8 }
  - { offset: 0x12AADE, size: 0x8, addend: 0x0, symName: __ZN4core5slice3raw18from_raw_parts_mut17hf81918f578859735E, symObjAddr: 0x3848, symBinAddr: 0x458F8, symSize: 0x58 }
  - { offset: 0x12AB26, size: 0x8, addend: 0x0, symName: __ZN4core5slice3raw18from_raw_parts_mut18precondition_check17haa4409dba26b9b12E, symObjAddr: 0x38A0, symBinAddr: 0x45950, symSize: 0x10C }
  - { offset: 0x12AC87, size: 0x8, addend: 0x0, symName: '__ZN97_$LT$core..ops..range..RangeFull$u20$as$u20$core..slice..index..SliceIndex$LT$$u5b$T$u5d$$GT$$GT$9index_mut17h910435a4d582795dE', symObjAddr: 0x7068, symBinAddr: 0x476F4, symSize: 0x18 }
  - { offset: 0x12ACE0, size: 0x8, addend: 0x0, symName: '__ZN63_$LT$I$u20$as$u20$core..iter..traits..collect..IntoIterator$GT$9into_iter17hbfe202354abb7890E', symObjAddr: 0x46F8, symBinAddr: 0x46298, symSize: 0x14 }
  - { offset: 0x12AD17, size: 0x8, addend: 0x0, symName: '__ZN63_$LT$I$u20$as$u20$core..iter..traits..collect..IntoIterator$GT$9into_iter17he3040b6cc3c87ea6E', symObjAddr: 0x470C, symBinAddr: 0x462AC, symSize: 0x30 }
  - { offset: 0x12AD5B, size: 0x8, addend: 0x0, symName: '__ZN72_$LT$$RF$mut$u20$I$u20$as$u20$core..iter..traits..iterator..Iterator$GT$4next17hfcffdb197a70b3b3E', symObjAddr: 0x4B00, symBinAddr: 0x46474, symSize: 0x28 }
  - { offset: 0x12AE14, size: 0x8, addend: 0x0, symName: '__ZN11parking_lot4once4Once14call_once_slow28_$u7b$$u7b$closure$u7d$$u7d$17h674e1cd895cfc8fdE', symObjAddr: 0xB2C, symBinAddr: 0x44498, symSize: 0x34 }
  - { offset: 0x12AE50, size: 0x8, addend: 0x0, symName: '__ZN11parking_lot4once4Once14call_once_slow28_$u7b$$u7b$closure$u7d$$u7d$17h936f07d8a975607aE', symObjAddr: 0xB60, symBinAddr: 0x444CC, symSize: 0x38 }
  - { offset: 0x12AE80, size: 0x8, addend: 0x0, symName: '__ZN11parking_lot4once4Once14call_once_slow28_$u7b$$u7b$closure$u7d$$u7d$17hc168b59e9077fd56E', symObjAddr: 0xB98, symBinAddr: 0x44504, symSize: 0x10 }
  - { offset: 0x12AEAB, size: 0x8, addend: 0x0, symName: '__ZN93_$LT$parking_lot..once..Once..call_once_slow..PanicGuard$u20$as$u20$core..ops..drop..Drop$GT$4drop17hdcf0b6de26080203E', symObjAddr: 0x6F74, symBinAddr: 0x4769C, symSize: 0x58 }
  - { offset: 0x12B01A, size: 0x8, addend: 0x0, symName: __ZN3std3sys12thread_local20abort_on_dtor_unwind17hbc1351be235c08fdE, symObjAddr: 0x17E4, symBinAddr: 0x4496C, symSize: 0x50 }
  - { offset: 0x12B0C1, size: 0x8, addend: 0x0, symName: '__ZN77_$LT$std..sys..pal..unix..time..Timespec$u20$as$u20$core..cmp..PartialOrd$GT$11partial_cmp17hfce083005b253080E', symObjAddr: 0x4C24, symBinAddr: 0x46518, symSize: 0x84 }
  - { offset: 0x12B377, size: 0x8, addend: 0x0, symName: __ZN16parking_lot_core11parking_lot8deadlock9on_unpark17h3c55e1060fa64c25E, symObjAddr: 0x1318, symBinAddr: 0x44570, symSize: 0x10 }
  - { offset: 0x12B541, size: 0x8, addend: 0x0, symName: '__ZN117_$LT$parking_lot_core..thread_parker..imp..ThreadParker$u20$as$u20$parking_lot_core..thread_parker..ThreadParkerT$GT$10park_until17hec070b99eb76d745E', symObjAddr: 0x38, symBinAddr: 0x43C48, symSize: 0x314 }
  - { offset: 0x12B724, size: 0x8, addend: 0x0, symName: '__ZN117_$LT$parking_lot_core..thread_parker..imp..ThreadParker$u20$as$u20$parking_lot_core..thread_parker..ThreadParkerT$GT$11unpark_lock17hae5f3079a2bb748eE', symObjAddr: 0x34C, symBinAddr: 0x43F5C, symSize: 0x8C }
  - { offset: 0x12B7B6, size: 0x8, addend: 0x0, symName: '__ZN117_$LT$parking_lot_core..thread_parker..imp..ThreadParker$u20$as$u20$parking_lot_core..thread_parker..ThreadParkerT$GT$12prepare_park17hdc943542c5553150E', symObjAddr: 0x3D8, symBinAddr: 0x43FE8, symSize: 0x64 }
  - { offset: 0x12B7DE, size: 0x8, addend: 0x0, symName: '__ZN117_$LT$parking_lot_core..thread_parker..imp..ThreadParker$u20$as$u20$parking_lot_core..thread_parker..ThreadParkerT$GT$4park17h3462e194c819146fE', symObjAddr: 0x43C, symBinAddr: 0x4404C, symSize: 0x170 }
  - { offset: 0x12B90A, size: 0x8, addend: 0x0, symName: '__ZN117_$LT$parking_lot_core..thread_parker..imp..ThreadParker$u20$as$u20$parking_lot_core..thread_parker..ThreadParkerT$GT$9timed_out17hf74001fef9683d3aE', symObjAddr: 0x5AC, symBinAddr: 0x441BC, symSize: 0x100 }
  - { offset: 0x12BA25, size: 0x8, addend: 0x0, symName: '__ZN117_$LT$parking_lot_core..thread_parker..imp..UnparkHandle$u20$as$u20$parking_lot_core..thread_parker..UnparkHandleT$GT$6unpark17h53bcdd124b4c2a89E', symObjAddr: 0x6AC, symBinAddr: 0x442BC, symSize: 0x1DC }
  - { offset: 0x12BB45, size: 0x8, addend: 0x0, symName: __ZN16parking_lot_core13thread_parker3imp12thread_yield17h1f34d950c8ad9828E, symObjAddr: 0x1338, symBinAddr: 0x44590, symSize: 0x14 }
  - { offset: 0x12BB5E, size: 0x8, addend: 0x0, symName: __ZN16parking_lot_core13thread_parker3imp12timespec_now17hfae7f4a0f08ffe53E, symObjAddr: 0x134C, symBinAddr: 0x445A4, symSize: 0xF8 }
  - { offset: 0x12BC7B, size: 0x8, addend: 0x0, symName: __ZN16parking_lot_core13thread_parker3imp19timeout_to_timespec17ha4f8c7bdc8ed1832E, symObjAddr: 0x1444, symBinAddr: 0x4469C, symSize: 0x12C }
  - { offset: 0x12BCEB, size: 0x8, addend: 0x0, symName: '__ZN16parking_lot_core13thread_parker3imp19timeout_to_timespec28_$u7b$$u7b$closure$u7d$$u7d$17h82881864ac776418E', symObjAddr: 0x1570, symBinAddr: 0x447C8, symSize: 0x24 }
  - { offset: 0x12BD27, size: 0x8, addend: 0x0, symName: '__ZN16parking_lot_core13thread_parker3imp19timeout_to_timespec28_$u7b$$u7b$closure$u7d$$u7d$17h9d04591d63d99102E', symObjAddr: 0x1594, symBinAddr: 0x447EC, symSize: 0x28 }
  - { offset: 0x12BDEF, size: 0x8, addend: 0x0, symName: __ZN16parking_lot_core8spinwait9cpu_relax17hbd8761cb8d672b0eE, symObjAddr: 0x1790, symBinAddr: 0x44918, symSize: 0x54 }
  - { offset: 0x12BE89, size: 0x8, addend: 0x0, symName: '__ZN79_$LT$parking_lot_core..spinwait..SpinWait$u20$as$u20$core..default..Default$GT$7default17h1fec37e433f92481E', symObjAddr: 0x4DFC, symBinAddr: 0x466F0, symSize: 0x8 }
  - { offset: 0x12BF13, size: 0x8, addend: 0x0, symName: __ZN11parking_lot4once4Once14call_once_slow17ha1ce7b818cc761d4E, symObjAddr: 0x888, symBinAddr: 0x8ADF0, symSize: 0x2A4 }
  - { offset: 0x12C187, size: 0x8, addend: 0x0, symName: __ZN16parking_lot_core13thread_parker3imp12ThreadParker4init17hf2070760762d8355E, symObjAddr: 0x1328, symBinAddr: 0x44580, symSize: 0x10 }
  - { offset: 0x12C245, size: 0x8, addend: 0x0, symName: __ZN16parking_lot_core8spinwait8SpinWait3new17h8e4cef29fd974dceE, symObjAddr: 0x168C, symBinAddr: 0x44814, symSize: 0x14 }
  - { offset: 0x12C258, size: 0x8, addend: 0x0, symName: __ZN16parking_lot_core8spinwait8SpinWait4spin17hbbdc804fcb50b9bbE, symObjAddr: 0x16A0, symBinAddr: 0x44828, symSize: 0xD8 }
  - { offset: 0x12C27A, size: 0x8, addend: 0x0, symName: __ZN16parking_lot_core8spinwait8SpinWait5reset17h3a20227eb466d208E, symObjAddr: 0x1778, symBinAddr: 0x44900, symSize: 0x18 }
  - { offset: 0x12C343, size: 0x8, addend: 0x0, symName: '__ZN3std6thread5local17LocalKey$LT$T$GT$8try_with17h8293d2075ad008c2E', symObjAddr: 0x1A2C, symBinAddr: 0x449BC, symSize: 0xD8 }
  - { offset: 0x12C4C5, size: 0x8, addend: 0x0, symName: '__ZN3std6thread5local17LocalKey$LT$T$GT$8try_with17hb9ced91688f79df3E', symObjAddr: 0x1D8C, symBinAddr: 0x44A94, symSize: 0xD8 }
  - { offset: 0x12C699, size: 0x8, addend: 0x0, symName: __ZN4core3fmt9Arguments8from_str17h7ec6feb6cb1a3929E, symObjAddr: 0x1F40, symBinAddr: 0x44B6C, symSize: 0x20 }
  - { offset: 0x12C73A, size: 0x8, addend: 0x0, symName: '__ZN4core3ptr8non_null16NonNull$LT$T$GT$3new17h763b05ff86955534E', symObjAddr: 0x3298, symBinAddr: 0x4546C, symSize: 0x58 }
  - { offset: 0x12C7DC, size: 0x8, addend: 0x0, symName: '__ZN4core3ptr8non_null16NonNull$LT$T$GT$3new17h81f83a721348da46E', symObjAddr: 0x3348, symBinAddr: 0x454C4, symSize: 0x58 }
  - { offset: 0x12C81E, size: 0x8, addend: 0x0, symName: '__ZN4core3ptr8non_null16NonNull$LT$T$GT$4cast17h1491af9054021c57E', symObjAddr: 0x33A0, symBinAddr: 0x4551C, symSize: 0x14 }
  - { offset: 0x12C860, size: 0x8, addend: 0x0, symName: '__ZN4core4cell13Cell$LT$T$GT$3get17h900789e202e5cf3dE', symObjAddr: 0x34EC, symBinAddr: 0x4563C, symSize: 0x18 }
  - { offset: 0x12C8C1, size: 0x8, addend: 0x0, symName: '__ZN4core4cell13Cell$LT$T$GT$3set17hc54d9c1d3d946c15E', symObjAddr: 0x3548, symBinAddr: 0x45654, symSize: 0x1C }
  - { offset: 0x12C95F, size: 0x8, addend: 0x0, symName: '__ZN4core4cell13Cell$LT$T$GT$3set17hcac84ba6bc2edd0aE', symObjAddr: 0x3564, symBinAddr: 0x45670, symSize: 0x1C }
  - { offset: 0x12C9E2, size: 0x8, addend: 0x0, symName: __ZN4core4time8Duration12subsec_nanos17h7a456cdbbfb3205bE, symObjAddr: 0x35BC, symBinAddr: 0x456C8, symSize: 0x18 }
  - { offset: 0x12CA3D, size: 0x8, addend: 0x0, symName: __ZN4core4time8Duration3new17hf9030df9733ef67bE, symObjAddr: 0x35D4, symBinAddr: 0x456E0, symSize: 0x124 }
  - { offset: 0x12CB01, size: 0x8, addend: 0x0, symName: __ZN4core4time8Duration7as_secs17h1c9abc96921a8b0aE, symObjAddr: 0x36F8, symBinAddr: 0x45804, symSize: 0x18 }
  - { offset: 0x12CB86, size: 0x8, addend: 0x0, symName: __ZN4core5alloc6layout6Layout15from_size_align17hbf0cfb8e28533454E, symObjAddr: 0x3710, symBinAddr: 0x4581C, symSize: 0xC4 }
  - { offset: 0x12CC6F, size: 0x8, addend: 0x0, symName: __ZN4core5alloc6layout6Layout4size17h408f64f635ecab27E, symObjAddr: 0x37D4, symBinAddr: 0x458E0, symSize: 0x18 }
  - { offset: 0x12CD06, size: 0x8, addend: 0x0, symName: '__ZN4core6option15Option$LT$T$GT$18get_or_insert_with17hfa323d82a843768aE', symObjAddr: 0x3A04, symBinAddr: 0x45A5C, symSize: 0x160 }
  - { offset: 0x12CDC3, size: 0x8, addend: 0x0, symName: '__ZN4core6option15Option$LT$T$GT$3map17h6be5af13be41180bE', symObjAddr: 0x3BB4, symBinAddr: 0x45BBC, symSize: 0x6C }
  - { offset: 0x12CE46, size: 0x8, addend: 0x0, symName: '__ZN4core6option15Option$LT$T$GT$3map17he4e4be88fd144737E', symObjAddr: 0x3C20, symBinAddr: 0x45C28, symSize: 0x50 }
  - { offset: 0x12CEB1, size: 0x8, addend: 0x0, symName: '__ZN4core6option15Option$LT$T$GT$5ok_or17h60d7cc125d857a21E', symObjAddr: 0x3C70, symBinAddr: 0x45C78, symSize: 0x68 }
  - { offset: 0x12CF13, size: 0x8, addend: 0x0, symName: '__ZN4core6option15Option$LT$T$GT$5ok_or17h7d05ca621782ac6bE', symObjAddr: 0x3CD8, symBinAddr: 0x45CE0, symSize: 0x6C }
  - { offset: 0x12CF75, size: 0x8, addend: 0x0, symName: '__ZN4core6option15Option$LT$T$GT$6expect17h902a10c56b8943a9E', symObjAddr: 0x3DA0, symBinAddr: 0x45D4C, symSize: 0x58 }
  - { offset: 0x12CFBD, size: 0x8, addend: 0x0, symName: '__ZN4core6option15Option$LT$T$GT$7is_some17hea6a451c145e5805E', symObjAddr: 0x3E18, symBinAddr: 0x45DA4, symSize: 0x30 }
  - { offset: 0x12CFE9, size: 0x8, addend: 0x0, symName: '__ZN4core6option15Option$LT$T$GT$8and_then17h2dfb90634aad0b26E', symObjAddr: 0x3E48, symBinAddr: 0x45DD4, symSize: 0x54 }
  - { offset: 0x12D06C, size: 0x8, addend: 0x0, symName: '__ZN4core6option15Option$LT$T$GT$8and_then17hd77b4e8d8b3f1327E', symObjAddr: 0x3E9C, symBinAddr: 0x45E28, symSize: 0x54 }
  - { offset: 0x12D0D7, size: 0x8, addend: 0x0, symName: '__ZN4core6result19Result$LT$T$C$E$GT$14unwrap_or_else17h3253a101230688adE', symObjAddr: 0x3F98, symBinAddr: 0x45E7C, symSize: 0x54 }
  - { offset: 0x12D142, size: 0x8, addend: 0x0, symName: '__ZN4core6result19Result$LT$T$C$E$GT$14unwrap_or_else17h326c46b7cb479ab4E', symObjAddr: 0x3FEC, symBinAddr: 0x45ED0, symSize: 0x54 }
  - { offset: 0x12D1BA, size: 0x8, addend: 0x0, symName: '__ZN4core6result19Result$LT$T$C$E$GT$5is_ok17h64a42ccc08b9b2c0E', symObjAddr: 0x413C, symBinAddr: 0x45F24, symSize: 0x20 }
  - { offset: 0x12D214, size: 0x8, addend: 0x0, symName: '__ZN4core6result19Result$LT$T$C$E$GT$6is_err17h0c34b0dda86ff3aeE', symObjAddr: 0x415C, symBinAddr: 0x45F44, symSize: 0x20 }
  - { offset: 0x12D267, size: 0x8, addend: 0x0, symName: '__ZN4core6result19Result$LT$T$C$E$GT$7map_err17h41a02b3fb87dca32E', symObjAddr: 0x4218, symBinAddr: 0x45F64, symSize: 0x7C }
  - { offset: 0x12D3C8, size: 0x8, addend: 0x0, symName: '__ZN5alloc3vec16Vec$LT$T$C$A$GT$17from_raw_parts_in18precondition_check17h89e5432bed6f3365E', symObjAddr: 0x4508, symBinAddr: 0x4618C, symSize: 0x60 }
  - { offset: 0x12D422, size: 0x8, addend: 0x0, symName: '__ZN70_$LT$alloc..vec..Vec$LT$T$C$A$GT$$u20$as$u20$core..ops..drop..Drop$GT$4drop17hcd307445f33bddcbE', symObjAddr: 0x4AB4, symBinAddr: 0x46450, symSize: 0x24 }
  - { offset: 0x12D4E1, size: 0x8, addend: 0x0, symName: __ZN5alloc5alloc5alloc17h33751b5dd47c1ad7E, symObjAddr: 0x4568, symBinAddr: 0x461EC, symSize: 0x38 }
  - { offset: 0x12D50D, size: 0x8, addend: 0x0, symName: __ZN5alloc5alloc7dealloc17h2db953aa9b5df080E, symObjAddr: 0x45A0, symBinAddr: 0x46224, symSize: 0x38 }
  - { offset: 0x12D543, size: 0x8, addend: 0x0, symName: __ZN5alloc5alloc7realloc17h3a8918aef6ca9ecfE, symObjAddr: 0x45D8, symBinAddr: 0x4625C, symSize: 0x3C }
  - { offset: 0x12D747, size: 0x8, addend: 0x0, symName: '__ZN77_$LT$alloc..raw_vec..RawVec$LT$T$C$A$GT$$u20$as$u20$core..ops..drop..Drop$GT$4drop17hb41b6002b7b05f73E', symObjAddr: 0x4BC0, symBinAddr: 0x464E8, symSize: 0x30 }
  - { offset: 0x12D786, size: 0x8, addend: 0x0, symName: '__ZN5alloc3vec12Vec$LT$T$GT$14from_raw_parts17h68931d1a705d72bbE', symObjAddr: 0x43A4, symBinAddr: 0x460C4, symSize: 0x2C }
  - { offset: 0x12D8A7, size: 0x8, addend: 0x0, symName: '__ZN5alloc3vec16Vec$LT$T$C$A$GT$17from_raw_parts_in17h6794c56ee76da82dE', symObjAddr: 0x43D0, symBinAddr: 0x460F0, symSize: 0x9C }
  - { offset: 0x12DB9B, size: 0x8, addend: 0x0, symName: '__ZN8smallvec17SmallVec$LT$A$GT$10triple_mut17he1f75cbcefd91448E', symObjAddr: 0x5700, symBinAddr: 0x46B04, symSize: 0xA0 }
  - { offset: 0x12DBF5, size: 0x8, addend: 0x0, symName: '__ZN8smallvec17SmallVec$LT$A$GT$15inline_capacity17h853283476b8370cbE', symObjAddr: 0x57A0, symBinAddr: 0x46BA4, symSize: 0x40 }
  - { offset: 0x12DC12, size: 0x8, addend: 0x0, symName: '__ZN8smallvec17SmallVec$LT$A$GT$21reserve_one_unchecked17h779fae302f070a64E', symObjAddr: 0x58F4, symBinAddr: 0x8B094, symSize: 0xD4 }
  - { offset: 0x12DCB5, size: 0x8, addend: 0x0, symName: '__ZN8smallvec17SmallVec$LT$A$GT$3len17h304967c4d83f8ecdE', symObjAddr: 0x59C8, symBinAddr: 0x46BE4, symSize: 0x2C }
  - { offset: 0x12DCE1, size: 0x8, addend: 0x0, symName: '__ZN8smallvec17SmallVec$LT$A$GT$3new17hf782bc8c02b81ca6E', symObjAddr: 0x5AD4, symBinAddr: 0x46C10, symSize: 0xAC }
  - { offset: 0x12DD1A, size: 0x8, addend: 0x0, symName: '__ZN8smallvec17SmallVec$LT$A$GT$4push17h4dba2997c1dbbab3E', symObjAddr: 0x5B80, symBinAddr: 0x46CBC, symSize: 0x164 }
  - { offset: 0x12DE01, size: 0x8, addend: 0x0, symName: '__ZN8smallvec17SmallVec$LT$A$GT$6as_ptr17h8abbb65f382b35a0E', symObjAddr: 0x5E90, symBinAddr: 0x46E20, symSize: 0x30 }
  - { offset: 0x12DE56, size: 0x8, addend: 0x0, symName: '__ZN8smallvec17SmallVec$LT$A$GT$6triple17h0770ab10548c7392E', symObjAddr: 0x5EC0, symBinAddr: 0x46E50, symSize: 0x9C }
  - { offset: 0x12DEB0, size: 0x8, addend: 0x0, symName: '__ZN8smallvec17SmallVec$LT$A$GT$7set_len17h1abb4b6456d54a76E', symObjAddr: 0x5FF8, symBinAddr: 0x46EEC, symSize: 0x44 }
  - { offset: 0x12DF09, size: 0x8, addend: 0x0, symName: '__ZN8smallvec17SmallVec$LT$A$GT$7spilled17hf156da7ddb72ac1aE', symObjAddr: 0x60B8, symBinAddr: 0x46F30, symSize: 0x38 }
  - { offset: 0x12DF35, size: 0x8, addend: 0x0, symName: '__ZN8smallvec17SmallVec$LT$A$GT$8capacity17h3124c1621e9c7278E', symObjAddr: 0x60F0, symBinAddr: 0x46F68, symSize: 0x2C }
  - { offset: 0x12DF61, size: 0x8, addend: 0x0, symName: '__ZN8smallvec17SmallVec$LT$A$GT$8try_grow17h0c676b4ac7930d0fE', symObjAddr: 0x6148, symBinAddr: 0x46F94, symSize: 0x468 }
  - { offset: 0x12E156, size: 0x8, addend: 0x0, symName: '__ZN8smallvec21ConstNonNull$LT$T$GT$3new17he8cd64edd8305972E', symObjAddr: 0x6A5C, symBinAddr: 0x473FC, symSize: 0x28 }
  - { offset: 0x12E182, size: 0x8, addend: 0x0, symName: '__ZN8smallvec21ConstNonNull$LT$T$GT$6as_ptr17h53ada54e6747abc8E', symObjAddr: 0x6A84, symBinAddr: 0x47424, symSize: 0x1C }
  - { offset: 0x12E1E6, size: 0x8, addend: 0x0, symName: '__ZN8smallvec21SmallVecData$LT$A$GT$10inline_mut17h16bdbe5639b954edE', symObjAddr: 0x6ABC, symBinAddr: 0x47440, symSize: 0x94 }
  - { offset: 0x12E24E, size: 0x8, addend: 0x0, symName: '__ZN8smallvec21SmallVecData$LT$A$GT$11from_inline17hd6bf4856c274c637E', symObjAddr: 0x6C1C, symBinAddr: 0x474D4, symSize: 0x38 }
  - { offset: 0x12E2A6, size: 0x8, addend: 0x0, symName: '__ZN8smallvec21SmallVecData$LT$A$GT$4heap17haa0b79f033899683E', symObjAddr: 0x6C54, symBinAddr: 0x4750C, symSize: 0x68 }
  - { offset: 0x12E32B, size: 0x8, addend: 0x0, symName: '__ZN8smallvec21SmallVecData$LT$A$GT$6inline17h6c30079b579ae1b2E', symObjAddr: 0x6D24, symBinAddr: 0x47574, symSize: 0x94 }
  - { offset: 0x12E3B1, size: 0x8, addend: 0x0, symName: '__ZN8smallvec21SmallVecData$LT$A$GT$8heap_mut17h68dbf120a3a81c5eE', symObjAddr: 0x6EB4, symBinAddr: 0x47608, symSize: 0x68 }
  - { offset: 0x12E40B, size: 0x8, addend: 0x0, symName: '__ZN8smallvec21SmallVecData$LT$A$GT$9from_heap17he01c1982c22441efE', symObjAddr: 0x6F48, symBinAddr: 0x47670, symSize: 0x2C }
  - { offset: 0x12E701, size: 0x8, addend: 0x0, symName: '__ZN64_$LT$usize$u20$as$u20$parking_lot_core..word_lock..LockState$GT$10queue_head17h0540425e34aac5b8E', symObjAddr: 0x48FC, symBinAddr: 0x48C98, symSize: 0x14 }
  - { offset: 0x12E72F, size: 0x8, addend: 0x0, symName: '__ZN64_$LT$usize$u20$as$u20$parking_lot_core..word_lock..LockState$GT$15is_queue_locked17hb9d26ffe2ae4623dE', symObjAddr: 0x4910, symBinAddr: 0x48CAC, symSize: 0x18 }
  - { offset: 0x12E859, size: 0x8, addend: 0x0, symName: __ZN4core3cmp10PartialOrd2gt17h39408d2803b3fabcE, symObjAddr: 0x3198, symBinAddr: 0x47A60, symSize: 0x70 }
  - { offset: 0x12E91B, size: 0x8, addend: 0x0, symName: __ZN4core3cmp10PartialOrd2le17h9f549003ddd5d0f8E, symObjAddr: 0x3208, symBinAddr: 0x47AD0, symSize: 0x70 }
  - { offset: 0x12EC31, size: 0x8, addend: 0x0, symName: __ZN4core4sync6atomic11atomic_load17h7609d4970a68c823E, symObjAddr: 0x36B4, symBinAddr: 0x47CA8, symSize: 0xF8 }
  - { offset: 0x12EC77, size: 0x8, addend: 0x0, symName: __ZN4core4sync6atomic12atomic_store17h11a16a4118dc0777E, symObjAddr: 0x37AC, symBinAddr: 0x47DA0, symSize: 0xFC }
  - { offset: 0x12ECC8, size: 0x8, addend: 0x0, symName: __ZN4core4sync6atomic12atomic_store17h36237e314db73131E, symObjAddr: 0x39A4, symBinAddr: 0x47E9C, symSize: 0xFC }
  - { offset: 0x12ED19, size: 0x8, addend: 0x0, symName: __ZN4core4sync6atomic23atomic_compare_exchange17hc5bf272c63155e18E, symObjAddr: 0x3AF0, symBinAddr: 0x47F98, symSize: 0x4F4 }
  - { offset: 0x12EDB2, size: 0x8, addend: 0x0, symName: __ZN4core4sync6atomic28atomic_compare_exchange_weak17ha547d38979de4b19E, symObjAddr: 0x3FE4, symBinAddr: 0x4848C, symSize: 0x4F4 }
  - { offset: 0x12EE4B, size: 0x8, addend: 0x0, symName: __ZN4core4sync6atomic5fence17had8e5992952764b9E, symObjAddr: 0x44D8, symBinAddr: 0x48980, symSize: 0xB0 }
  - { offset: 0x12F93C, size: 0x8, addend: 0x0, symName: '__ZN11parking_lot9raw_mutex8RawMutex11unlock_slow28_$u7b$$u7b$closure$u7d$$u7d$17hf49be76cc98446a3E', symObjAddr: 0x2730, symBinAddr: 0x4770C, symSize: 0xD4 }
  - { offset: 0x12F9B5, size: 0x8, addend: 0x0, symName: '__ZN11parking_lot9raw_mutex8RawMutex9lock_slow28_$u7b$$u7b$closure$u7d$$u7d$17h4dd6278ae35ce700E', symObjAddr: 0x2ABC, symBinAddr: 0x477E0, symSize: 0x38 }
  - { offset: 0x12F9E4, size: 0x8, addend: 0x0, symName: '__ZN11parking_lot9raw_mutex8RawMutex9lock_slow28_$u7b$$u7b$closure$u7d$$u7d$17h8dbbd6adf62242e8E', symObjAddr: 0x2AF4, symBinAddr: 0x47818, symSize: 0x48 }
  - { offset: 0x12FA27, size: 0x8, addend: 0x0, symName: '__ZN11parking_lot9raw_mutex8RawMutex9lock_slow28_$u7b$$u7b$closure$u7d$$u7d$17hdd8217f9c19bec6bE', symObjAddr: 0x2B3C, symBinAddr: 0x47860, symSize: 0x10 }
  - { offset: 0x12FAB5, size: 0x8, addend: 0x0, symName: '__ZN60_$LT$std..time..Instant$u20$as$u20$core..cmp..PartialOrd$GT$11partial_cmp17h9521f7071db4ef72E', symObjAddr: 0x48D8, symBinAddr: 0x48C74, symSize: 0x24 }
  - { offset: 0x12FCC9, size: 0x8, addend: 0x0, symName: __ZN3std3sys12thread_local6native4lazy7destroy17h94f8dba1bfa193e8E, symObjAddr: 0x3104, symBinAddr: 0x479CC, symSize: 0x30 }
  - { offset: 0x12FCFF, size: 0x8, addend: 0x0, symName: '__ZN3std3sys12thread_local6native4lazy7destroy28_$u7b$$u7b$closure$u7d$$u7d$17hb7c853743eb7999cE', symObjAddr: 0x3134, symBinAddr: 0x479FC, symSize: 0x64 }
  - { offset: 0x12FDBA, size: 0x8, addend: 0x0, symName: '__ZN81_$LT$$LP$$RP$$u20$as$u20$std..sys..thread_local..native..lazy..DestroyedState$GT$13register_dtor17h5492a9e2ea0316aaE', symObjAddr: 0x4A24, symBinAddr: 0x48CC4, symSize: 0x34 }
  - { offset: 0x12FE2F, size: 0x8, addend: 0x0, symName: __ZN11parking_lot9raw_mutex8RawMutex11unlock_slow17h57f5b5ffe01c8bc6E, symObjAddr: 0x26E8, symBinAddr: 0x8B168, symSize: 0x48 }
  - { offset: 0x12FE9D, size: 0x8, addend: 0x0, symName: __ZN11parking_lot9raw_mutex8RawMutex9lock_slow17h1510778a39bd09e3E, symObjAddr: 0x28E0, symBinAddr: 0x8B1B0, symSize: 0x1DC }
  - { offset: 0x12FF92, size: 0x8, addend: 0x0, symName: __ZN16parking_lot_core9word_lock8WordLock4lock17h543c77aeb10f6c7fE, symObjAddr: 0x2B4C, symBinAddr: 0x47870, symSize: 0x64 }
  - { offset: 0x12FFB4, size: 0x8, addend: 0x0, symName: __ZN16parking_lot_core9word_lock8WordLock6unlock17h25a93eee4b5632c3E, symObjAddr: 0x2BB0, symBinAddr: 0x478D4, symSize: 0x68 }
  - { offset: 0x130132, size: 0x8, addend: 0x0, symName: '__ZN3std3sys12thread_local6native4lazy20Storage$LT$T$C$D$GT$11get_or_init17haa885e29fb4ca955E', symObjAddr: 0x2CAC, symBinAddr: 0x4793C, symSize: 0x90 }
